Archive member included to satisfy reference by file (symbol)

/home/tom/intelFPGA_lite/20.1/nios2eds/bin/gnu/H-x86_64-pc-linux-gnu/bin/../lib/gcc/nios2-elf/9.2.1/../../../../../H-x86_64-pc-linux-gnu/nios2-elf/lib/libc.a(lib_a-ctype_.o)
                              obj/default/network_utilities.o (_ctype_)
/home/tom/intelFPGA_lite/20.1/nios2eds/bin/gnu/H-x86_64-pc-linux-gnu/bin/../lib/gcc/nios2-elf/9.2.1/../../../../../H-x86_64-pc-linux-gnu/nios2-elf/lib/libc.a(lib_a-fprintf.o)
                              obj/default/alt_error_handler.o (fprintf)
/home/tom/intelFPGA_lite/20.1/nios2eds/bin/gnu/H-x86_64-pc-linux-gnu/bin/../lib/gcc/nios2-elf/9.2.1/../../../../../H-x86_64-pc-linux-gnu/nios2-elf/lib/libc.a(lib_a-fwrite.o)
                              obj/default/alt_error_handler.o (fwrite)
/home/tom/intelFPGA_lite/20.1/nios2eds/bin/gnu/H-x86_64-pc-linux-gnu/bin/../lib/gcc/nios2-elf/9.2.1/../../../../../H-x86_64-pc-linux-gnu/nios2-elf/lib/libc.a(lib_a-getchar.o)
                              obj/default/network_utilities.o (getchar)
/home/tom/intelFPGA_lite/20.1/nios2eds/bin/gnu/H-x86_64-pc-linux-gnu/bin/../lib/gcc/nios2-elf/9.2.1/../../../../../H-x86_64-pc-linux-gnu/nios2-elf/lib/libc.a(lib_a-impure.o)
                              obj/default/alt_error_handler.o (_impure_ptr)
/home/tom/intelFPGA_lite/20.1/nios2eds/bin/gnu/H-x86_64-pc-linux-gnu/bin/../lib/gcc/nios2-elf/9.2.1/../../../../../H-x86_64-pc-linux-gnu/nios2-elf/lib/libc.a(lib_a-memcmp.o)
                              obj/default/DELHProtocol.o (memcmp)
/home/tom/intelFPGA_lite/20.1/nios2eds/bin/gnu/H-x86_64-pc-linux-gnu/bin/../lib/gcc/nios2-elf/9.2.1/../../../../../H-x86_64-pc-linux-gnu/nios2-elf/lib/libc.a(lib_a-memcpy.o)
                              obj/default/DELHProtocol.o (memcpy)
/home/tom/intelFPGA_lite/20.1/nios2eds/bin/gnu/H-x86_64-pc-linux-gnu/bin/../lib/gcc/nios2-elf/9.2.1/../../../../../H-x86_64-pc-linux-gnu/nios2-elf/lib/libc.a(lib_a-memset.o)
                              obj/default/DELHProtocol.o (memset)
/home/tom/intelFPGA_lite/20.1/nios2eds/bin/gnu/H-x86_64-pc-linux-gnu/bin/../lib/gcc/nios2-elf/9.2.1/../../../../../H-x86_64-pc-linux-gnu/nios2-elf/lib/libc.a(lib_a-perror.o)
                              obj/default/DELHProtocol.o (perror)
/home/tom/intelFPGA_lite/20.1/nios2eds/bin/gnu/H-x86_64-pc-linux-gnu/bin/../lib/gcc/nios2-elf/9.2.1/../../../../../H-x86_64-pc-linux-gnu/nios2-elf/lib/libc.a(lib_a-printf.o)
                              obj/default/DELHProtocol.o (printf)
/home/tom/intelFPGA_lite/20.1/nios2eds/bin/gnu/H-x86_64-pc-linux-gnu/bin/../lib/gcc/nios2-elf/9.2.1/../../../../../H-x86_64-pc-linux-gnu/nios2-elf/lib/libc.a(lib_a-putchar.o)
                              obj/default/InitializePeriph.o (putchar)
/home/tom/intelFPGA_lite/20.1/nios2eds/bin/gnu/H-x86_64-pc-linux-gnu/bin/../lib/gcc/nios2-elf/9.2.1/../../../../../H-x86_64-pc-linux-gnu/nios2-elf/lib/libc.a(lib_a-puts.o)
                              obj/default/DELHProtocol.o (puts)
/home/tom/intelFPGA_lite/20.1/nios2eds/bin/gnu/H-x86_64-pc-linux-gnu/bin/../lib/gcc/nios2-elf/9.2.1/../../../../../H-x86_64-pc-linux-gnu/nios2-elf/lib/libc.a(lib_a-sprintf.o)
                              obj/default/DELHProtocol.o (sprintf)
/home/tom/intelFPGA_lite/20.1/nios2eds/bin/gnu/H-x86_64-pc-linux-gnu/bin/../lib/gcc/nios2-elf/9.2.1/../../../../../H-x86_64-pc-linux-gnu/nios2-elf/lib/libc.a(lib_a-strcpy.o)
                              obj/default/DELHProtocol.o (strcpy)
/home/tom/intelFPGA_lite/20.1/nios2eds/bin/gnu/H-x86_64-pc-linux-gnu/bin/../lib/gcc/nios2-elf/9.2.1/../../../../../H-x86_64-pc-linux-gnu/nios2-elf/lib/libc.a(lib_a-strerror.o)
                              /home/tom/intelFPGA_lite/20.1/nios2eds/bin/gnu/H-x86_64-pc-linux-gnu/bin/../lib/gcc/nios2-elf/9.2.1/../../../../../H-x86_64-pc-linux-gnu/nios2-elf/lib/libc.a(lib_a-perror.o) (_strerror_r)
/home/tom/intelFPGA_lite/20.1/nios2eds/bin/gnu/H-x86_64-pc-linux-gnu/bin/../lib/gcc/nios2-elf/9.2.1/../../../../../H-x86_64-pc-linux-gnu/nios2-elf/lib/libc.a(lib_a-strlen.o)
                              obj/default/DELHProtocol.o (strlen)
/home/tom/intelFPGA_lite/20.1/nios2eds/bin/gnu/H-x86_64-pc-linux-gnu/bin/../lib/gcc/nios2-elf/9.2.1/../../../../../H-x86_64-pc-linux-gnu/nios2-elf/lib/libc.a(lib_a-strtok.o)
                              obj/default/DELHProtocol.o (strtok)
/home/tom/intelFPGA_lite/20.1/nios2eds/bin/gnu/H-x86_64-pc-linux-gnu/bin/../lib/gcc/nios2-elf/9.2.1/../../../../../H-x86_64-pc-linux-gnu/nios2-elf/lib/libc.a(lib_a-strtok_r.o)
                              /home/tom/intelFPGA_lite/20.1/nios2eds/bin/gnu/H-x86_64-pc-linux-gnu/bin/../lib/gcc/nios2-elf/9.2.1/../../../../../H-x86_64-pc-linux-gnu/nios2-elf/lib/libc.a(lib_a-strtok.o) (__strtok_r)
/home/tom/intelFPGA_lite/20.1/nios2eds/bin/gnu/H-x86_64-pc-linux-gnu/bin/../lib/gcc/nios2-elf/9.2.1/../../../../../H-x86_64-pc-linux-gnu/nios2-elf/lib/libc.a(lib_a-strtoul.o)
                              obj/default/DELHProtocol.o (strtoul)
/home/tom/intelFPGA_lite/20.1/nios2eds/bin/gnu/H-x86_64-pc-linux-gnu/bin/../lib/gcc/nios2-elf/9.2.1/../../../../../H-x86_64-pc-linux-gnu/nios2-elf/lib/libc.a(lib_a-svfprintf.o)
                              /home/tom/intelFPGA_lite/20.1/nios2eds/bin/gnu/H-x86_64-pc-linux-gnu/bin/../lib/gcc/nios2-elf/9.2.1/../../../../../H-x86_64-pc-linux-gnu/nios2-elf/lib/libc.a(lib_a-sprintf.o) (___svfprintf_internal_r)
/home/tom/intelFPGA_lite/20.1/nios2eds/bin/gnu/H-x86_64-pc-linux-gnu/bin/../lib/gcc/nios2-elf/9.2.1/../../../../../H-x86_64-pc-linux-gnu/nios2-elf/lib/libc.a(lib_a-u_strerr.o)
                              /home/tom/intelFPGA_lite/20.1/nios2eds/bin/gnu/H-x86_64-pc-linux-gnu/bin/../lib/gcc/nios2-elf/9.2.1/../../../../../H-x86_64-pc-linux-gnu/nios2-elf/lib/libc.a(lib_a-strerror.o) (_user_strerror)
/home/tom/intelFPGA_lite/20.1/nios2eds/bin/gnu/H-x86_64-pc-linux-gnu/bin/../lib/gcc/nios2-elf/9.2.1/../../../../../H-x86_64-pc-linux-gnu/nios2-elf/lib/libc.a(lib_a-vfprintf.o)
                              /home/tom/intelFPGA_lite/20.1/nios2eds/bin/gnu/H-x86_64-pc-linux-gnu/bin/../lib/gcc/nios2-elf/9.2.1/../../../../../H-x86_64-pc-linux-gnu/nios2-elf/lib/libc.a(lib_a-printf.o) (___vfprintf_internal_r)
/home/tom/intelFPGA_lite/20.1/nios2eds/bin/gnu/H-x86_64-pc-linux-gnu/bin/../lib/gcc/nios2-elf/9.2.1/../../../../../H-x86_64-pc-linux-gnu/nios2-elf/lib/libc.a(lib_a-writer.o)
                              /home/tom/intelFPGA_lite/20.1/nios2eds/bin/gnu/H-x86_64-pc-linux-gnu/bin/../lib/gcc/nios2-elf/9.2.1/../../../../../H-x86_64-pc-linux-gnu/nios2-elf/lib/libc.a(lib_a-perror.o) (_write_r)
/home/tom/intelFPGA_lite/20.1/nios2eds/bin/gnu/H-x86_64-pc-linux-gnu/bin/../lib/gcc/nios2-elf/9.2.1/../../../../../H-x86_64-pc-linux-gnu/nios2-elf/lib/libc.a(lib_a-wsetup.o)
                              /home/tom/intelFPGA_lite/20.1/nios2eds/bin/gnu/H-x86_64-pc-linux-gnu/bin/../lib/gcc/nios2-elf/9.2.1/../../../../../H-x86_64-pc-linux-gnu/nios2-elf/lib/libc.a(lib_a-vfprintf.o) (__swsetup_r)
/home/tom/intelFPGA_lite/20.1/nios2eds/bin/gnu/H-x86_64-pc-linux-gnu/bin/../lib/gcc/nios2-elf/9.2.1/../../../../../H-x86_64-pc-linux-gnu/nios2-elf/lib/libc.a(lib_a-dtoa.o)
                              /home/tom/intelFPGA_lite/20.1/nios2eds/bin/gnu/H-x86_64-pc-linux-gnu/bin/../lib/gcc/nios2-elf/9.2.1/../../../../../H-x86_64-pc-linux-gnu/nios2-elf/lib/libc.a(lib_a-svfprintf.o) (_dtoa_r)
/home/tom/intelFPGA_lite/20.1/nios2eds/bin/gnu/H-x86_64-pc-linux-gnu/bin/../lib/gcc/nios2-elf/9.2.1/../../../../../H-x86_64-pc-linux-gnu/nios2-elf/lib/libc.a(lib_a-fflush.o)
                              /home/tom/intelFPGA_lite/20.1/nios2eds/bin/gnu/H-x86_64-pc-linux-gnu/bin/../lib/gcc/nios2-elf/9.2.1/../../../../../H-x86_64-pc-linux-gnu/nios2-elf/lib/libc.a(lib_a-perror.o) (_fflush_r)
/home/tom/intelFPGA_lite/20.1/nios2eds/bin/gnu/H-x86_64-pc-linux-gnu/bin/../lib/gcc/nios2-elf/9.2.1/../../../../../H-x86_64-pc-linux-gnu/nios2-elf/lib/libc.a(lib_a-fileno.o)
                              /home/tom/intelFPGA_lite/20.1/nios2eds/bin/gnu/H-x86_64-pc-linux-gnu/bin/../lib/gcc/nios2-elf/9.2.1/../../../../../H-x86_64-pc-linux-gnu/nios2-elf/lib/libc.a(lib_a-perror.o) (fileno)
/home/tom/intelFPGA_lite/20.1/nios2eds/bin/gnu/H-x86_64-pc-linux-gnu/bin/../lib/gcc/nios2-elf/9.2.1/../../../../../H-x86_64-pc-linux-gnu/nios2-elf/lib/libc.a(lib_a-findfp.o)
                              /home/tom/intelFPGA_lite/20.1/nios2eds/bin/gnu/H-x86_64-pc-linux-gnu/bin/../lib/gcc/nios2-elf/9.2.1/../../../../../H-x86_64-pc-linux-gnu/nios2-elf/lib/libc.a(lib_a-fwrite.o) (__sinit)
/home/tom/intelFPGA_lite/20.1/nios2eds/bin/gnu/H-x86_64-pc-linux-gnu/bin/../lib/gcc/nios2-elf/9.2.1/../../../../../H-x86_64-pc-linux-gnu/nios2-elf/lib/libc.a(lib_a-freer.o)
                              /home/tom/intelFPGA_lite/20.1/nios2eds/bin/gnu/H-x86_64-pc-linux-gnu/bin/../lib/gcc/nios2-elf/9.2.1/../../../../../H-x86_64-pc-linux-gnu/nios2-elf/lib/libc.a(lib_a-wsetup.o) (_free_r)
/home/tom/intelFPGA_lite/20.1/nios2eds/bin/gnu/H-x86_64-pc-linux-gnu/bin/../lib/gcc/nios2-elf/9.2.1/../../../../../H-x86_64-pc-linux-gnu/nios2-elf/lib/libc.a(lib_a-fvwrite.o)
                              /home/tom/intelFPGA_lite/20.1/nios2eds/bin/gnu/H-x86_64-pc-linux-gnu/bin/../lib/gcc/nios2-elf/9.2.1/../../../../../H-x86_64-pc-linux-gnu/nios2-elf/lib/libc.a(lib_a-fwrite.o) (__sfvwrite_r)
/home/tom/intelFPGA_lite/20.1/nios2eds/bin/gnu/H-x86_64-pc-linux-gnu/bin/../lib/gcc/nios2-elf/9.2.1/../../../../../H-x86_64-pc-linux-gnu/nios2-elf/lib/libc.a(lib_a-fwalk.o)
                              /home/tom/intelFPGA_lite/20.1/nios2eds/bin/gnu/H-x86_64-pc-linux-gnu/bin/../lib/gcc/nios2-elf/9.2.1/../../../../../H-x86_64-pc-linux-gnu/nios2-elf/lib/libc.a(lib_a-findfp.o) (_fwalk)
/home/tom/intelFPGA_lite/20.1/nios2eds/bin/gnu/H-x86_64-pc-linux-gnu/bin/../lib/gcc/nios2-elf/9.2.1/../../../../../H-x86_64-pc-linux-gnu/nios2-elf/lib/libc.a(lib_a-getc.o)
                              /home/tom/intelFPGA_lite/20.1/nios2eds/bin/gnu/H-x86_64-pc-linux-gnu/bin/../lib/gcc/nios2-elf/9.2.1/../../../../../H-x86_64-pc-linux-gnu/nios2-elf/lib/libc.a(lib_a-getchar.o) (_getc_r)
/home/tom/intelFPGA_lite/20.1/nios2eds/bin/gnu/H-x86_64-pc-linux-gnu/bin/../lib/gcc/nios2-elf/9.2.1/../../../../../H-x86_64-pc-linux-gnu/nios2-elf/lib/libc.a(lib_a-int_errno.o)
                              /home/tom/intelFPGA_lite/20.1/nios2eds/bin/gnu/H-x86_64-pc-linux-gnu/bin/../lib/gcc/nios2-elf/9.2.1/../../../../../H-x86_64-pc-linux-gnu/nios2-elf/lib/libc.a(lib_a-writer.o) (errno)
/home/tom/intelFPGA_lite/20.1/nios2eds/bin/gnu/H-x86_64-pc-linux-gnu/bin/../lib/gcc/nios2-elf/9.2.1/../../../../../H-x86_64-pc-linux-gnu/nios2-elf/lib/libc.a(lib_a-localeconv.o)
                              /home/tom/intelFPGA_lite/20.1/nios2eds/bin/gnu/H-x86_64-pc-linux-gnu/bin/../lib/gcc/nios2-elf/9.2.1/../../../../../H-x86_64-pc-linux-gnu/nios2-elf/lib/libc.a(lib_a-svfprintf.o) (_localeconv_r)
/home/tom/intelFPGA_lite/20.1/nios2eds/bin/gnu/H-x86_64-pc-linux-gnu/bin/../lib/gcc/nios2-elf/9.2.1/../../../../../H-x86_64-pc-linux-gnu/nios2-elf/lib/libc.a(lib_a-makebuf.o)
                              /home/tom/intelFPGA_lite/20.1/nios2eds/bin/gnu/H-x86_64-pc-linux-gnu/bin/../lib/gcc/nios2-elf/9.2.1/../../../../../H-x86_64-pc-linux-gnu/nios2-elf/lib/libc.a(lib_a-wsetup.o) (__smakebuf_r)
/home/tom/intelFPGA_lite/20.1/nios2eds/bin/gnu/H-x86_64-pc-linux-gnu/bin/../lib/gcc/nios2-elf/9.2.1/../../../../../H-x86_64-pc-linux-gnu/nios2-elf/lib/libc.a(lib_a-mallocr.o)
                              /home/tom/intelFPGA_lite/20.1/nios2eds/bin/gnu/H-x86_64-pc-linux-gnu/bin/../lib/gcc/nios2-elf/9.2.1/../../../../../H-x86_64-pc-linux-gnu/nios2-elf/lib/libc.a(lib_a-svfprintf.o) (_malloc_r)
/home/tom/intelFPGA_lite/20.1/nios2eds/bin/gnu/H-x86_64-pc-linux-gnu/bin/../lib/gcc/nios2-elf/9.2.1/../../../../../H-x86_64-pc-linux-gnu/nios2-elf/lib/libc.a(lib_a-memchr.o)
                              /home/tom/intelFPGA_lite/20.1/nios2eds/bin/gnu/H-x86_64-pc-linux-gnu/bin/../lib/gcc/nios2-elf/9.2.1/../../../../../H-x86_64-pc-linux-gnu/nios2-elf/lib/libc.a(lib_a-svfprintf.o) (memchr)
/home/tom/intelFPGA_lite/20.1/nios2eds/bin/gnu/H-x86_64-pc-linux-gnu/bin/../lib/gcc/nios2-elf/9.2.1/../../../../../H-x86_64-pc-linux-gnu/nios2-elf/lib/libc.a(lib_a-memmove.o)
                              /home/tom/intelFPGA_lite/20.1/nios2eds/bin/gnu/H-x86_64-pc-linux-gnu/bin/../lib/gcc/nios2-elf/9.2.1/../../../../../H-x86_64-pc-linux-gnu/nios2-elf/lib/libc.a(lib_a-fvwrite.o) (memmove)
/home/tom/intelFPGA_lite/20.1/nios2eds/bin/gnu/H-x86_64-pc-linux-gnu/bin/../lib/gcc/nios2-elf/9.2.1/../../../../../H-x86_64-pc-linux-gnu/nios2-elf/lib/libc.a(lib_a-mprec.o)
                              /home/tom/intelFPGA_lite/20.1/nios2eds/bin/gnu/H-x86_64-pc-linux-gnu/bin/../lib/gcc/nios2-elf/9.2.1/../../../../../H-x86_64-pc-linux-gnu/nios2-elf/lib/libc.a(lib_a-dtoa.o) (_Balloc)
/home/tom/intelFPGA_lite/20.1/nios2eds/bin/gnu/H-x86_64-pc-linux-gnu/bin/../lib/gcc/nios2-elf/9.2.1/../../../../../H-x86_64-pc-linux-gnu/nios2-elf/lib/libc.a(lib_a-putc.o)
                              /home/tom/intelFPGA_lite/20.1/nios2eds/bin/gnu/H-x86_64-pc-linux-gnu/bin/../lib/gcc/nios2-elf/9.2.1/../../../../../H-x86_64-pc-linux-gnu/nios2-elf/lib/libc.a(lib_a-putchar.o) (_putc_r)
/home/tom/intelFPGA_lite/20.1/nios2eds/bin/gnu/H-x86_64-pc-linux-gnu/bin/../lib/gcc/nios2-elf/9.2.1/../../../../../H-x86_64-pc-linux-gnu/nios2-elf/lib/libc.a(lib_a-reallocr.o)
                              /home/tom/intelFPGA_lite/20.1/nios2eds/bin/gnu/H-x86_64-pc-linux-gnu/bin/../lib/gcc/nios2-elf/9.2.1/../../../../../H-x86_64-pc-linux-gnu/nios2-elf/lib/libc.a(lib_a-fvwrite.o) (_realloc_r)
/home/tom/intelFPGA_lite/20.1/nios2eds/bin/gnu/H-x86_64-pc-linux-gnu/bin/../lib/gcc/nios2-elf/9.2.1/../../../../../H-x86_64-pc-linux-gnu/nios2-elf/lib/libc.a(lib_a-rget.o)
                              /home/tom/intelFPGA_lite/20.1/nios2eds/bin/gnu/H-x86_64-pc-linux-gnu/bin/../lib/gcc/nios2-elf/9.2.1/../../../../../H-x86_64-pc-linux-gnu/nios2-elf/lib/libc.a(lib_a-getc.o) (__srget_r)
/home/tom/intelFPGA_lite/20.1/nios2eds/bin/gnu/H-x86_64-pc-linux-gnu/bin/../lib/gcc/nios2-elf/9.2.1/../../../../../H-x86_64-pc-linux-gnu/nios2-elf/lib/libc.a(lib_a-sbrkr.o)
                              /home/tom/intelFPGA_lite/20.1/nios2eds/bin/gnu/H-x86_64-pc-linux-gnu/bin/../lib/gcc/nios2-elf/9.2.1/../../../../../H-x86_64-pc-linux-gnu/nios2-elf/lib/libc.a(lib_a-freer.o) (_sbrk_r)
/home/tom/intelFPGA_lite/20.1/nios2eds/bin/gnu/H-x86_64-pc-linux-gnu/bin/../lib/gcc/nios2-elf/9.2.1/../../../../../H-x86_64-pc-linux-gnu/nios2-elf/lib/libc.a(lib_a-stdio.o)
                              /home/tom/intelFPGA_lite/20.1/nios2eds/bin/gnu/H-x86_64-pc-linux-gnu/bin/../lib/gcc/nios2-elf/9.2.1/../../../../../H-x86_64-pc-linux-gnu/nios2-elf/lib/libc.a(lib_a-findfp.o) (__sread)
/home/tom/intelFPGA_lite/20.1/nios2eds/bin/gnu/H-x86_64-pc-linux-gnu/bin/../lib/gcc/nios2-elf/9.2.1/../../../../../H-x86_64-pc-linux-gnu/nios2-elf/lib/libc.a(lib_a-svfiprintf.o)
                              /home/tom/intelFPGA_lite/20.1/nios2eds/bin/gnu/H-x86_64-pc-linux-gnu/bin/../lib/gcc/nios2-elf/9.2.1/../../../../../H-x86_64-pc-linux-gnu/nios2-elf/lib/libc.a(lib_a-svfprintf.o) (__ssprint_r)
/home/tom/intelFPGA_lite/20.1/nios2eds/bin/gnu/H-x86_64-pc-linux-gnu/bin/../lib/gcc/nios2-elf/9.2.1/../../../../../H-x86_64-pc-linux-gnu/nios2-elf/lib/libc.a(lib_a-vfiprintf.o)
                              /home/tom/intelFPGA_lite/20.1/nios2eds/bin/gnu/H-x86_64-pc-linux-gnu/bin/../lib/gcc/nios2-elf/9.2.1/../../../../../H-x86_64-pc-linux-gnu/nios2-elf/lib/libc.a(lib_a-vfprintf.o) (__sprint_r)
/home/tom/intelFPGA_lite/20.1/nios2eds/bin/gnu/H-x86_64-pc-linux-gnu/bin/../lib/gcc/nios2-elf/9.2.1/../../../../../H-x86_64-pc-linux-gnu/nios2-elf/lib/libc.a(lib_a-wbuf.o)
                              /home/tom/intelFPGA_lite/20.1/nios2eds/bin/gnu/H-x86_64-pc-linux-gnu/bin/../lib/gcc/nios2-elf/9.2.1/../../../../../H-x86_64-pc-linux-gnu/nios2-elf/lib/libc.a(lib_a-putc.o) (__swbuf_r)
/home/tom/intelFPGA_lite/20.1/nios2eds/bin/gnu/H-x86_64-pc-linux-gnu/bin/../lib/gcc/nios2-elf/9.2.1/../../../../../H-x86_64-pc-linux-gnu/nios2-elf/lib/libc.a(closer.o)
                              /home/tom/intelFPGA_lite/20.1/nios2eds/bin/gnu/H-x86_64-pc-linux-gnu/bin/../lib/gcc/nios2-elf/9.2.1/../../../../../H-x86_64-pc-linux-gnu/nios2-elf/lib/libc.a(lib_a-stdio.o) (_close_r)
/home/tom/intelFPGA_lite/20.1/nios2eds/bin/gnu/H-x86_64-pc-linux-gnu/bin/../lib/gcc/nios2-elf/9.2.1/../../../../../H-x86_64-pc-linux-gnu/nios2-elf/lib/libc.a(lib_a-assert.o)
                              /home/tom/intelFPGA_lite/20.1/nios2eds/bin/gnu/H-x86_64-pc-linux-gnu/bin/../lib/gcc/nios2-elf/9.2.1/../../../../../H-x86_64-pc-linux-gnu/nios2-elf/lib/libc.a(lib_a-dtoa.o) (__assert_func)
/home/tom/intelFPGA_lite/20.1/nios2eds/bin/gnu/H-x86_64-pc-linux-gnu/bin/../lib/gcc/nios2-elf/9.2.1/../../../../../H-x86_64-pc-linux-gnu/nios2-elf/lib/libc.a(lib_a-callocr.o)
                              /home/tom/intelFPGA_lite/20.1/nios2eds/bin/gnu/H-x86_64-pc-linux-gnu/bin/../lib/gcc/nios2-elf/9.2.1/../../../../../H-x86_64-pc-linux-gnu/nios2-elf/lib/libc.a(lib_a-mprec.o) (_calloc_r)
/home/tom/intelFPGA_lite/20.1/nios2eds/bin/gnu/H-x86_64-pc-linux-gnu/bin/../lib/gcc/nios2-elf/9.2.1/../../../../../H-x86_64-pc-linux-gnu/nios2-elf/lib/libc.a(lib_a-fclose.o)
                              /home/tom/intelFPGA_lite/20.1/nios2eds/bin/gnu/H-x86_64-pc-linux-gnu/bin/../lib/gcc/nios2-elf/9.2.1/../../../../../H-x86_64-pc-linux-gnu/nios2-elf/lib/libc.a(lib_a-findfp.o) (_fclose_r)
/home/tom/intelFPGA_lite/20.1/nios2eds/bin/gnu/H-x86_64-pc-linux-gnu/bin/../lib/gcc/nios2-elf/9.2.1/../../../../../H-x86_64-pc-linux-gnu/nios2-elf/lib/libc.a(lib_a-fiprintf.o)
                              /home/tom/intelFPGA_lite/20.1/nios2eds/bin/gnu/H-x86_64-pc-linux-gnu/bin/../lib/gcc/nios2-elf/9.2.1/../../../../../H-x86_64-pc-linux-gnu/nios2-elf/lib/libc.a(lib_a-assert.o) (fiprintf)
/home/tom/intelFPGA_lite/20.1/nios2eds/bin/gnu/H-x86_64-pc-linux-gnu/bin/../lib/gcc/nios2-elf/9.2.1/../../../../../H-x86_64-pc-linux-gnu/nios2-elf/lib/libc.a(lib_a-fputwc.o)
                              /home/tom/intelFPGA_lite/20.1/nios2eds/bin/gnu/H-x86_64-pc-linux-gnu/bin/../lib/gcc/nios2-elf/9.2.1/../../../../../H-x86_64-pc-linux-gnu/nios2-elf/lib/libc.a(lib_a-vfiprintf.o) (_fputwc_r)
/home/tom/intelFPGA_lite/20.1/nios2eds/bin/gnu/H-x86_64-pc-linux-gnu/bin/../lib/gcc/nios2-elf/9.2.1/../../../../../H-x86_64-pc-linux-gnu/nios2-elf/lib/libc.a(lib_a-fstatr.o)
                              /home/tom/intelFPGA_lite/20.1/nios2eds/bin/gnu/H-x86_64-pc-linux-gnu/bin/../lib/gcc/nios2-elf/9.2.1/../../../../../H-x86_64-pc-linux-gnu/nios2-elf/lib/libc.a(lib_a-makebuf.o) (_fstat_r)
/home/tom/intelFPGA_lite/20.1/nios2eds/bin/gnu/H-x86_64-pc-linux-gnu/bin/../lib/gcc/nios2-elf/9.2.1/../../../../../H-x86_64-pc-linux-gnu/nios2-elf/lib/libc.a(lib_a-isattyr.o)
                              /home/tom/intelFPGA_lite/20.1/nios2eds/bin/gnu/H-x86_64-pc-linux-gnu/bin/../lib/gcc/nios2-elf/9.2.1/../../../../../H-x86_64-pc-linux-gnu/nios2-elf/lib/libc.a(lib_a-makebuf.o) (_isatty_r)
/home/tom/intelFPGA_lite/20.1/nios2eds/bin/gnu/H-x86_64-pc-linux-gnu/bin/../lib/gcc/nios2-elf/9.2.1/../../../../../H-x86_64-pc-linux-gnu/nios2-elf/lib/libc.a(lib_a-locale.o)
                              /home/tom/intelFPGA_lite/20.1/nios2eds/bin/gnu/H-x86_64-pc-linux-gnu/bin/../lib/gcc/nios2-elf/9.2.1/../../../../../H-x86_64-pc-linux-gnu/nios2-elf/lib/libc.a(lib_a-fputwc.o) (__locale_mb_cur_max)
/home/tom/intelFPGA_lite/20.1/nios2eds/bin/gnu/H-x86_64-pc-linux-gnu/bin/../lib/gcc/nios2-elf/9.2.1/../../../../../H-x86_64-pc-linux-gnu/nios2-elf/lib/libc.a(lib_a-lseekr.o)
                              /home/tom/intelFPGA_lite/20.1/nios2eds/bin/gnu/H-x86_64-pc-linux-gnu/bin/../lib/gcc/nios2-elf/9.2.1/../../../../../H-x86_64-pc-linux-gnu/nios2-elf/lib/libc.a(lib_a-stdio.o) (_lseek_r)
/home/tom/intelFPGA_lite/20.1/nios2eds/bin/gnu/H-x86_64-pc-linux-gnu/bin/../lib/gcc/nios2-elf/9.2.1/../../../../../H-x86_64-pc-linux-gnu/nios2-elf/lib/libc.a(lib_a-mbtowc_r.o)
                              /home/tom/intelFPGA_lite/20.1/nios2eds/bin/gnu/H-x86_64-pc-linux-gnu/bin/../lib/gcc/nios2-elf/9.2.1/../../../../../H-x86_64-pc-linux-gnu/nios2-elf/lib/libc.a(lib_a-locale.o) (__ascii_mbtowc)
/home/tom/intelFPGA_lite/20.1/nios2eds/bin/gnu/H-x86_64-pc-linux-gnu/bin/../lib/gcc/nios2-elf/9.2.1/../../../../../H-x86_64-pc-linux-gnu/nios2-elf/lib/libc.a(lib_a-readr.o)
                              /home/tom/intelFPGA_lite/20.1/nios2eds/bin/gnu/H-x86_64-pc-linux-gnu/bin/../lib/gcc/nios2-elf/9.2.1/../../../../../H-x86_64-pc-linux-gnu/nios2-elf/lib/libc.a(lib_a-stdio.o) (_read_r)
/home/tom/intelFPGA_lite/20.1/nios2eds/bin/gnu/H-x86_64-pc-linux-gnu/bin/../lib/gcc/nios2-elf/9.2.1/../../../../../H-x86_64-pc-linux-gnu/nios2-elf/lib/libc.a(lib_a-refill.o)
                              /home/tom/intelFPGA_lite/20.1/nios2eds/bin/gnu/H-x86_64-pc-linux-gnu/bin/../lib/gcc/nios2-elf/9.2.1/../../../../../H-x86_64-pc-linux-gnu/nios2-elf/lib/libc.a(lib_a-rget.o) (__srefill_r)
/home/tom/intelFPGA_lite/20.1/nios2eds/bin/gnu/H-x86_64-pc-linux-gnu/bin/../lib/gcc/nios2-elf/9.2.1/../../../../../H-x86_64-pc-linux-gnu/nios2-elf/lib/libc.a(lib_a-strcmp.o)
                              /home/tom/intelFPGA_lite/20.1/nios2eds/bin/gnu/H-x86_64-pc-linux-gnu/bin/../lib/gcc/nios2-elf/9.2.1/../../../../../H-x86_64-pc-linux-gnu/nios2-elf/lib/libc.a(lib_a-locale.o) (strcmp)
/home/tom/intelFPGA_lite/20.1/nios2eds/bin/gnu/H-x86_64-pc-linux-gnu/bin/../lib/gcc/nios2-elf/9.2.1/../../../../../H-x86_64-pc-linux-gnu/nios2-elf/lib/libc.a(lib_a-vfiprintfr_1.o)
                              /home/tom/intelFPGA_lite/20.1/nios2eds/bin/gnu/H-x86_64-pc-linux-gnu/bin/../lib/gcc/nios2-elf/9.2.1/../../../../../H-x86_64-pc-linux-gnu/nios2-elf/lib/libc.a(lib_a-fiprintf.o) (_vfiprintf_r)
/home/tom/intelFPGA_lite/20.1/nios2eds/bin/gnu/H-x86_64-pc-linux-gnu/bin/../lib/gcc/nios2-elf/9.2.1/../../../../../H-x86_64-pc-linux-gnu/nios2-elf/lib/libc.a(lib_a-wcrtomb.o)
                              /home/tom/intelFPGA_lite/20.1/nios2eds/bin/gnu/H-x86_64-pc-linux-gnu/bin/../lib/gcc/nios2-elf/9.2.1/../../../../../H-x86_64-pc-linux-gnu/nios2-elf/lib/libc.a(lib_a-fputwc.o) (_wcrtomb_r)
/home/tom/intelFPGA_lite/20.1/nios2eds/bin/gnu/H-x86_64-pc-linux-gnu/bin/../lib/gcc/nios2-elf/9.2.1/../../../../../H-x86_64-pc-linux-gnu/nios2-elf/lib/libc.a(lib_a-wctomb_r.o)
                              /home/tom/intelFPGA_lite/20.1/nios2eds/bin/gnu/H-x86_64-pc-linux-gnu/bin/../lib/gcc/nios2-elf/9.2.1/../../../../../H-x86_64-pc-linux-gnu/nios2-elf/lib/libc.a(lib_a-locale.o) (__ascii_wctomb)
/home/tom/intelFPGA_lite/20.1/nios2eds/bin/gnu/H-x86_64-pc-linux-gnu/bin/../lib/gcc/nios2-elf/9.2.1/../../../../../H-x86_64-pc-linux-gnu/nios2-elf/lib/libc.a(lib_a-abort.o)
                              /home/tom/intelFPGA_lite/20.1/nios2eds/bin/gnu/H-x86_64-pc-linux-gnu/bin/../lib/gcc/nios2-elf/9.2.1/../../../../../H-x86_64-pc-linux-gnu/nios2-elf/lib/libc.a(lib_a-assert.o) (abort)
/home/tom/intelFPGA_lite/20.1/nios2eds/bin/gnu/H-x86_64-pc-linux-gnu/bin/../lib/gcc/nios2-elf/9.2.1/../../../../../H-x86_64-pc-linux-gnu/nios2-elf/lib/libc.a(lib_a-signal.o)
                              /home/tom/intelFPGA_lite/20.1/nios2eds/bin/gnu/H-x86_64-pc-linux-gnu/bin/../lib/gcc/nios2-elf/9.2.1/../../../../../H-x86_64-pc-linux-gnu/nios2-elf/lib/libc.a(lib_a-abort.o) (raise)
/home/tom/intelFPGA_lite/20.1/nios2eds/bin/gnu/H-x86_64-pc-linux-gnu/bin/../lib/gcc/nios2-elf/9.2.1/../../../../../H-x86_64-pc-linux-gnu/nios2-elf/lib/libc.a(lib_a-signalr.o)
                              /home/tom/intelFPGA_lite/20.1/nios2eds/bin/gnu/H-x86_64-pc-linux-gnu/bin/../lib/gcc/nios2-elf/9.2.1/../../../../../H-x86_64-pc-linux-gnu/nios2-elf/lib/libc.a(lib_a-signal.o) (_kill_r)
/home/tom/intelFPGA_lite/20.1/nios2eds/bin/gnu/H-x86_64-pc-linux-gnu/bin/../lib/gcc/nios2-elf/9.2.1/libgcc.a(_udivdi3.o)
                              /home/tom/intelFPGA_lite/20.1/nios2eds/bin/gnu/H-x86_64-pc-linux-gnu/bin/../lib/gcc/nios2-elf/9.2.1/../../../../../H-x86_64-pc-linux-gnu/nios2-elf/lib/libc.a(lib_a-svfprintf.o) (__udivdi3)
/home/tom/intelFPGA_lite/20.1/nios2eds/bin/gnu/H-x86_64-pc-linux-gnu/bin/../lib/gcc/nios2-elf/9.2.1/libgcc.a(_umoddi3.o)
                              /home/tom/intelFPGA_lite/20.1/nios2eds/bin/gnu/H-x86_64-pc-linux-gnu/bin/../lib/gcc/nios2-elf/9.2.1/../../../../../H-x86_64-pc-linux-gnu/nios2-elf/lib/libc.a(lib_a-svfprintf.o) (__umoddi3)
/home/tom/intelFPGA_lite/20.1/nios2eds/bin/gnu/H-x86_64-pc-linux-gnu/bin/../lib/gcc/nios2-elf/9.2.1/libgcc.a(lib2-divmod.o)
                              /home/tom/intelFPGA_lite/20.1/nios2eds/bin/gnu/H-x86_64-pc-linux-gnu/bin/../lib/gcc/nios2-elf/9.2.1/../../../../../H-x86_64-pc-linux-gnu/nios2-elf/lib/libc.a(lib_a-svfprintf.o) (__divsi3)
/home/tom/intelFPGA_lite/20.1/nios2eds/bin/gnu/H-x86_64-pc-linux-gnu/bin/../lib/gcc/nios2-elf/9.2.1/libgcc.a(adddf3.o)
                              /home/tom/intelFPGA_lite/20.1/nios2eds/bin/gnu/H-x86_64-pc-linux-gnu/bin/../lib/gcc/nios2-elf/9.2.1/../../../../../H-x86_64-pc-linux-gnu/nios2-elf/lib/libc.a(lib_a-dtoa.o) (__adddf3)
/home/tom/intelFPGA_lite/20.1/nios2eds/bin/gnu/H-x86_64-pc-linux-gnu/bin/../lib/gcc/nios2-elf/9.2.1/libgcc.a(divdf3.o)
                              /home/tom/intelFPGA_lite/20.1/nios2eds/bin/gnu/H-x86_64-pc-linux-gnu/bin/../lib/gcc/nios2-elf/9.2.1/../../../../../H-x86_64-pc-linux-gnu/nios2-elf/lib/libc.a(lib_a-dtoa.o) (__divdf3)
/home/tom/intelFPGA_lite/20.1/nios2eds/bin/gnu/H-x86_64-pc-linux-gnu/bin/../lib/gcc/nios2-elf/9.2.1/libgcc.a(eqdf2.o)
                              /home/tom/intelFPGA_lite/20.1/nios2eds/bin/gnu/H-x86_64-pc-linux-gnu/bin/../lib/gcc/nios2-elf/9.2.1/../../../../../H-x86_64-pc-linux-gnu/nios2-elf/lib/libc.a(lib_a-svfprintf.o) (__eqdf2)
/home/tom/intelFPGA_lite/20.1/nios2eds/bin/gnu/H-x86_64-pc-linux-gnu/bin/../lib/gcc/nios2-elf/9.2.1/libgcc.a(gedf2.o)
                              /home/tom/intelFPGA_lite/20.1/nios2eds/bin/gnu/H-x86_64-pc-linux-gnu/bin/../lib/gcc/nios2-elf/9.2.1/../../../../../H-x86_64-pc-linux-gnu/nios2-elf/lib/libc.a(lib_a-dtoa.o) (__gtdf2)
/home/tom/intelFPGA_lite/20.1/nios2eds/bin/gnu/H-x86_64-pc-linux-gnu/bin/../lib/gcc/nios2-elf/9.2.1/libgcc.a(ledf2.o)
                              /home/tom/intelFPGA_lite/20.1/nios2eds/bin/gnu/H-x86_64-pc-linux-gnu/bin/../lib/gcc/nios2-elf/9.2.1/../../../../../H-x86_64-pc-linux-gnu/nios2-elf/lib/libc.a(lib_a-svfprintf.o) (__ledf2)
/home/tom/intelFPGA_lite/20.1/nios2eds/bin/gnu/H-x86_64-pc-linux-gnu/bin/../lib/gcc/nios2-elf/9.2.1/libgcc.a(muldf3.o)
                              /home/tom/intelFPGA_lite/20.1/nios2eds/bin/gnu/H-x86_64-pc-linux-gnu/bin/../lib/gcc/nios2-elf/9.2.1/../../../../../H-x86_64-pc-linux-gnu/nios2-elf/lib/libc.a(lib_a-dtoa.o) (__muldf3)
/home/tom/intelFPGA_lite/20.1/nios2eds/bin/gnu/H-x86_64-pc-linux-gnu/bin/../lib/gcc/nios2-elf/9.2.1/libgcc.a(subdf3.o)
                              /home/tom/intelFPGA_lite/20.1/nios2eds/bin/gnu/H-x86_64-pc-linux-gnu/bin/../lib/gcc/nios2-elf/9.2.1/../../../../../H-x86_64-pc-linux-gnu/nios2-elf/lib/libc.a(lib_a-dtoa.o) (__subdf3)
/home/tom/intelFPGA_lite/20.1/nios2eds/bin/gnu/H-x86_64-pc-linux-gnu/bin/../lib/gcc/nios2-elf/9.2.1/libgcc.a(unorddf2.o)
                              /home/tom/intelFPGA_lite/20.1/nios2eds/bin/gnu/H-x86_64-pc-linux-gnu/bin/../lib/gcc/nios2-elf/9.2.1/../../../../../H-x86_64-pc-linux-gnu/nios2-elf/lib/libc.a(lib_a-svfprintf.o) (__unorddf2)
/home/tom/intelFPGA_lite/20.1/nios2eds/bin/gnu/H-x86_64-pc-linux-gnu/bin/../lib/gcc/nios2-elf/9.2.1/libgcc.a(fixdfsi.o)
                              /home/tom/intelFPGA_lite/20.1/nios2eds/bin/gnu/H-x86_64-pc-linux-gnu/bin/../lib/gcc/nios2-elf/9.2.1/../../../../../H-x86_64-pc-linux-gnu/nios2-elf/lib/libc.a(lib_a-dtoa.o) (__fixdfsi)
/home/tom/intelFPGA_lite/20.1/nios2eds/bin/gnu/H-x86_64-pc-linux-gnu/bin/../lib/gcc/nios2-elf/9.2.1/libgcc.a(floatsidf.o)
                              /home/tom/intelFPGA_lite/20.1/nios2eds/bin/gnu/H-x86_64-pc-linux-gnu/bin/../lib/gcc/nios2-elf/9.2.1/../../../../../H-x86_64-pc-linux-gnu/nios2-elf/lib/libc.a(lib_a-dtoa.o) (__floatsidf)
/home/tom/intelFPGA_lite/20.1/nios2eds/bin/gnu/H-x86_64-pc-linux-gnu/bin/../lib/gcc/nios2-elf/9.2.1/libgcc.a(floatunsidf.o)
                              /home/tom/intelFPGA_lite/20.1/nios2eds/bin/gnu/H-x86_64-pc-linux-gnu/bin/../lib/gcc/nios2-elf/9.2.1/../../../../../H-x86_64-pc-linux-gnu/nios2-elf/lib/libc.a(lib_a-dtoa.o) (__floatunsidf)
/home/tom/intelFPGA_lite/20.1/nios2eds/bin/gnu/H-x86_64-pc-linux-gnu/bin/../lib/gcc/nios2-elf/9.2.1/libgcc.a(_clz.o)
                              /home/tom/intelFPGA_lite/20.1/nios2eds/bin/gnu/H-x86_64-pc-linux-gnu/bin/../lib/gcc/nios2-elf/9.2.1/libgcc.a(_udivdi3.o) (__clz_tab)
/home/tom/intelFPGA_lite/20.1/nios2eds/bin/gnu/H-x86_64-pc-linux-gnu/bin/../lib/gcc/nios2-elf/9.2.1/libgcc.a(_clzsi2.o)
                              /home/tom/intelFPGA_lite/20.1/nios2eds/bin/gnu/H-x86_64-pc-linux-gnu/bin/../lib/gcc/nios2-elf/9.2.1/libgcc.a(adddf3.o) (__clzsi2)
../MOD_socket_server_bsp//libucosii_bsp.a(alt_exit.o)
                              /home/tom/intelFPGA_lite/20.1/nios2eds/bin/gnu/H-x86_64-pc-linux-gnu/bin/../lib/gcc/nios2-elf/9.2.1/../../../../../H-x86_64-pc-linux-gnu/nios2-elf/lib/libc.a(lib_a-abort.o) (_exit)
../MOD_socket_server_bsp//libucosii_bsp.a(alt_fstat.o)
                              /home/tom/intelFPGA_lite/20.1/nios2eds/bin/gnu/H-x86_64-pc-linux-gnu/bin/../lib/gcc/nios2-elf/9.2.1/../../../../../H-x86_64-pc-linux-gnu/nios2-elf/lib/libc.a(lib_a-fstatr.o) (fstat)
../MOD_socket_server_bsp//libucosii_bsp.a(alt_getpid.o)
                              /home/tom/intelFPGA_lite/20.1/nios2eds/bin/gnu/H-x86_64-pc-linux-gnu/bin/../lib/gcc/nios2-elf/9.2.1/../../../../../H-x86_64-pc-linux-gnu/nios2-elf/lib/libc.a(lib_a-signalr.o) (getpid)
../MOD_socket_server_bsp//libucosii_bsp.a(alt_isatty.o)
                              /home/tom/intelFPGA_lite/20.1/nios2eds/bin/gnu/H-x86_64-pc-linux-gnu/bin/../lib/gcc/nios2-elf/9.2.1/../../../../../H-x86_64-pc-linux-gnu/nios2-elf/lib/libc.a(lib_a-isattyr.o) (isatty)
../MOD_socket_server_bsp//libucosii_bsp.a(alt_kill.o)
                              /home/tom/intelFPGA_lite/20.1/nios2eds/bin/gnu/H-x86_64-pc-linux-gnu/bin/../lib/gcc/nios2-elf/9.2.1/../../../../../H-x86_64-pc-linux-gnu/nios2-elf/lib/libc.a(lib_a-signalr.o) (kill)
../MOD_socket_server_bsp//libucosii_bsp.a(alt_lseek.o)
                              /home/tom/intelFPGA_lite/20.1/nios2eds/bin/gnu/H-x86_64-pc-linux-gnu/bin/../lib/gcc/nios2-elf/9.2.1/../../../../../H-x86_64-pc-linux-gnu/nios2-elf/lib/libc.a(lib_a-lseekr.o) (lseek)
../MOD_socket_server_bsp//libucosii_bsp.a(alt_main.o)
                              ../MOD_socket_server_bsp//obj/HAL/src/crt0.o (alt_main)
../MOD_socket_server_bsp//libucosii_bsp.a(alt_sbrk.o)
                              /home/tom/intelFPGA_lite/20.1/nios2eds/bin/gnu/H-x86_64-pc-linux-gnu/bin/../lib/gcc/nios2-elf/9.2.1/../../../../../H-x86_64-pc-linux-gnu/nios2-elf/lib/libc.a(lib_a-sbrkr.o) (sbrk)
../MOD_socket_server_bsp//libucosii_bsp.a(alt_env_lock.o)
                              ../MOD_socket_server_bsp//libucosii_bsp.a(alt_main.o) (alt_envsem)
../MOD_socket_server_bsp//libucosii_bsp.a(alt_malloc_lock.o)
                              ../MOD_socket_server_bsp//libucosii_bsp.a(alt_main.o) (alt_heapsem)
../MOD_socket_server_bsp//libucosii_bsp.a(os_core.o)
                              ../MOD_socket_server_bsp//libucosii_bsp.a(alt_exit.o) (OSRunning)
../MOD_socket_server_bsp//libucosii_bsp.a(os_dbg.o)
                              ../MOD_socket_server_bsp//libucosii_bsp.a(os_core.o) (OSDebugInit)
../MOD_socket_server_bsp//libucosii_bsp.a(os_flag.o)
                              obj/default/simple_socket_server.o (OSFlagCreate)
../MOD_socket_server_bsp//libucosii_bsp.a(os_mem.o)
                              ../MOD_socket_server_bsp//libucosii_bsp.a(os_core.o) (OS_MemInit)
../MOD_socket_server_bsp//libucosii_bsp.a(os_q.o)
                              obj/default/simple_socket_server.o (OSQCreate)
../MOD_socket_server_bsp//libucosii_bsp.a(os_sem.o)
                              ../MOD_socket_server_bsp//libucosii_bsp.a(alt_main.o) (OSSemCreate)
../MOD_socket_server_bsp//libucosii_bsp.a(os_task.o)
                              obj/default/iniche_init.o (OSTaskCreateExt)
../MOD_socket_server_bsp//libucosii_bsp.a(os_time.o)
                              obj/default/iniche_init.o (OSTimeDly)
../MOD_socket_server_bsp//libucosii_bsp.a(alt_sys_init.o)
                              ../MOD_socket_server_bsp//libucosii_bsp.a(alt_main.o) (alt_irq_init)
../MOD_socket_server_bsp//libucosii_bsp.a(altera_avalon_fifo_util.o)
                              obj/default/InitializePeriph.o (altera_avalon_fifo_read_fifo)
../MOD_socket_server_bsp//libucosii_bsp.a(altera_avalon_i2c.o)
                              ../MOD_socket_server_bsp//libucosii_bsp.a(alt_sys_init.o) (alt_avalon_i2c_init)
../MOD_socket_server_bsp//libucosii_bsp.a(altera_avalon_jtag_uart_fd.o)
                              ../MOD_socket_server_bsp//libucosii_bsp.a(alt_sys_init.o) (altera_avalon_jtag_uart_read_fd)
../MOD_socket_server_bsp//libucosii_bsp.a(altera_avalon_jtag_uart_init.o)
                              ../MOD_socket_server_bsp//libucosii_bsp.a(alt_sys_init.o) (altera_avalon_jtag_uart_init)
../MOD_socket_server_bsp//libucosii_bsp.a(altera_avalon_jtag_uart_ioctl.o)
                              ../MOD_socket_server_bsp//libucosii_bsp.a(altera_avalon_jtag_uart_fd.o) (altera_avalon_jtag_uart_ioctl)
../MOD_socket_server_bsp//libucosii_bsp.a(altera_avalon_jtag_uart_read.o)
                              ../MOD_socket_server_bsp//libucosii_bsp.a(altera_avalon_jtag_uart_fd.o) (altera_avalon_jtag_uart_read)
../MOD_socket_server_bsp//libucosii_bsp.a(altera_avalon_jtag_uart_write.o)
                              ../MOD_socket_server_bsp//libucosii_bsp.a(altera_avalon_jtag_uart_fd.o) (altera_avalon_jtag_uart_write)
../MOD_socket_server_bsp//libucosii_bsp.a(altera_avalon_spi.o)
                              obj/default/DELHProtocol.o (alt_avalon_spi_command)
../MOD_socket_server_bsp//libucosii_bsp.a(altera_avalon_timer_sc.o)
                              ../MOD_socket_server_bsp//libucosii_bsp.a(alt_sys_init.o) (alt_avalon_timer_sc_init)
../MOD_socket_server_bsp//libucosii_bsp.a(altera_avalon_tse.o)
                              obj/default/tse_my_system.o (marvell_cfg_rgmii)
../MOD_socket_server_bsp//libucosii_bsp.a(altera_generic_quad_spi_controller.o)
                              ../MOD_socket_server_bsp//libucosii_bsp.a(alt_sys_init.o) (alt_qspi_controller_lock)
../MOD_socket_server_bsp//libucosii_bsp.a(altera_msgdma.o)
                              ../MOD_socket_server_bsp//libucosii_bsp.a(altera_avalon_tse.o) (alt_msgdma_start_prefetcher_with_std_desc_list)
../MOD_socket_server_bsp//libucosii_bsp.a(ins_tse_mac.o)
                              ../MOD_socket_server_bsp//libucosii_bsp.a(alt_sys_init.o) (number_of_tse_mac)
../MOD_socket_server_bsp//libucosii_bsp.a(alt_iniche_close.o)
                              /home/tom/intelFPGA_lite/20.1/nios2eds/bin/gnu/H-x86_64-pc-linux-gnu/bin/../lib/gcc/nios2-elf/9.2.1/../../../../../H-x86_64-pc-linux-gnu/nios2-elf/lib/libc.a(closer.o) (close)
../MOD_socket_server_bsp//libucosii_bsp.a(alt_iniche_dev.o)
                              ../MOD_socket_server_bsp//libucosii_bsp.a(alt_sys_init.o) (alt_iniche_dev_list)
../MOD_socket_server_bsp//libucosii_bsp.a(alt_iniche_read.o)
                              /home/tom/intelFPGA_lite/20.1/nios2eds/bin/gnu/H-x86_64-pc-linux-gnu/bin/../lib/gcc/nios2-elf/9.2.1/../../../../../H-x86_64-pc-linux-gnu/nios2-elf/lib/libc.a(lib_a-readr.o) (read)
../MOD_socket_server_bsp//libucosii_bsp.a(alt_iniche_write.o)
                              /home/tom/intelFPGA_lite/20.1/nios2eds/bin/gnu/H-x86_64-pc-linux-gnu/bin/../lib/gcc/nios2-elf/9.2.1/../../../../../H-x86_64-pc-linux-gnu/nios2-elf/lib/libc.a(lib_a-writer.o) (write)
../MOD_socket_server_bsp//libucosii_bsp.a(ipnet.o)
                              ../MOD_socket_server_bsp//libucosii_bsp.a(ins_tse_mac.o) (rcvdq)
../MOD_socket_server_bsp//libucosii_bsp.a(ipstart.o)
                              ../MOD_socket_server_bsp//libucosii_bsp.a(ins_tse_mac.o) (nets)
../MOD_socket_server_bsp//libucosii_bsp.a(igmp_cmn.o)
                              ../MOD_socket_server_bsp//libucosii_bsp.a(ipstart.o) (igmp_all_hosts_group)
../MOD_socket_server_bsp//libucosii_bsp.a(bsdsock.o)
                              obj/default/DELHProtocol.o (bsd_getsockname)
../MOD_socket_server_bsp//libucosii_bsp.a(cksum.o)
                              ../MOD_socket_server_bsp//libucosii_bsp.a(igmp_cmn.o) (cksum)
../MOD_socket_server_bsp//libucosii_bsp.a(in_utils.o)
                              ../MOD_socket_server_bsp//libucosii_bsp.a(ins_tse_mac.o) (ns_printf)
../MOD_socket_server_bsp//libucosii_bsp.a(netmain.o)
                              obj/default/iniche_init.o (iniche_net_ready)
../MOD_socket_server_bsp//libucosii_bsp.a(tk_crnos.o)
                              ../MOD_socket_server_bsp//libucosii_bsp.a(ipnet.o) (tk_yield)
../MOD_socket_server_bsp//libucosii_bsp.a(dhcpclnt.o)
                              ../MOD_socket_server_bsp//libucosii_bsp.a(netmain.o) (dhc_second)
../MOD_socket_server_bsp//libucosii_bsp.a(dhcputil.o)
                              ../MOD_socket_server_bsp//libucosii_bsp.a(dhcpclnt.o) (find_opt)
../MOD_socket_server_bsp//libucosii_bsp.a(pktalloc.o)
                              ../MOD_socket_server_bsp//libucosii_bsp.a(ipnet.o) (bigfreeq)
../MOD_socket_server_bsp//libucosii_bsp.a(q.o)
                              ../MOD_socket_server_bsp//libucosii_bsp.a(ipnet.o) (getq)
../MOD_socket_server_bsp//libucosii_bsp.a(udp_open.o)
                              ../MOD_socket_server_bsp//libucosii_bsp.a(dhcpclnt.o) (udp_open)
../MOD_socket_server_bsp//libucosii_bsp.a(asm_cksum.o)
                              ../MOD_socket_server_bsp//libucosii_bsp.a(cksum.o) (asm_cksum)
../MOD_socket_server_bsp//libucosii_bsp.a(brdutils.o)
                              ../MOD_socket_server_bsp//libucosii_bsp.a(ipnet.o) (dtrap)
../MOD_socket_server_bsp//libucosii_bsp.a(osportco.o)
                              ../MOD_socket_server_bsp//libucosii_bsp.a(ins_tse_mac.o) (cticks)
../MOD_socket_server_bsp//libucosii_bsp.a(targnios.o)
                              ../MOD_socket_server_bsp//libucosii_bsp.a(ins_tse_mac.o) (rcvdq_sem_ptr)
../MOD_socket_server_bsp//libucosii_bsp.a(nptcp.o)
                              ../MOD_socket_server_bsp//libucosii_bsp.a(bsdsock.o) (soq)
../MOD_socket_server_bsp//libucosii_bsp.a(rawsock.o)
                              ../MOD_socket_server_bsp//libucosii_bsp.a(nptcp.o) (rawip_usrreq)
../MOD_socket_server_bsp//libucosii_bsp.a(sockcall.o)
                              obj/default/DELHProtocol.o (t_socket)
../MOD_socket_server_bsp//libucosii_bsp.a(socket.o)
                              ../MOD_socket_server_bsp//libucosii_bsp.a(sockcall.o) (socreate)
../MOD_socket_server_bsp//libucosii_bsp.a(socket2.o)
                              ../MOD_socket_server_bsp//libucosii_bsp.a(sockcall.o) (soqremque)
../MOD_socket_server_bsp//libucosii_bsp.a(soselect.o)
                              ../MOD_socket_server_bsp//libucosii_bsp.a(bsdsock.o) (t_select)
../MOD_socket_server_bsp//libucosii_bsp.a(tcp_in.o)
                              ../MOD_socket_server_bsp//libucosii_bsp.a(nptcp.o) (tcp_input)
../MOD_socket_server_bsp//libucosii_bsp.a(tcp_out.o)
                              ../MOD_socket_server_bsp//libucosii_bsp.a(tcp_in.o) (tcp_output)
../MOD_socket_server_bsp//libucosii_bsp.a(tcp_subr.o)
                              ../MOD_socket_server_bsp//libucosii_bsp.a(nptcp.o) (tcpstat)
../MOD_socket_server_bsp//libucosii_bsp.a(tcp_timr.o)
                              ../MOD_socket_server_bsp//libucosii_bsp.a(tcp_in.o) (tcp_keepidle)
../MOD_socket_server_bsp//libucosii_bsp.a(tcp_usr.o)
                              ../MOD_socket_server_bsp//libucosii_bsp.a(nptcp.o) (tcp_usrreq)
../MOD_socket_server_bsp//libucosii_bsp.a(tcpport.o)
                              ../MOD_socket_server_bsp//libucosii_bsp.a(ipstart.o) (tcpinit)
../MOD_socket_server_bsp//libucosii_bsp.a(udpsock.o)
                              ../MOD_socket_server_bsp//libucosii_bsp.a(nptcp.o) (udp_usrreq)
../MOD_socket_server_bsp//libucosii_bsp.a(alt_alarm_start.o)
                              ../MOD_socket_server_bsp//libucosii_bsp.a(altera_avalon_jtag_uart_init.o) (alt_alarm_start)
../MOD_socket_server_bsp//libucosii_bsp.a(alt_busy_sleep.o)
                              ../MOD_socket_server_bsp//libucosii_bsp.a(altera_avalon_i2c.o) (alt_busy_sleep)
../MOD_socket_server_bsp//libucosii_bsp.a(alt_close.o)
                              ../MOD_socket_server_bsp//libucosii_bsp.a(alt_iniche_close.o) (alt_close)
../MOD_socket_server_bsp//libucosii_bsp.a(alt_dcache_flush.o)
                              ../MOD_socket_server_bsp//libucosii_bsp.a(altera_avalon_tse.o) (alt_dcache_flush)
../MOD_socket_server_bsp//libucosii_bsp.a(alt_dev.o)
                              ../MOD_socket_server_bsp//libucosii_bsp.a(alt_sys_init.o) (alt_dev_list)
../MOD_socket_server_bsp//libucosii_bsp.a(alt_dev_llist_insert.o)
                              ../MOD_socket_server_bsp//libucosii_bsp.a(alt_sys_init.o) (alt_dev_llist_insert)
../MOD_socket_server_bsp//libucosii_bsp.a(alt_do_ctors.o)
                              ../MOD_socket_server_bsp//libucosii_bsp.a(alt_main.o) (_do_ctors)
../MOD_socket_server_bsp//libucosii_bsp.a(alt_do_dtors.o)
                              ../MOD_socket_server_bsp//libucosii_bsp.a(alt_main.o) (_do_dtors)
../MOD_socket_server_bsp//libucosii_bsp.a(alt_errno.o)
                              ../MOD_socket_server_bsp//libucosii_bsp.a(alt_fstat.o) (alt_errno)
../MOD_socket_server_bsp//libucosii_bsp.a(alt_find_dev.o)
                              ../MOD_socket_server_bsp//libucosii_bsp.a(altera_avalon_i2c.o) (alt_find_dev)
../MOD_socket_server_bsp//libucosii_bsp.a(alt_flash_dev.o)
                              ../MOD_socket_server_bsp//libucosii_bsp.a(altera_generic_quad_spi_controller.o) (alt_flash_dev_list)
../MOD_socket_server_bsp//libucosii_bsp.a(alt_iic.o)
                              ../MOD_socket_server_bsp//libucosii_bsp.a(altera_avalon_i2c.o) (alt_ic_isr_register)
../MOD_socket_server_bsp//libucosii_bsp.a(alt_iic_isr_register.o)
                              ../MOD_socket_server_bsp//libucosii_bsp.a(alt_iic.o) (alt_iic_isr_register)
../MOD_socket_server_bsp//libucosii_bsp.a(alt_io_redirect.o)
                              ../MOD_socket_server_bsp//libucosii_bsp.a(alt_main.o) (alt_io_redirect)
../MOD_socket_server_bsp//libucosii_bsp.a(alt_irq_entry.o)
                              ../MOD_socket_server_bsp//libucosii_bsp.a(alt_iic_isr_register.o) (alt_irq_entry)
../MOD_socket_server_bsp//libucosii_bsp.a(alt_irq_handler.o)
                              ../MOD_socket_server_bsp//libucosii_bsp.a(alt_iic_isr_register.o) (alt_irq)
../MOD_socket_server_bsp//libucosii_bsp.a(alt_irq_vars.o)
                              ../MOD_socket_server_bsp//libucosii_bsp.a(alt_iic.o) (alt_irq_active)
../MOD_socket_server_bsp//libucosii_bsp.a(alt_open.o)
                              ../MOD_socket_server_bsp//libucosii_bsp.a(alt_io_redirect.o) (open)
../MOD_socket_server_bsp//libucosii_bsp.a(alt_printf.o)
                              ../MOD_socket_server_bsp//libucosii_bsp.a(altera_avalon_i2c.o) (alt_printf)
../MOD_socket_server_bsp//libucosii_bsp.a(alt_putchar.o)
                              ../MOD_socket_server_bsp//libucosii_bsp.a(alt_printf.o) (alt_putchar)
../MOD_socket_server_bsp//libucosii_bsp.a(alt_read.o)
                              ../MOD_socket_server_bsp//libucosii_bsp.a(alt_iniche_read.o) (alt_read)
../MOD_socket_server_bsp//libucosii_bsp.a(alt_release_fd.o)
                              ../MOD_socket_server_bsp//libucosii_bsp.a(alt_close.o) (alt_release_fd)
../MOD_socket_server_bsp//libucosii_bsp.a(alt_remap_cached.o)
                              ../MOD_socket_server_bsp//libucosii_bsp.a(ins_tse_mac.o) (alt_remap_cached)
../MOD_socket_server_bsp//libucosii_bsp.a(alt_tick.o)
                              ../MOD_socket_server_bsp//libucosii_bsp.a(altera_avalon_jtag_uart_init.o) (_alt_tick_rate)
../MOD_socket_server_bsp//libucosii_bsp.a(alt_uncached_free.o)
                              ../MOD_socket_server_bsp//libucosii_bsp.a(targnios.o) (alt_uncached_free)
../MOD_socket_server_bsp//libucosii_bsp.a(alt_uncached_malloc.o)
                              ../MOD_socket_server_bsp//libucosii_bsp.a(ins_tse_mac.o) (alt_uncached_malloc)
../MOD_socket_server_bsp//libucosii_bsp.a(alt_usleep.o)
                              ../MOD_socket_server_bsp//libucosii_bsp.a(altera_avalon_tse.o) (usleep)
../MOD_socket_server_bsp//libucosii_bsp.a(alt_write.o)
                              ../MOD_socket_server_bsp//libucosii_bsp.a(alt_iniche_write.o) (alt_write)
../MOD_socket_server_bsp//libucosii_bsp.a(altera_nios2_gen2_irq.o)
                              ../MOD_socket_server_bsp//libucosii_bsp.a(alt_sys_init.o) (altera_nios2_gen2_irq_init)
../MOD_socket_server_bsp//libucosii_bsp.a(os_cpu_a.o)
                              ../MOD_socket_server_bsp//libucosii_bsp.a(os_core.o) (OSIntCtxSw)
../MOD_socket_server_bsp//libucosii_bsp.a(os_cpu_c.o)
                              ../MOD_socket_server_bsp//libucosii_bsp.a(os_task.o) (OSTaskStkInit)
../MOD_socket_server_bsp//libucosii_bsp.a(allports.o)
                              ../MOD_socket_server_bsp//libucosii_bsp.a(dhcpclnt.o) (name)
../MOD_socket_server_bsp//libucosii_bsp.a(timeouts.o)
                              ../MOD_socket_server_bsp//libucosii_bsp.a(netmain.o) (inet_timer)
../MOD_socket_server_bsp//libucosii_bsp.a(tk_misc.o)
                              ../MOD_socket_server_bsp//libucosii_bsp.a(netmain.o) (create_apptasks)
../MOD_socket_server_bsp//libucosii_bsp.a(alt_iniche_fcntl.o)
                              ../MOD_socket_server_bsp//libucosii_bsp.a(brdutils.o) (fcntl)
../MOD_socket_server_bsp//libucosii_bsp.a(et_arp.o)
                              ../MOD_socket_server_bsp//libucosii_bsp.a(ipstart.o) (etainit)
../MOD_socket_server_bsp//libucosii_bsp.a(iface.o)
                              ../MOD_socket_server_bsp//libucosii_bsp.a(ipnet.o) (netlist)
../MOD_socket_server_bsp//libucosii_bsp.a(ip.o)
                              ../MOD_socket_server_bsp//libucosii_bsp.a(igmp_cmn.o) (ip_mib)
../MOD_socket_server_bsp//libucosii_bsp.a(ip_reasm.o)
                              ../MOD_socket_server_bsp//libucosii_bsp.a(timeouts.o) (ire_cticks)
../MOD_socket_server_bsp//libucosii_bsp.a(ipdemux.o)
                              ../MOD_socket_server_bsp//libucosii_bsp.a(ipnet.o) (ip_rcv)
../MOD_socket_server_bsp//libucosii_bsp.a(ipmc.o)
                              ../MOD_socket_server_bsp//libucosii_bsp.a(ipstart.o) (in_addmulti)
../MOD_socket_server_bsp//libucosii_bsp.a(ipport.o)
                              ../MOD_socket_server_bsp//libucosii_bsp.a(targnios.o) (port_prep)
../MOD_socket_server_bsp//libucosii_bsp.a(ipraw.o)
                              ../MOD_socket_server_bsp//libucosii_bsp.a(rawsock.o) (ipraw_eps)
../MOD_socket_server_bsp//libucosii_bsp.a(iproute.o)
                              ../MOD_socket_server_bsp//libucosii_bsp.a(ip.o) (cachedRoute)
../MOD_socket_server_bsp//libucosii_bsp.a(udp.o)
                              ../MOD_socket_server_bsp//libucosii_bsp.a(ipdemux.o) (udpdemux)
../MOD_socket_server_bsp//libucosii_bsp.a(igmp.o)
                              ../MOD_socket_server_bsp//libucosii_bsp.a(igmp_cmn.o) (igmpv1_input)
../MOD_socket_server_bsp//libucosii_bsp.a(igmp2.o)
                              ../MOD_socket_server_bsp//libucosii_bsp.a(igmp_cmn.o) (igmpv2_input)
../MOD_socket_server_bsp//libucosii_bsp.a(ipopt.o)
                              ../MOD_socket_server_bsp//libucosii_bsp.a(socket.o) (ip_setmoptions)
../MOD_socket_server_bsp//libucosii_bsp.a(u_mctest.o)
                              ../MOD_socket_server_bsp//libucosii_bsp.a(allports.o) (u_mctest_init)
../MOD_socket_server_bsp//libucosii_bsp.a(dhcsetup.o)
                              ../MOD_socket_server_bsp//libucosii_bsp.a(allports.o) (dhc_setup)
../MOD_socket_server_bsp//libucosii_bsp.a(memdev.o)
                              ../MOD_socket_server_bsp//libucosii_bsp.a(allports.o) (init_memdev)
../MOD_socket_server_bsp//libucosii_bsp.a(parseip.o)
                              ../MOD_socket_server_bsp//libucosii_bsp.a(u_mctest.o) (inet_addr)
../MOD_socket_server_bsp//libucosii_bsp.a(tcpcksum.o)
                              ../MOD_socket_server_bsp//libucosii_bsp.a(nptcp.o) (tcp_cksum)
../MOD_socket_server_bsp//libucosii_bsp.a(in_pcb.o)
                              ../MOD_socket_server_bsp//libucosii_bsp.a(tcp_usr.o) (in_pcballoc)
../MOD_socket_server_bsp//libucosii_bsp.a(vfsfiles.o)
                              ../MOD_socket_server_bsp//libucosii_bsp.a(memdev.o) (vfsystems)
../MOD_socket_server_bsp//libucosii_bsp.a(vfsport.o)
                              ../MOD_socket_server_bsp//libucosii_bsp.a(allports.o) (prep_vfs)
../MOD_socket_server_bsp//libucosii_bsp.a(alt_exception_entry.o)
                              ../MOD_socket_server_bsp//libucosii_bsp.a(alt_irq_entry.o) (alt_exception)
../MOD_socket_server_bsp//libucosii_bsp.a(alt_fcntl.o)
                              ../MOD_socket_server_bsp//libucosii_bsp.a(alt_iniche_fcntl.o) (alt_fcntl)
../MOD_socket_server_bsp//libucosii_bsp.a(alt_find_file.o)
                              ../MOD_socket_server_bsp//libucosii_bsp.a(alt_open.o) (alt_find_file)
../MOD_socket_server_bsp//libucosii_bsp.a(alt_get_fd.o)
                              ../MOD_socket_server_bsp//libucosii_bsp.a(alt_open.o) (alt_get_fd)
../MOD_socket_server_bsp//libucosii_bsp.a(alt_instruction_exception_entry.o)
                              ../MOD_socket_server_bsp//libucosii_bsp.a(alt_exception_entry.o) (alt_instruction_exception_entry)
../MOD_socket_server_bsp//libucosii_bsp.a(icmp.o)
                              ../MOD_socket_server_bsp//libucosii_bsp.a(ipdemux.o) (icmprcv)
/home/tom/intelFPGA_lite/20.1/nios2eds/bin/gnu/H-x86_64-pc-linux-gnu/bin/../lib/gcc/nios2-elf/9.2.1/../../../../../H-x86_64-pc-linux-gnu/nios2-elf/lib/libc.a(lib_a-atexit.o)
                              ../MOD_socket_server_bsp//libucosii_bsp.a(alt_main.o) (atexit)
/home/tom/intelFPGA_lite/20.1/nios2eds/bin/gnu/H-x86_64-pc-linux-gnu/bin/../lib/gcc/nios2-elf/9.2.1/../../../../../H-x86_64-pc-linux-gnu/nios2-elf/lib/libc.a(lib_a-atoi.o)
                              ../MOD_socket_server_bsp//libucosii_bsp.a(parseip.o) (atoi)
/home/tom/intelFPGA_lite/20.1/nios2eds/bin/gnu/H-x86_64-pc-linux-gnu/bin/../lib/gcc/nios2-elf/9.2.1/../../../../../H-x86_64-pc-linux-gnu/nios2-elf/lib/libc.a(lib_a-exit.o)
                              ../MOD_socket_server_bsp//libucosii_bsp.a(alt_main.o) (exit)
/home/tom/intelFPGA_lite/20.1/nios2eds/bin/gnu/H-x86_64-pc-linux-gnu/bin/../lib/gcc/nios2-elf/9.2.1/../../../../../H-x86_64-pc-linux-gnu/nios2-elf/lib/libc.a(lib_a-malloc.o)
                              ../MOD_socket_server_bsp//libucosii_bsp.a(altera_avalon_tse.o) (malloc)
/home/tom/intelFPGA_lite/20.1/nios2eds/bin/gnu/H-x86_64-pc-linux-gnu/bin/../lib/gcc/nios2-elf/9.2.1/../../../../../H-x86_64-pc-linux-gnu/nios2-elf/lib/libc.a(lib_a-strchr.o)
                              ../MOD_socket_server_bsp//libucosii_bsp.a(vfsfiles.o) (strchr)
/home/tom/intelFPGA_lite/20.1/nios2eds/bin/gnu/H-x86_64-pc-linux-gnu/bin/../lib/gcc/nios2-elf/9.2.1/../../../../../H-x86_64-pc-linux-gnu/nios2-elf/lib/libc.a(lib_a-strncmp.o)
                              ../MOD_socket_server_bsp//libucosii_bsp.a(vfsfiles.o) (strncmp)
/home/tom/intelFPGA_lite/20.1/nios2eds/bin/gnu/H-x86_64-pc-linux-gnu/bin/../lib/gcc/nios2-elf/9.2.1/../../../../../H-x86_64-pc-linux-gnu/nios2-elf/lib/libc.a(lib_a-strncpy.o)
                              ../MOD_socket_server_bsp//libucosii_bsp.a(dhcpclnt.o) (strncpy)
/home/tom/intelFPGA_lite/20.1/nios2eds/bin/gnu/H-x86_64-pc-linux-gnu/bin/../lib/gcc/nios2-elf/9.2.1/../../../../../H-x86_64-pc-linux-gnu/nios2-elf/lib/libc.a(lib_a-strtol.o)
                              /home/tom/intelFPGA_lite/20.1/nios2eds/bin/gnu/H-x86_64-pc-linux-gnu/bin/../lib/gcc/nios2-elf/9.2.1/../../../../../H-x86_64-pc-linux-gnu/nios2-elf/lib/libc.a(lib_a-atoi.o) (_strtol_r)
/home/tom/intelFPGA_lite/20.1/nios2eds/bin/gnu/H-x86_64-pc-linux-gnu/bin/../lib/gcc/nios2-elf/9.2.1/../../../../../H-x86_64-pc-linux-gnu/nios2-elf/lib/libc.a(lib_a-vprintf.o)
                              ../MOD_socket_server_bsp//libucosii_bsp.a(in_utils.o) (vprintf)
/home/tom/intelFPGA_lite/20.1/nios2eds/bin/gnu/H-x86_64-pc-linux-gnu/bin/../lib/gcc/nios2-elf/9.2.1/../../../../../H-x86_64-pc-linux-gnu/nios2-elf/lib/libc.a(lib_a-vsprintf.o)
                              ../MOD_socket_server_bsp//libucosii_bsp.a(in_utils.o) (vsprintf)
/home/tom/intelFPGA_lite/20.1/nios2eds/bin/gnu/H-x86_64-pc-linux-gnu/bin/../lib/gcc/nios2-elf/9.2.1/../../../../../H-x86_64-pc-linux-gnu/nios2-elf/lib/libc.a(lib_a-__atexit.o)
                              /home/tom/intelFPGA_lite/20.1/nios2eds/bin/gnu/H-x86_64-pc-linux-gnu/bin/../lib/gcc/nios2-elf/9.2.1/../../../../../H-x86_64-pc-linux-gnu/nios2-elf/lib/libc.a(lib_a-atexit.o) (__register_exitproc)
/home/tom/intelFPGA_lite/20.1/nios2eds/bin/gnu/H-x86_64-pc-linux-gnu/bin/../lib/gcc/nios2-elf/9.2.1/../../../../../H-x86_64-pc-linux-gnu/nios2-elf/lib/libc.a(lib_a-__call_atexit.o)
                              /home/tom/intelFPGA_lite/20.1/nios2eds/bin/gnu/H-x86_64-pc-linux-gnu/bin/../lib/gcc/nios2-elf/9.2.1/../../../../../H-x86_64-pc-linux-gnu/nios2-elf/lib/libc.a(lib_a-exit.o) (__call_exitprocs)
/home/tom/intelFPGA_lite/20.1/nios2eds/bin/gnu/H-x86_64-pc-linux-gnu/bin/../lib/gcc/nios2-elf/9.2.1/../../../../../H-x86_64-pc-linux-gnu/nios2-elf/lib/libc.a(lib_a-vfprintfr_1.o)
                              /home/tom/intelFPGA_lite/20.1/nios2eds/bin/gnu/H-x86_64-pc-linux-gnu/bin/../lib/gcc/nios2-elf/9.2.1/../../../../../H-x86_64-pc-linux-gnu/nios2-elf/lib/libc.a(lib_a-vprintf.o) (_vfprintf_r)

Allocating common symbols
Common symbol       size              file

soq                 0x14              ../MOD_socket_server_bsp//libucosii_bsp.a(nptcp.o)
alt_irq             0x100             ../MOD_socket_server_bsp//libucosii_bsp.a(alt_irq_handler.o)
tcp_optionbuf       0x4               ../MOD_socket_server_bsp//libucosii_bsp.a(tcp_out.o)
last_flash_sector_offset
                    0x4               obj/default/network_utilities.o
rt_mib              0x4               ../MOD_socket_server_bsp//libucosii_bsp.a(ip.o)
so_evtmap_create    0x4               ../MOD_socket_server_bsp//libucosii_bsp.a(ipport.o)
SSSLEDCommandQ      0x4               obj/default/simple_socket_server.o
eth_tse_if          0xe0              ../MOD_socket_server_bsp//libucosii_bsp.a(alt_sys_init.o)
OSLockNesting       0x1               ../MOD_socket_server_bsp//libucosii_bsp.a(os_core.o)
tcb                 0x2c              ../MOD_socket_server_bsp//libucosii_bsp.a(tcp_subr.o)
OSRunning           0x1               ../MOD_socket_server_bsp//libucosii_bsp.a(os_core.o)
dhc_states          0xf0              ../MOD_socket_server_bsp//libucosii_bsp.a(dhcpclnt.o)
tcpstat             0xe0              ../MOD_socket_server_bsp//libucosii_bsp.a(tcp_subr.o)
OSIdleCtr           0x4               ../MOD_socket_server_bsp//libucosii_bsp.a(os_core.o)
udp_mib             0x10              ../MOD_socket_server_bsp//libucosii_bsp.a(udp.o)
to_netmain          0x1               ../MOD_socket_server_bsp//libucosii_bsp.a(netmain.o)
OSPrioHighRdy       0x1               ../MOD_socket_server_bsp//libucosii_bsp.a(os_core.o)
errno               0x4               /home/tom/intelFPGA_lite/20.1/nios2eds/bin/gnu/H-x86_64-pc-linux-gnu/bin/../lib/gcc/nios2-elf/9.2.1/../../../../../H-x86_64-pc-linux-gnu/nios2-elf/lib/libc.a(lib_a-int_errno.o)
lilfreeq            0x14              ../MOD_socket_server_bsp//libucosii_bsp.a(pktalloc.o)
icmp_mib            0x68              ../MOD_socket_server_bsp//libucosii_bsp.a(icmp.o)
pmac_groups         0x10              ../MOD_socket_server_bsp//libucosii_bsp.a(altera_avalon_tse.o)
resid_semaphore     0x40              ../MOD_socket_server_bsp//libucosii_bsp.a(targnios.o)
alt_heapsem         0x4               ../MOD_socket_server_bsp//libucosii_bsp.a(alt_malloc_lock.o)
OSFlagTbl           0x370             ../MOD_socket_server_bsp//libucosii_bsp.a(os_core.o)
mbstat              0x8               ../MOD_socket_server_bsp//libucosii_bsp.a(nptcp.o)
netq_intmask        0x4               ../MOD_socket_server_bsp//libucosii_bsp.a(osportco.o)
select_wait         0x2               ../MOD_socket_server_bsp//libucosii_bsp.a(nptcp.o)
tse_iniche_dev_driver_data
                    0x30              ../MOD_socket_server_bsp//libucosii_bsp.a(ins_tse_mac.o)
tcpmib              0x3c              ../MOD_socket_server_bsp//libucosii_bsp.a(nptcp.o)
OSPrioCur           0x1               ../MOD_socket_server_bsp//libucosii_bsp.a(os_core.o)
tse                 0x290             ../MOD_socket_server_bsp//libucosii_bsp.a(ins_tse_mac.o)
mheap_sem_ptr       0x4               ../MOD_socket_server_bsp//libucosii_bsp.a(targnios.o)
netlist             0x14              ../MOD_socket_server_bsp//libucosii_bsp.a(iface.o)
mbufq               0x14              ../MOD_socket_server_bsp//libucosii_bsp.a(nptcp.o)
OSTCBList           0x4               ../MOD_socket_server_bsp//libucosii_bsp.a(os_core.o)
alt_fd_list_lock    0x4               ../MOD_socket_server_bsp//libucosii_bsp.a(alt_dev.o)
OSMemTbl            0xc30             ../MOD_socket_server_bsp//libucosii_bsp.a(os_core.o)
OSTickStepState     0x1               ../MOD_socket_server_bsp//libucosii_bsp.a(os_core.o)
OSTaskStatStk       0x800             ../MOD_socket_server_bsp//libucosii_bsp.a(os_core.o)
OSCtxSwCtr          0x4               ../MOD_socket_server_bsp//libucosii_bsp.a(os_core.o)
igmpstats           0x64              ../MOD_socket_server_bsp//libucosii_bsp.a(igmp_cmn.o)
ire_stats           0x18              ../MOD_socket_server_bsp//libucosii_bsp.a(ip_reasm.o)
old_mode            0x4               ../MOD_socket_server_bsp//libucosii_bsp.a(osportco.o)
vfs_dir_stale       0x4               ../MOD_socket_server_bsp//libucosii_bsp.a(vfsfiles.o)
pphy_profiles       0x20              ../MOD_socket_server_bsp//libucosii_bsp.a(altera_avalon_tse.o)
cticks_factor       0x4               ../MOD_socket_server_bsp//libucosii_bsp.a(brdutils.o)
OSIdleCtrMax        0x4               ../MOD_socket_server_bsp//libucosii_bsp.a(os_core.o)
memestats           0x10              ../MOD_socket_server_bsp//libucosii_bsp.a(pktalloc.o)
intimers            0x64              ../MOD_socket_server_bsp//libucosii_bsp.a(timeouts.o)
OSTCBFreeList       0x4               ../MOD_socket_server_bsp//libucosii_bsp.a(os_core.o)
global_TCPwakeup_setIndx
                    0x4               ../MOD_socket_server_bsp//libucosii_bsp.a(osportco.o)
SSSInitialTaskStk   0x2000            obj/default/iniche_init.o
rcvdq               0x14              ../MOD_socket_server_bsp//libucosii_bsp.a(ipnet.o)
global_tcb_ext      0xfc              ../MOD_socket_server_bsp//libucosii_bsp.a(osportco.o)
netstatic           0x300             ../MOD_socket_server_bsp//libucosii_bsp.a(ipstart.o)
tcp_maxidle         0x4               ../MOD_socket_server_bsp//libucosii_bsp.a(tcp_timr.o)
OSCPUUsage          0x1               ../MOD_socket_server_bsp//libucosii_bsp.a(os_core.o)
nets                0x10              ../MOD_socket_server_bsp//libucosii_bsp.a(ipstart.o)
pktlog              0xf0              ../MOD_socket_server_bsp//libucosii_bsp.a(pktalloc.o)
OSTaskCtr           0x1               ../MOD_socket_server_bsp//libucosii_bsp.a(os_core.o)
buffer              0x5dd             obj/default/DELHProtocol.o
SSSLEDEventFlag     0x4               obj/default/simple_socket_server.o
OSMemFreeList       0x4               ../MOD_socket_server_bsp//libucosii_bsp.a(os_core.o)
vfs_open_files      0x4               ../MOD_socket_server_bsp//libucosii_bsp.a(vfsfiles.o)
cticks              0x4               ../MOD_socket_server_bsp//libucosii_bsp.a(osportco.o)
to_nettick          0x1               ../MOD_socket_server_bsp//libucosii_bsp.a(netmain.o)
last_flash_sector   0x4               obj/default/network_utilities.o
OSQTbl              0x1e0             ../MOD_socket_server_bsp//libucosii_bsp.a(os_core.o)
OSTCBHighRdy        0x4               ../MOD_socket_server_bsp//libucosii_bsp.a(os_core.o)
OSQFreeList         0x4               ../MOD_socket_server_bsp//libucosii_bsp.a(os_core.o)
OSRdyGrp            0x1               ../MOD_socket_server_bsp//libucosii_bsp.a(os_core.o)
ip_mib              0x50              ../MOD_socket_server_bsp//libucosii_bsp.a(ip.o)
SSSLEDCommandQTbl   0x78              obj/default/simple_socket_server.o
OS_TPS              0x4               ../MOD_socket_server_bsp//libucosii_bsp.a(brdutils.o)
OSRdyTbl            0x3               ../MOD_socket_server_bsp//libucosii_bsp.a(os_core.o)
igmp_all_hosts_group
                    0x4               ../MOD_socket_server_bsp//libucosii_bsp.a(igmp_cmn.o)
eth_prt_buf         0x12              ../MOD_socket_server_bsp//libucosii_bsp.a(in_utils.o)
app_semaphore       0x18              ../MOD_socket_server_bsp//libucosii_bsp.a(targnios.o)
LEDManagementTaskStk
                    0x2000            obj/default/simple_socket_server.o
rcvdq_sem_ptr       0x4               ../MOD_socket_server_bsp//libucosii_bsp.a(targnios.o)
OSEventFreeList     0x4               ../MOD_socket_server_bsp//libucosii_bsp.a(os_core.o)
mfreeq              0x14              ../MOD_socket_server_bsp//libucosii_bsp.a(nptcp.o)
to_ssstask          0x1               obj/default/iniche_init.o
global_TCPwakeup_set
                    0xf0              ../MOD_socket_server_bsp//libucosii_bsp.a(osportco.o)
bigfreeq            0x14              ../MOD_socket_server_bsp//libucosii_bsp.a(pktalloc.o)
so_evtmap_delete    0x4               ../MOD_socket_server_bsp//libucosii_bsp.a(ipport.o)
tcp_saveti          0x28              ../MOD_socket_server_bsp//libucosii_bsp.a(tcp_in.o)
OSIntNesting        0x1               ../MOD_socket_server_bsp//libucosii_bsp.a(os_core.o)
so_evtmap           0x1               ../MOD_socket_server_bsp//libucosii_bsp.a(ipport.o)
OSTCBCur            0x4               ../MOD_socket_server_bsp//libucosii_bsp.a(os_core.o)
arp_table           0x100             ../MOD_socket_server_bsp//libucosii_bsp.a(et_arp.o)
tcp_iss             0x4               ../MOD_socket_server_bsp//libucosii_bsp.a(tcp_timr.o)
vfs_total_rw_space  0x4               ../MOD_socket_server_bsp//libucosii_bsp.a(vfsfiles.o)
ItfcTable           0xf0              obj/default/DELHProtocol.o
OSTime              0x4               ../MOD_socket_server_bsp//libucosii_bsp.a(os_core.o)
OSTaskIdleStk       0x800             ../MOD_socket_server_bsp//libucosii_bsp.a(os_core.o)
OSEventTbl          0xb40             ../MOD_socket_server_bsp//libucosii_bsp.a(os_core.o)
vfs_total_dyna_files
                    0x4               ../MOD_socket_server_bsp//libucosii_bsp.a(vfsfiles.o)
OSTCBTbl            0x510             ../MOD_socket_server_bsp//libucosii_bsp.a(os_core.o)
ipreturn            0x12              ../MOD_socket_server_bsp//libucosii_bsp.a(in_utils.o)
OSFlagFreeList      0x4               ../MOD_socket_server_bsp//libucosii_bsp.a(os_core.o)
dropline            0x4               ../MOD_socket_server_bsp//libucosii_bsp.a(tcp_in.o)
OSStatRdy           0x1               ../MOD_socket_server_bsp//libucosii_bsp.a(os_core.o)
OSTCBPrioTbl        0x54              ../MOD_socket_server_bsp//libucosii_bsp.a(os_core.o)
igmp_all_rtrs_group
                    0x4               ../MOD_socket_server_bsp//libucosii_bsp.a(igmp_cmn.o)
alt_envsem          0x4               ../MOD_socket_server_bsp//libucosii_bsp.a(alt_env_lock.o)
OSIdleCtrRun        0x4               ../MOD_socket_server_bsp//libucosii_bsp.a(os_core.o)

Memory Configuration

Name             Origin             Length             Attributes
mem_if_ddr3_emif_0_BEFORE_EXCEPTION 0x0000000008000000 0x0000000000000120
mem_if_ddr3_emif_0 0x0000000008000120 0x0000000007fffee0
ext_flash_avl_mem_BEFORE_RESET 0x0000000014000000 0x0000000000430000
reset            0x0000000014430000 0x0000000000000020
ext_flash_avl_mem 0x0000000014430020 0x0000000003bcffe0
descriptor_memory 0x0000000018000000 0x0000000000002000
*default*        0x0000000000000000 0xffffffffffffffff

Linker script and memory map

LOAD ../MOD_socket_server_bsp//obj/HAL/src/crt0.o
LOAD obj/default/ClockModInit.o
LOAD obj/default/DELHProtocol.o
LOAD obj/default/InitializePeriph.o
LOAD obj/default/alt_error_handler.o
LOAD obj/default/iniche_init.o
LOAD obj/default/led.o
LOAD obj/default/network_utilities.o
LOAD obj/default/simple_socket_server.o
LOAD obj/default/tse_my_system.o
LOAD /home/tom/intelFPGA_lite/20.1/nios2eds/bin/gnu/H-x86_64-pc-linux-gnu/bin/../lib/gcc/nios2-elf/9.2.1/../../../../../H-x86_64-pc-linux-gnu/nios2-elf/lib/libstdc++.a
LOAD /home/tom/intelFPGA_lite/20.1/nios2eds/bin/gnu/H-x86_64-pc-linux-gnu/bin/../lib/gcc/nios2-elf/9.2.1/../../../../../H-x86_64-pc-linux-gnu/nios2-elf/lib/libm.a
LOAD /home/tom/intelFPGA_lite/20.1/nios2eds/bin/gnu/H-x86_64-pc-linux-gnu/bin/../lib/gcc/nios2-elf/9.2.1/libgcc.a
START GROUP
LOAD /home/tom/intelFPGA_lite/20.1/nios2eds/bin/gnu/H-x86_64-pc-linux-gnu/bin/../lib/gcc/nios2-elf/9.2.1/../../../../../H-x86_64-pc-linux-gnu/nios2-elf/lib/libc.a
LOAD /home/tom/intelFPGA_lite/20.1/nios2eds/bin/gnu/H-x86_64-pc-linux-gnu/bin/../lib/gcc/nios2-elf/9.2.1/libgcc.a
LOAD ../MOD_socket_server_bsp//libucosii_bsp.a
LOAD /home/tom/intelFPGA_lite/20.1/nios2eds/bin/gnu/H-x86_64-pc-linux-gnu/bin/../lib/gcc/nios2-elf/9.2.1/../../../../../H-x86_64-pc-linux-gnu/nios2-elf/lib/libm.a
END GROUP
LOAD /home/tom/intelFPGA_lite/20.1/nios2eds/bin/gnu/H-x86_64-pc-linux-gnu/bin/../lib/gcc/nios2-elf/9.2.1/libgcc.a
                0x0000000008000000                __alt_mem_mem_if_ddr3_emif_0 = 0x8000000
                0x0000000014000000                __alt_mem_ext_flash_avl_mem = 0x14000000
                0x0000000018000000                __alt_mem_descriptor_memory = 0x18000000

.entry          0x0000000014430000        0x0
 *(.entry)
 .entry         0x0000000014430000        0x0 ../MOD_socket_server_bsp//obj/HAL/src/crt0.o
                0x0000000014430000                __reset

.exceptions     0x0000000008000120      0x218
                [!provide]                        PROVIDE (__ram_exceptions_start = ABSOLUTE (.))
                0x0000000008000120                . = ALIGN (0x20)
 *(.irq)
 *(.exceptions.entry.label)
 .exceptions.entry.label
                0x0000000008000120        0x0 ../MOD_socket_server_bsp//libucosii_bsp.a(alt_irq_entry.o)
                0x0000000008000120                alt_irq_entry
 .exceptions.entry.label
                0x0000000008000120        0x0 ../MOD_socket_server_bsp//libucosii_bsp.a(alt_exception_entry.o)
                0x0000000008000120                alt_exception
 *(.exceptions.entry.user)
 *(.exceptions.entry.ecc_fatal)
 *(.exceptions.entry)
 .exceptions.entry
                0x0000000008000120       0x54 ../MOD_socket_server_bsp//libucosii_bsp.a(alt_exception_entry.o)
 *(.exceptions.irqtest.user)
 *(.exceptions.irqtest)
 .exceptions.irqtest
                0x0000000008000174       0x10 ../MOD_socket_server_bsp//libucosii_bsp.a(alt_irq_entry.o)
 *(.exceptions.irqhandler.user)
 *(.exceptions.irqhandler)
 .exceptions.irqhandler
                0x0000000008000184        0x4 ../MOD_socket_server_bsp//libucosii_bsp.a(alt_irq_entry.o)
 *(.exceptions.irqreturn.user)
 *(.exceptions.irqreturn)
 .exceptions.irqreturn
                0x0000000008000188        0x4 ../MOD_socket_server_bsp//libucosii_bsp.a(alt_irq_entry.o)
 *(.exceptions.notirq.label)
 .exceptions.notirq.label
                0x000000000800018c        0x0 ../MOD_socket_server_bsp//libucosii_bsp.a(alt_irq_entry.o)
 *(.exceptions.notirq.user)
 *(.exceptions.notirq)
 .exceptions.notirq
                0x000000000800018c        0x8 ../MOD_socket_server_bsp//libucosii_bsp.a(alt_exception_entry.o)
 *(.exceptions.soft.user)
 *(.exceptions.soft)
 *(.exceptions.unknown.user)
 *(.exceptions.unknown)
 .exceptions.unknown
                0x0000000008000194       0x14 ../MOD_socket_server_bsp//libucosii_bsp.a(alt_exception_entry.o)
 *(.exceptions.exit.label)
 .exceptions.exit.label
                0x00000000080001a8        0x0 ../MOD_socket_server_bsp//libucosii_bsp.a(alt_irq_entry.o)
 .exceptions.exit.label
                0x00000000080001a8        0x0 ../MOD_socket_server_bsp//libucosii_bsp.a(alt_exception_entry.o)
 *(.exceptions.exit.user)
 *(.exceptions.exit)
 .exceptions.exit
                0x00000000080001a8       0x54 ../MOD_socket_server_bsp//libucosii_bsp.a(alt_exception_entry.o)
 *(.exceptions)
 .exceptions    0x00000000080001fc       0xc8 ../MOD_socket_server_bsp//libucosii_bsp.a(alt_irq_handler.o)
                0x00000000080001fc                alt_irq_handler
 .exceptions    0x00000000080002c4       0x74 ../MOD_socket_server_bsp//libucosii_bsp.a(alt_instruction_exception_entry.o)
                0x00000000080002c4                alt_instruction_exception_entry
                [!provide]                        PROVIDE (__ram_exceptions_end = ABSOLUTE (.))
                [!provide]                        PROVIDE (__flash_exceptions_start = LOADADDR (.exceptions))

.text           0x0000000008000338    0x4f70c
                [!provide]                        PROVIDE (stext = ABSOLUTE (.))
 *(.interp)
 *(.hash)
 *(.dynsym)
 *(.dynstr)
 *(.gnu.version)
 *(.gnu.version_d)
 *(.gnu.version_r)
 *(.rel.init)
 *(.rela.init)
 *(.rel.text .rel.text.* .rel.gnu.linkonce.t.*)
 *(.rela.text .rela.text.* .rela.gnu.linkonce.t.*)
 *(.rel.fini)
 *(.rela.fini)
 *(.rel.rodata .rel.rodata.* .rel.gnu.linkonce.r.*)
 *(.rela.rodata .rela.rodata.* .rela.gnu.linkonce.r.*)
 *(.rel.data .rel.data.* .rel.gnu.linkonce.d.*)
 *(.rela.data .rela.data.* .rela.gnu.linkonce.d.*)
 *(.rel.tdata .rel.tdata.* .rel.gnu.linkonce.td.*)
 *(.rela.tdata .rela.tdata.* .rela.gnu.linkonce.td.*)
 *(.rel.tbss .rel.tbss.* .rel.gnu.linkonce.tb.*)
 *(.rela.tbss .rela.tbss.* .rela.gnu.linkonce.tb.*)
 *(.rel.ctors)
 *(.rela.ctors)
 *(.rel.dtors)
 *(.rela.dtors)
 *(.rel.got)
 *(.rela.got)
 *(.rel.sdata .rel.sdata.* .rel.gnu.linkonce.s.*)
 *(.rela.sdata .rela.sdata.* .rela.gnu.linkonce.s.*)
 *(.rel.sbss .rel.sbss.* .rel.gnu.linkonce.sb.*)
 *(.rela.sbss .rela.sbss.* .rela.gnu.linkonce.sb.*)
 *(.rel.sdata2 .rel.sdata2.* .rel.gnu.linkonce.s2.*)
 *(.rela.sdata2 .rela.sdata2.* .rela.gnu.linkonce.s2.*)
 *(.rel.sbss2 .rel.sbss2.* .rel.gnu.linkonce.sb2.*)
 *(.rela.sbss2 .rela.sbss2.* .rela.gnu.linkonce.sb2.*)
 *(.rel.bss .rel.bss.* .rel.gnu.linkonce.b.*)
 *(.rela.bss .rela.bss.* .rela.gnu.linkonce.b.*)
 *(.rel.plt)
 *(.rela.plt)
 *(.rel.dyn)
 *(.init)
 *(.plt)
 *(.text .stub .text.* .gnu.linkonce.t.*)
 .text          0x0000000008000338       0x38 ../MOD_socket_server_bsp//obj/HAL/src/crt0.o
                0x0000000008000338                _start
 .text          0x0000000008000370       0xa0 obj/default/ClockModInit.o
                0x0000000008000370                ParseClockRec
 .text          0x0000000008000410     0x1fec obj/default/DELHProtocol.o
                0x0000000008000410                initChan
                0x0000000008000484                addChan
                0x000000000800052c                delChan
                0x00000000080005dc                findfdChan
                0x0000000008000654                findExistingChan
                0x000000000800070c                buildaddChan
                0x00000000080007a0                allListeners
                0x0000000008000830                ProcessRxPacket
                0x00000000080009a4                DiscChanMessage
                0x0000000008000d00                ProvChanMessage
                0x0000000008000ec4                ConfigChanMessage
                0x0000000008000f08                TrafficChanMessage
                0x0000000008000f4c                ProvisioningLEDCommand
                0x0000000008001174                SI5345
                0x0000000008001324                ZEDF9T
                0x0000000008001714                AD9648
                0x00000000080018c8                ATECC608
                0x0000000008001d24                PCF8574
                0x0000000008001f04                ProvisioningModuleRegisterCommand
                0x0000000008002094                initItfcMap
                0x0000000008002374                FindItfcIndex
 .text          0x00000000080023fc      0xaa8 obj/default/InitializePeriph.o
                0x00000000080023fc                initPeriph
                0x0000000008002458                SynthInit
                0x000000000800289c                GPSInit
                0x0000000008002a68                GPSPostTest
                0x0000000008002d00                ADCInit
 .text          0x0000000008002ea4      0xbb8 obj/default/alt_error_handler.o
                0x0000000008002ea4                alt_uCOSIIErrorHandler
                0x0000000008003540                alt_NetworkErrorHandler
                0x00000000080037b4                alt_SSSErrorHandler
 .text          0x0000000008003a5c       0xf0 obj/default/iniche_init.o
                0x0000000008003a5c                SSSInitialTask
                0x0000000008003acc                main
 .text          0x0000000008003b4c      0x148 obj/default/led.o
                0x0000000008003b4c                led_bit_toggle
                0x0000000008003c3c                LEDManagementTask
 .text          0x0000000008003c94      0x420 obj/default/network_utilities.o
                0x0000000008003c94                get_mac_addr
                0x0000000008003ce8                get_ip_addr
                0x0000000008003d44                get_serial_number
                0x0000000008003ed8                generate_and_store_mac_addr
                0x0000000008003f2c                generate_mac_addr
                0x000000000800405c                get_board_mac_addr
                0x0000000008004088                FindLastFlashSectorOffset
 .text          0x00000000080040b4      0x2d4 obj/default/simple_socket_server.o
                0x00000000080040b4                SSSCreateOSDataStructs
                0x0000000008004138                SSSCreateTasks
                0x00000000080041b4                SSSSimpleSocketServerTask
 .text          0x0000000008004388        0x0 obj/default/tse_my_system.o
 .text          0x0000000008004388        0x0 /home/tom/intelFPGA_lite/20.1/nios2eds/bin/gnu/H-x86_64-pc-linux-gnu/bin/../lib/gcc/nios2-elf/9.2.1/../../../../../H-x86_64-pc-linux-gnu/nios2-elf/lib/libc.a(lib_a-ctype_.o)
 .text          0x0000000008004388        0x0 /home/tom/intelFPGA_lite/20.1/nios2eds/bin/gnu/H-x86_64-pc-linux-gnu/bin/../lib/gcc/nios2-elf/9.2.1/../../../../../H-x86_64-pc-linux-gnu/nios2-elf/lib/libc.a(lib_a-fprintf.o)
 .text._fprintf_r
                0x0000000008004388       0x28 /home/tom/intelFPGA_lite/20.1/nios2eds/bin/gnu/H-x86_64-pc-linux-gnu/bin/../lib/gcc/nios2-elf/9.2.1/../../../../../H-x86_64-pc-linux-gnu/nios2-elf/lib/libc.a(lib_a-fprintf.o)
                0x0000000008004388                _fprintf_r
 .text.fprintf  0x00000000080043b0       0x24 /home/tom/intelFPGA_lite/20.1/nios2eds/bin/gnu/H-x86_64-pc-linux-gnu/bin/../lib/gcc/nios2-elf/9.2.1/../../../../../H-x86_64-pc-linux-gnu/nios2-elf/lib/libc.a(lib_a-fprintf.o)
                0x00000000080043b0                fprintf
 .text          0x00000000080043d4        0x0 /home/tom/intelFPGA_lite/20.1/nios2eds/bin/gnu/H-x86_64-pc-linux-gnu/bin/../lib/gcc/nios2-elf/9.2.1/../../../../../H-x86_64-pc-linux-gnu/nios2-elf/lib/libc.a(lib_a-fwrite.o)
 .text._fwrite_r
                0x00000000080043d4       0xc4 /home/tom/intelFPGA_lite/20.1/nios2eds/bin/gnu/H-x86_64-pc-linux-gnu/bin/../lib/gcc/nios2-elf/9.2.1/../../../../../H-x86_64-pc-linux-gnu/nios2-elf/lib/libc.a(lib_a-fwrite.o)
                0x00000000080043d4                _fwrite_r
 .text.fwrite   0x0000000008004498       0x34 /home/tom/intelFPGA_lite/20.1/nios2eds/bin/gnu/H-x86_64-pc-linux-gnu/bin/../lib/gcc/nios2-elf/9.2.1/../../../../../H-x86_64-pc-linux-gnu/nios2-elf/lib/libc.a(lib_a-fwrite.o)
                0x0000000008004498                fwrite
 .text          0x00000000080044cc        0x0 /home/tom/intelFPGA_lite/20.1/nios2eds/bin/gnu/H-x86_64-pc-linux-gnu/bin/../lib/gcc/nios2-elf/9.2.1/../../../../../H-x86_64-pc-linux-gnu/nios2-elf/lib/libc.a(lib_a-getchar.o)
 .text._getchar_r
                0x00000000080044cc        0x8 /home/tom/intelFPGA_lite/20.1/nios2eds/bin/gnu/H-x86_64-pc-linux-gnu/bin/../lib/gcc/nios2-elf/9.2.1/../../../../../H-x86_64-pc-linux-gnu/nios2-elf/lib/libc.a(lib_a-getchar.o)
                0x00000000080044cc                _getchar_r
 .text.getchar  0x00000000080044d4       0x10 /home/tom/intelFPGA_lite/20.1/nios2eds/bin/gnu/H-x86_64-pc-linux-gnu/bin/../lib/gcc/nios2-elf/9.2.1/../../../../../H-x86_64-pc-linux-gnu/nios2-elf/lib/libc.a(lib_a-getchar.o)
                0x00000000080044d4                getchar
 .text          0x00000000080044e4        0x0 /home/tom/intelFPGA_lite/20.1/nios2eds/bin/gnu/H-x86_64-pc-linux-gnu/bin/../lib/gcc/nios2-elf/9.2.1/../../../../../H-x86_64-pc-linux-gnu/nios2-elf/lib/libc.a(lib_a-impure.o)
 .text          0x00000000080044e4        0x0 /home/tom/intelFPGA_lite/20.1/nios2eds/bin/gnu/H-x86_64-pc-linux-gnu/bin/../lib/gcc/nios2-elf/9.2.1/../../../../../H-x86_64-pc-linux-gnu/nios2-elf/lib/libc.a(lib_a-memcmp.o)
 .text.memcmp   0x00000000080044e4       0x78 /home/tom/intelFPGA_lite/20.1/nios2eds/bin/gnu/H-x86_64-pc-linux-gnu/bin/../lib/gcc/nios2-elf/9.2.1/../../../../../H-x86_64-pc-linux-gnu/nios2-elf/lib/libc.a(lib_a-memcmp.o)
                0x00000000080044e4                memcmp
 .text          0x000000000800455c        0x0 /home/tom/intelFPGA_lite/20.1/nios2eds/bin/gnu/H-x86_64-pc-linux-gnu/bin/../lib/gcc/nios2-elf/9.2.1/../../../../../H-x86_64-pc-linux-gnu/nios2-elf/lib/libc.a(lib_a-memcpy.o)
 .text.memcpy   0x000000000800455c      0x100 /home/tom/intelFPGA_lite/20.1/nios2eds/bin/gnu/H-x86_64-pc-linux-gnu/bin/../lib/gcc/nios2-elf/9.2.1/../../../../../H-x86_64-pc-linux-gnu/nios2-elf/lib/libc.a(lib_a-memcpy.o)
                0x000000000800455c                memcpy
 .text          0x000000000800465c        0x0 /home/tom/intelFPGA_lite/20.1/nios2eds/bin/gnu/H-x86_64-pc-linux-gnu/bin/../lib/gcc/nios2-elf/9.2.1/../../../../../H-x86_64-pc-linux-gnu/nios2-elf/lib/libc.a(lib_a-memset.o)
 .text.memset   0x000000000800465c       0xf0 /home/tom/intelFPGA_lite/20.1/nios2eds/bin/gnu/H-x86_64-pc-linux-gnu/bin/../lib/gcc/nios2-elf/9.2.1/../../../../../H-x86_64-pc-linux-gnu/nios2-elf/lib/libc.a(lib_a-memset.o)
                0x000000000800465c                memset
 .text          0x000000000800474c        0x0 /home/tom/intelFPGA_lite/20.1/nios2eds/bin/gnu/H-x86_64-pc-linux-gnu/bin/../lib/gcc/nios2-elf/9.2.1/../../../../../H-x86_64-pc-linux-gnu/nios2-elf/lib/libc.a(lib_a-perror.o)
 .text._perror_r
                0x000000000800474c      0x188 /home/tom/intelFPGA_lite/20.1/nios2eds/bin/gnu/H-x86_64-pc-linux-gnu/bin/../lib/gcc/nios2-elf/9.2.1/../../../../../H-x86_64-pc-linux-gnu/nios2-elf/lib/libc.a(lib_a-perror.o)
                0x000000000800474c                _perror_r
 .text.perror   0x00000000080048d4       0x10 /home/tom/intelFPGA_lite/20.1/nios2eds/bin/gnu/H-x86_64-pc-linux-gnu/bin/../lib/gcc/nios2-elf/9.2.1/../../../../../H-x86_64-pc-linux-gnu/nios2-elf/lib/libc.a(lib_a-perror.o)
                0x00000000080048d4                perror
 .text          0x00000000080048e4        0x0 /home/tom/intelFPGA_lite/20.1/nios2eds/bin/gnu/H-x86_64-pc-linux-gnu/bin/../lib/gcc/nios2-elf/9.2.1/../../../../../H-x86_64-pc-linux-gnu/nios2-elf/lib/libc.a(lib_a-printf.o)
 .text._printf_r
                0x00000000080048e4       0x30 /home/tom/intelFPGA_lite/20.1/nios2eds/bin/gnu/H-x86_64-pc-linux-gnu/bin/../lib/gcc/nios2-elf/9.2.1/../../../../../H-x86_64-pc-linux-gnu/nios2-elf/lib/libc.a(lib_a-printf.o)
                0x00000000080048e4                _printf_r
 .text.printf   0x0000000008004914       0x38 /home/tom/intelFPGA_lite/20.1/nios2eds/bin/gnu/H-x86_64-pc-linux-gnu/bin/../lib/gcc/nios2-elf/9.2.1/../../../../../H-x86_64-pc-linux-gnu/nios2-elf/lib/libc.a(lib_a-printf.o)
                0x0000000008004914                printf
 .text          0x000000000800494c        0x0 /home/tom/intelFPGA_lite/20.1/nios2eds/bin/gnu/H-x86_64-pc-linux-gnu/bin/../lib/gcc/nios2-elf/9.2.1/../../../../../H-x86_64-pc-linux-gnu/nios2-elf/lib/libc.a(lib_a-putchar.o)
 .text._putchar_r
                0x000000000800494c        0x8 /home/tom/intelFPGA_lite/20.1/nios2eds/bin/gnu/H-x86_64-pc-linux-gnu/bin/../lib/gcc/nios2-elf/9.2.1/../../../../../H-x86_64-pc-linux-gnu/nios2-elf/lib/libc.a(lib_a-putchar.o)
                0x000000000800494c                _putchar_r
 .text.putchar  0x0000000008004954       0x18 /home/tom/intelFPGA_lite/20.1/nios2eds/bin/gnu/H-x86_64-pc-linux-gnu/bin/../lib/gcc/nios2-elf/9.2.1/../../../../../H-x86_64-pc-linux-gnu/nios2-elf/lib/libc.a(lib_a-putchar.o)
                0x0000000008004954                putchar
 .text          0x000000000800496c        0x0 /home/tom/intelFPGA_lite/20.1/nios2eds/bin/gnu/H-x86_64-pc-linux-gnu/bin/../lib/gcc/nios2-elf/9.2.1/../../../../../H-x86_64-pc-linux-gnu/nios2-elf/lib/libc.a(lib_a-puts.o)
 .text._puts_r  0x000000000800496c       0xcc /home/tom/intelFPGA_lite/20.1/nios2eds/bin/gnu/H-x86_64-pc-linux-gnu/bin/../lib/gcc/nios2-elf/9.2.1/../../../../../H-x86_64-pc-linux-gnu/nios2-elf/lib/libc.a(lib_a-puts.o)
                0x000000000800496c                _puts_r
 .text.puts     0x0000000008004a38       0x10 /home/tom/intelFPGA_lite/20.1/nios2eds/bin/gnu/H-x86_64-pc-linux-gnu/bin/../lib/gcc/nios2-elf/9.2.1/../../../../../H-x86_64-pc-linux-gnu/nios2-elf/lib/libc.a(lib_a-puts.o)
                0x0000000008004a38                puts
 .text          0x0000000008004a48        0x0 /home/tom/intelFPGA_lite/20.1/nios2eds/bin/gnu/H-x86_64-pc-linux-gnu/bin/../lib/gcc/nios2-elf/9.2.1/../../../../../H-x86_64-pc-linux-gnu/nios2-elf/lib/libc.a(lib_a-sprintf.o)
 .text._sprintf_r
                0x0000000008004a48       0x54 /home/tom/intelFPGA_lite/20.1/nios2eds/bin/gnu/H-x86_64-pc-linux-gnu/bin/../lib/gcc/nios2-elf/9.2.1/../../../../../H-x86_64-pc-linux-gnu/nios2-elf/lib/libc.a(lib_a-sprintf.o)
                0x0000000008004a48                _sprintf_r
 .text.sprintf  0x0000000008004a9c       0x64 /home/tom/intelFPGA_lite/20.1/nios2eds/bin/gnu/H-x86_64-pc-linux-gnu/bin/../lib/gcc/nios2-elf/9.2.1/../../../../../H-x86_64-pc-linux-gnu/nios2-elf/lib/libc.a(lib_a-sprintf.o)
                0x0000000008004a9c                sprintf
 .text          0x0000000008004b00        0x0 /home/tom/intelFPGA_lite/20.1/nios2eds/bin/gnu/H-x86_64-pc-linux-gnu/bin/../lib/gcc/nios2-elf/9.2.1/../../../../../H-x86_64-pc-linux-gnu/nios2-elf/lib/libc.a(lib_a-strcpy.o)
 .text.strcpy   0x0000000008004b00       0x8c /home/tom/intelFPGA_lite/20.1/nios2eds/bin/gnu/H-x86_64-pc-linux-gnu/bin/../lib/gcc/nios2-elf/9.2.1/../../../../../H-x86_64-pc-linux-gnu/nios2-elf/lib/libc.a(lib_a-strcpy.o)
                0x0000000008004b00                strcpy
 .text          0x0000000008004b8c        0x0 /home/tom/intelFPGA_lite/20.1/nios2eds/bin/gnu/H-x86_64-pc-linux-gnu/bin/../lib/gcc/nios2-elf/9.2.1/../../../../../H-x86_64-pc-linux-gnu/nios2-elf/lib/libc.a(lib_a-strerror.o)
 .text._strerror_r
                0x0000000008004b8c      0x65c /home/tom/intelFPGA_lite/20.1/nios2eds/bin/gnu/H-x86_64-pc-linux-gnu/bin/../lib/gcc/nios2-elf/9.2.1/../../../../../H-x86_64-pc-linux-gnu/nios2-elf/lib/libc.a(lib_a-strerror.o)
                0x0000000008004b8c                _strerror_r
 .text.strerror
                0x00000000080051e8       0x18 /home/tom/intelFPGA_lite/20.1/nios2eds/bin/gnu/H-x86_64-pc-linux-gnu/bin/../lib/gcc/nios2-elf/9.2.1/../../../../../H-x86_64-pc-linux-gnu/nios2-elf/lib/libc.a(lib_a-strerror.o)
                0x00000000080051e8                strerror
 .text.strerror_l
                0x0000000008005200       0x18 /home/tom/intelFPGA_lite/20.1/nios2eds/bin/gnu/H-x86_64-pc-linux-gnu/bin/../lib/gcc/nios2-elf/9.2.1/../../../../../H-x86_64-pc-linux-gnu/nios2-elf/lib/libc.a(lib_a-strerror.o)
                0x0000000008005200                strerror_l
 .text          0x0000000008005218        0x0 /home/tom/intelFPGA_lite/20.1/nios2eds/bin/gnu/H-x86_64-pc-linux-gnu/bin/../lib/gcc/nios2-elf/9.2.1/../../../../../H-x86_64-pc-linux-gnu/nios2-elf/lib/libc.a(lib_a-strlen.o)
 .text.strlen   0x0000000008005218       0x98 /home/tom/intelFPGA_lite/20.1/nios2eds/bin/gnu/H-x86_64-pc-linux-gnu/bin/../lib/gcc/nios2-elf/9.2.1/../../../../../H-x86_64-pc-linux-gnu/nios2-elf/lib/libc.a(lib_a-strlen.o)
                0x0000000008005218                strlen
 .text          0x00000000080052b0        0x0 /home/tom/intelFPGA_lite/20.1/nios2eds/bin/gnu/H-x86_64-pc-linux-gnu/bin/../lib/gcc/nios2-elf/9.2.1/../../../../../H-x86_64-pc-linux-gnu/nios2-elf/lib/libc.a(lib_a-strtok.o)
 .text.strtok   0x00000000080052b0       0x14 /home/tom/intelFPGA_lite/20.1/nios2eds/bin/gnu/H-x86_64-pc-linux-gnu/bin/../lib/gcc/nios2-elf/9.2.1/../../../../../H-x86_64-pc-linux-gnu/nios2-elf/lib/libc.a(lib_a-strtok.o)
                0x00000000080052b0                strtok
 .text          0x00000000080052c4        0x0 /home/tom/intelFPGA_lite/20.1/nios2eds/bin/gnu/H-x86_64-pc-linux-gnu/bin/../lib/gcc/nios2-elf/9.2.1/../../../../../H-x86_64-pc-linux-gnu/nios2-elf/lib/libc.a(lib_a-strtok_r.o)
 .text.__strtok_r
                0x00000000080052c4       0xa4 /home/tom/intelFPGA_lite/20.1/nios2eds/bin/gnu/H-x86_64-pc-linux-gnu/bin/../lib/gcc/nios2-elf/9.2.1/../../../../../H-x86_64-pc-linux-gnu/nios2-elf/lib/libc.a(lib_a-strtok_r.o)
                0x00000000080052c4                __strtok_r
 .text.strtok_r
                0x0000000008005368        0x8 /home/tom/intelFPGA_lite/20.1/nios2eds/bin/gnu/H-x86_64-pc-linux-gnu/bin/../lib/gcc/nios2-elf/9.2.1/../../../../../H-x86_64-pc-linux-gnu/nios2-elf/lib/libc.a(lib_a-strtok_r.o)
                0x0000000008005368                strtok_r
 .text          0x0000000008005370        0x0 /home/tom/intelFPGA_lite/20.1/nios2eds/bin/gnu/H-x86_64-pc-linux-gnu/bin/../lib/gcc/nios2-elf/9.2.1/../../../../../H-x86_64-pc-linux-gnu/nios2-elf/lib/libc.a(lib_a-strtoul.o)
 .text._strtoul_l.isra.0
                0x0000000008005370      0x248 /home/tom/intelFPGA_lite/20.1/nios2eds/bin/gnu/H-x86_64-pc-linux-gnu/bin/../lib/gcc/nios2-elf/9.2.1/../../../../../H-x86_64-pc-linux-gnu/nios2-elf/lib/libc.a(lib_a-strtoul.o)
 .text._strtoul_r
                0x00000000080055b8        0x4 /home/tom/intelFPGA_lite/20.1/nios2eds/bin/gnu/H-x86_64-pc-linux-gnu/bin/../lib/gcc/nios2-elf/9.2.1/../../../../../H-x86_64-pc-linux-gnu/nios2-elf/lib/libc.a(lib_a-strtoul.o)
                0x00000000080055b8                _strtoul_r
 .text.strtoul_l
                0x00000000080055bc       0x1c /home/tom/intelFPGA_lite/20.1/nios2eds/bin/gnu/H-x86_64-pc-linux-gnu/bin/../lib/gcc/nios2-elf/9.2.1/../../../../../H-x86_64-pc-linux-gnu/nios2-elf/lib/libc.a(lib_a-strtoul.o)
                0x00000000080055bc                strtoul_l
 .text.strtoul  0x00000000080055d8       0x1c /home/tom/intelFPGA_lite/20.1/nios2eds/bin/gnu/H-x86_64-pc-linux-gnu/bin/../lib/gcc/nios2-elf/9.2.1/../../../../../H-x86_64-pc-linux-gnu/nios2-elf/lib/libc.a(lib_a-strtoul.o)
                0x00000000080055d8                strtoul
 .text          0x00000000080055f4        0x0 /home/tom/intelFPGA_lite/20.1/nios2eds/bin/gnu/H-x86_64-pc-linux-gnu/bin/../lib/gcc/nios2-elf/9.2.1/../../../../../H-x86_64-pc-linux-gnu/nios2-elf/lib/libc.a(lib_a-svfprintf.o)
 .text.___svfprintf_internal_r
                0x00000000080055f4     0x209c /home/tom/intelFPGA_lite/20.1/nios2eds/bin/gnu/H-x86_64-pc-linux-gnu/bin/../lib/gcc/nios2-elf/9.2.1/../../../../../H-x86_64-pc-linux-gnu/nios2-elf/lib/libc.a(lib_a-svfprintf.o)
                0x00000000080055f4                ___svfprintf_internal_r
 .text          0x0000000008007690        0x0 /home/tom/intelFPGA_lite/20.1/nios2eds/bin/gnu/H-x86_64-pc-linux-gnu/bin/../lib/gcc/nios2-elf/9.2.1/../../../../../H-x86_64-pc-linux-gnu/nios2-elf/lib/libc.a(lib_a-u_strerr.o)
 .text._user_strerror
                0x0000000008007690        0x8 /home/tom/intelFPGA_lite/20.1/nios2eds/bin/gnu/H-x86_64-pc-linux-gnu/bin/../lib/gcc/nios2-elf/9.2.1/../../../../../H-x86_64-pc-linux-gnu/nios2-elf/lib/libc.a(lib_a-u_strerr.o)
                0x0000000008007690                _user_strerror
 .text          0x0000000008007698        0x0 /home/tom/intelFPGA_lite/20.1/nios2eds/bin/gnu/H-x86_64-pc-linux-gnu/bin/../lib/gcc/nios2-elf/9.2.1/../../../../../H-x86_64-pc-linux-gnu/nios2-elf/lib/libc.a(lib_a-vfprintf.o)
 .text.___vfprintf_internal_r
                0x0000000008007698     0x20dc /home/tom/intelFPGA_lite/20.1/nios2eds/bin/gnu/H-x86_64-pc-linux-gnu/bin/../lib/gcc/nios2-elf/9.2.1/../../../../../H-x86_64-pc-linux-gnu/nios2-elf/lib/libc.a(lib_a-vfprintf.o)
                0x0000000008007698                ___vfprintf_internal_r
 .text.__vfprintf_internal
                0x0000000008009774       0x1c /home/tom/intelFPGA_lite/20.1/nios2eds/bin/gnu/H-x86_64-pc-linux-gnu/bin/../lib/gcc/nios2-elf/9.2.1/../../../../../H-x86_64-pc-linux-gnu/nios2-elf/lib/libc.a(lib_a-vfprintf.o)
                0x0000000008009774                __vfprintf_internal
 .text.__sbprintf
                0x0000000008009790       0xc0 /home/tom/intelFPGA_lite/20.1/nios2eds/bin/gnu/H-x86_64-pc-linux-gnu/bin/../lib/gcc/nios2-elf/9.2.1/../../../../../H-x86_64-pc-linux-gnu/nios2-elf/lib/libc.a(lib_a-vfprintf.o)
 .text          0x0000000008009850        0x0 /home/tom/intelFPGA_lite/20.1/nios2eds/bin/gnu/H-x86_64-pc-linux-gnu/bin/../lib/gcc/nios2-elf/9.2.1/../../../../../H-x86_64-pc-linux-gnu/nios2-elf/lib/libc.a(lib_a-writer.o)
 .text._write_r
                0x0000000008009850       0x64 /home/tom/intelFPGA_lite/20.1/nios2eds/bin/gnu/H-x86_64-pc-linux-gnu/bin/../lib/gcc/nios2-elf/9.2.1/../../../../../H-x86_64-pc-linux-gnu/nios2-elf/lib/libc.a(lib_a-writer.o)
                0x0000000008009850                _write_r
 .text          0x00000000080098b4        0x0 /home/tom/intelFPGA_lite/20.1/nios2eds/bin/gnu/H-x86_64-pc-linux-gnu/bin/../lib/gcc/nios2-elf/9.2.1/../../../../../H-x86_64-pc-linux-gnu/nios2-elf/lib/libc.a(lib_a-wsetup.o)
 .text.__swsetup_r
                0x00000000080098b4      0x15c /home/tom/intelFPGA_lite/20.1/nios2eds/bin/gnu/H-x86_64-pc-linux-gnu/bin/../lib/gcc/nios2-elf/9.2.1/../../../../../H-x86_64-pc-linux-gnu/nios2-elf/lib/libc.a(lib_a-wsetup.o)
                0x00000000080098b4                __swsetup_r
 .text          0x0000000008009a10        0x0 /home/tom/intelFPGA_lite/20.1/nios2eds/bin/gnu/H-x86_64-pc-linux-gnu/bin/../lib/gcc/nios2-elf/9.2.1/../../../../../H-x86_64-pc-linux-gnu/nios2-elf/lib/libc.a(lib_a-dtoa.o)
 .text.quorem   0x0000000008009a10      0x1fc /home/tom/intelFPGA_lite/20.1/nios2eds/bin/gnu/H-x86_64-pc-linux-gnu/bin/../lib/gcc/nios2-elf/9.2.1/../../../../../H-x86_64-pc-linux-gnu/nios2-elf/lib/libc.a(lib_a-dtoa.o)
 .text._dtoa_r  0x0000000008009c0c     0x1750 /home/tom/intelFPGA_lite/20.1/nios2eds/bin/gnu/H-x86_64-pc-linux-gnu/bin/../lib/gcc/nios2-elf/9.2.1/../../../../../H-x86_64-pc-linux-gnu/nios2-elf/lib/libc.a(lib_a-dtoa.o)
                0x0000000008009c0c                _dtoa_r
 .text          0x000000000800b35c        0x0 /home/tom/intelFPGA_lite/20.1/nios2eds/bin/gnu/H-x86_64-pc-linux-gnu/bin/../lib/gcc/nios2-elf/9.2.1/../../../../../H-x86_64-pc-linux-gnu/nios2-elf/lib/libc.a(lib_a-fflush.o)
 .text.__sflush_r
                0x000000000800b35c      0x228 /home/tom/intelFPGA_lite/20.1/nios2eds/bin/gnu/H-x86_64-pc-linux-gnu/bin/../lib/gcc/nios2-elf/9.2.1/../../../../../H-x86_64-pc-linux-gnu/nios2-elf/lib/libc.a(lib_a-fflush.o)
                0x000000000800b35c                __sflush_r
 .text._fflush_r
                0x000000000800b584       0x60 /home/tom/intelFPGA_lite/20.1/nios2eds/bin/gnu/H-x86_64-pc-linux-gnu/bin/../lib/gcc/nios2-elf/9.2.1/../../../../../H-x86_64-pc-linux-gnu/nios2-elf/lib/libc.a(lib_a-fflush.o)
                0x000000000800b584                _fflush_r
 .text.fflush   0x000000000800b5e4       0x28 /home/tom/intelFPGA_lite/20.1/nios2eds/bin/gnu/H-x86_64-pc-linux-gnu/bin/../lib/gcc/nios2-elf/9.2.1/../../../../../H-x86_64-pc-linux-gnu/nios2-elf/lib/libc.a(lib_a-fflush.o)
                0x000000000800b5e4                fflush
 .text          0x000000000800b60c        0x0 /home/tom/intelFPGA_lite/20.1/nios2eds/bin/gnu/H-x86_64-pc-linux-gnu/bin/../lib/gcc/nios2-elf/9.2.1/../../../../../H-x86_64-pc-linux-gnu/nios2-elf/lib/libc.a(lib_a-fileno.o)
 .text.fileno   0x000000000800b60c       0x64 /home/tom/intelFPGA_lite/20.1/nios2eds/bin/gnu/H-x86_64-pc-linux-gnu/bin/../lib/gcc/nios2-elf/9.2.1/../../../../../H-x86_64-pc-linux-gnu/nios2-elf/lib/libc.a(lib_a-fileno.o)
                0x000000000800b60c                fileno
 .text          0x000000000800b670        0x0 /home/tom/intelFPGA_lite/20.1/nios2eds/bin/gnu/H-x86_64-pc-linux-gnu/bin/../lib/gcc/nios2-elf/9.2.1/../../../../../H-x86_64-pc-linux-gnu/nios2-elf/lib/libc.a(lib_a-findfp.o)
 .text.__fp_lock
                0x000000000800b670        0x8 /home/tom/intelFPGA_lite/20.1/nios2eds/bin/gnu/H-x86_64-pc-linux-gnu/bin/../lib/gcc/nios2-elf/9.2.1/../../../../../H-x86_64-pc-linux-gnu/nios2-elf/lib/libc.a(lib_a-findfp.o)
 .text._cleanup_r
                0x000000000800b678        0xc /home/tom/intelFPGA_lite/20.1/nios2eds/bin/gnu/H-x86_64-pc-linux-gnu/bin/../lib/gcc/nios2-elf/9.2.1/../../../../../H-x86_64-pc-linux-gnu/nios2-elf/lib/libc.a(lib_a-findfp.o)
                0x000000000800b678                _cleanup_r
 .text.__sinit.part.0
                0x000000000800b684      0x168 /home/tom/intelFPGA_lite/20.1/nios2eds/bin/gnu/H-x86_64-pc-linux-gnu/bin/../lib/gcc/nios2-elf/9.2.1/../../../../../H-x86_64-pc-linux-gnu/nios2-elf/lib/libc.a(lib_a-findfp.o)
 .text.__fp_unlock
                0x000000000800b7ec        0x8 /home/tom/intelFPGA_lite/20.1/nios2eds/bin/gnu/H-x86_64-pc-linux-gnu/bin/../lib/gcc/nios2-elf/9.2.1/../../../../../H-x86_64-pc-linux-gnu/nios2-elf/lib/libc.a(lib_a-findfp.o)
 .text.__sfmoreglue
                0x000000000800b7f4       0x68 /home/tom/intelFPGA_lite/20.1/nios2eds/bin/gnu/H-x86_64-pc-linux-gnu/bin/../lib/gcc/nios2-elf/9.2.1/../../../../../H-x86_64-pc-linux-gnu/nios2-elf/lib/libc.a(lib_a-findfp.o)
                0x000000000800b7f4                __sfmoreglue
 .text.__sfp    0x000000000800b85c       0xfc /home/tom/intelFPGA_lite/20.1/nios2eds/bin/gnu/H-x86_64-pc-linux-gnu/bin/../lib/gcc/nios2-elf/9.2.1/../../../../../H-x86_64-pc-linux-gnu/nios2-elf/lib/libc.a(lib_a-findfp.o)
                0x000000000800b85c                __sfp
 .text._cleanup
                0x000000000800b958       0x14 /home/tom/intelFPGA_lite/20.1/nios2eds/bin/gnu/H-x86_64-pc-linux-gnu/bin/../lib/gcc/nios2-elf/9.2.1/../../../../../H-x86_64-pc-linux-gnu/nios2-elf/lib/libc.a(lib_a-findfp.o)
                0x000000000800b958                _cleanup
 .text.__sinit  0x000000000800b96c       0x10 /home/tom/intelFPGA_lite/20.1/nios2eds/bin/gnu/H-x86_64-pc-linux-gnu/bin/../lib/gcc/nios2-elf/9.2.1/../../../../../H-x86_64-pc-linux-gnu/nios2-elf/lib/libc.a(lib_a-findfp.o)
                0x000000000800b96c                __sinit
 .text.__sfp_lock_acquire
                0x000000000800b97c        0x4 /home/tom/intelFPGA_lite/20.1/nios2eds/bin/gnu/H-x86_64-pc-linux-gnu/bin/../lib/gcc/nios2-elf/9.2.1/../../../../../H-x86_64-pc-linux-gnu/nios2-elf/lib/libc.a(lib_a-findfp.o)
                0x000000000800b97c                __sfp_lock_acquire
 .text.__sfp_lock_release
                0x000000000800b980        0x4 /home/tom/intelFPGA_lite/20.1/nios2eds/bin/gnu/H-x86_64-pc-linux-gnu/bin/../lib/gcc/nios2-elf/9.2.1/../../../../../H-x86_64-pc-linux-gnu/nios2-elf/lib/libc.a(lib_a-findfp.o)
                0x000000000800b980                __sfp_lock_release
 .text.__sinit_lock_acquire
                0x000000000800b984        0x4 /home/tom/intelFPGA_lite/20.1/nios2eds/bin/gnu/H-x86_64-pc-linux-gnu/bin/../lib/gcc/nios2-elf/9.2.1/../../../../../H-x86_64-pc-linux-gnu/nios2-elf/lib/libc.a(lib_a-findfp.o)
                0x000000000800b984                __sinit_lock_acquire
 .text.__sinit_lock_release
                0x000000000800b988        0x4 /home/tom/intelFPGA_lite/20.1/nios2eds/bin/gnu/H-x86_64-pc-linux-gnu/bin/../lib/gcc/nios2-elf/9.2.1/../../../../../H-x86_64-pc-linux-gnu/nios2-elf/lib/libc.a(lib_a-findfp.o)
                0x000000000800b988                __sinit_lock_release
 .text.__fp_lock_all
                0x000000000800b98c       0x14 /home/tom/intelFPGA_lite/20.1/nios2eds/bin/gnu/H-x86_64-pc-linux-gnu/bin/../lib/gcc/nios2-elf/9.2.1/../../../../../H-x86_64-pc-linux-gnu/nios2-elf/lib/libc.a(lib_a-findfp.o)
                0x000000000800b98c                __fp_lock_all
 .text.__fp_unlock_all
                0x000000000800b9a0       0x14 /home/tom/intelFPGA_lite/20.1/nios2eds/bin/gnu/H-x86_64-pc-linux-gnu/bin/../lib/gcc/nios2-elf/9.2.1/../../../../../H-x86_64-pc-linux-gnu/nios2-elf/lib/libc.a(lib_a-findfp.o)
                0x000000000800b9a0                __fp_unlock_all
 .text          0x000000000800b9b4        0x0 /home/tom/intelFPGA_lite/20.1/nios2eds/bin/gnu/H-x86_64-pc-linux-gnu/bin/../lib/gcc/nios2-elf/9.2.1/../../../../../H-x86_64-pc-linux-gnu/nios2-elf/lib/libc.a(lib_a-freer.o)
 .text._malloc_trim_r
                0x000000000800b9b4      0x11c /home/tom/intelFPGA_lite/20.1/nios2eds/bin/gnu/H-x86_64-pc-linux-gnu/bin/../lib/gcc/nios2-elf/9.2.1/../../../../../H-x86_64-pc-linux-gnu/nios2-elf/lib/libc.a(lib_a-freer.o)
                0x000000000800b9b4                _malloc_trim_r
 .text._free_r  0x000000000800bad0      0x2fc /home/tom/intelFPGA_lite/20.1/nios2eds/bin/gnu/H-x86_64-pc-linux-gnu/bin/../lib/gcc/nios2-elf/9.2.1/../../../../../H-x86_64-pc-linux-gnu/nios2-elf/lib/libc.a(lib_a-freer.o)
                0x000000000800bad0                _free_r
 .text          0x000000000800bdcc        0x0 /home/tom/intelFPGA_lite/20.1/nios2eds/bin/gnu/H-x86_64-pc-linux-gnu/bin/../lib/gcc/nios2-elf/9.2.1/../../../../../H-x86_64-pc-linux-gnu/nios2-elf/lib/libc.a(lib_a-fvwrite.o)
 .text.__sfvwrite_r
                0x000000000800bdcc      0x4bc /home/tom/intelFPGA_lite/20.1/nios2eds/bin/gnu/H-x86_64-pc-linux-gnu/bin/../lib/gcc/nios2-elf/9.2.1/../../../../../H-x86_64-pc-linux-gnu/nios2-elf/lib/libc.a(lib_a-fvwrite.o)
                0x000000000800bdcc                __sfvwrite_r
 .text          0x000000000800c288        0x0 /home/tom/intelFPGA_lite/20.1/nios2eds/bin/gnu/H-x86_64-pc-linux-gnu/bin/../lib/gcc/nios2-elf/9.2.1/../../../../../H-x86_64-pc-linux-gnu/nios2-elf/lib/libc.a(lib_a-fwalk.o)
 .text._fwalk   0x000000000800c288       0x98 /home/tom/intelFPGA_lite/20.1/nios2eds/bin/gnu/H-x86_64-pc-linux-gnu/bin/../lib/gcc/nios2-elf/9.2.1/../../../../../H-x86_64-pc-linux-gnu/nios2-elf/lib/libc.a(lib_a-fwalk.o)
                0x000000000800c288                _fwalk
 .text._fwalk_reent
                0x000000000800c320       0xa8 /home/tom/intelFPGA_lite/20.1/nios2eds/bin/gnu/H-x86_64-pc-linux-gnu/bin/../lib/gcc/nios2-elf/9.2.1/../../../../../H-x86_64-pc-linux-gnu/nios2-elf/lib/libc.a(lib_a-fwalk.o)
                0x000000000800c320                _fwalk_reent
 .text          0x000000000800c3c8        0x0 /home/tom/intelFPGA_lite/20.1/nios2eds/bin/gnu/H-x86_64-pc-linux-gnu/bin/../lib/gcc/nios2-elf/9.2.1/../../../../../H-x86_64-pc-linux-gnu/nios2-elf/lib/libc.a(lib_a-getc.o)
 .text._getc_r  0x000000000800c3c8       0x7c /home/tom/intelFPGA_lite/20.1/nios2eds/bin/gnu/H-x86_64-pc-linux-gnu/bin/../lib/gcc/nios2-elf/9.2.1/../../../../../H-x86_64-pc-linux-gnu/nios2-elf/lib/libc.a(lib_a-getc.o)
                0x000000000800c3c8                _getc_r
 .text.getc     0x000000000800c444       0x90 /home/tom/intelFPGA_lite/20.1/nios2eds/bin/gnu/H-x86_64-pc-linux-gnu/bin/../lib/gcc/nios2-elf/9.2.1/../../../../../H-x86_64-pc-linux-gnu/nios2-elf/lib/libc.a(lib_a-getc.o)
                0x000000000800c444                getc
 .text          0x000000000800c4d4        0x0 /home/tom/intelFPGA_lite/20.1/nios2eds/bin/gnu/H-x86_64-pc-linux-gnu/bin/../lib/gcc/nios2-elf/9.2.1/../../../../../H-x86_64-pc-linux-gnu/nios2-elf/lib/libc.a(lib_a-int_errno.o)
 .text          0x000000000800c4d4        0x0 /home/tom/intelFPGA_lite/20.1/nios2eds/bin/gnu/H-x86_64-pc-linux-gnu/bin/../lib/gcc/nios2-elf/9.2.1/../../../../../H-x86_64-pc-linux-gnu/nios2-elf/lib/libc.a(lib_a-localeconv.o)
 .text.__localeconv_l
                0x000000000800c4d4        0x8 /home/tom/intelFPGA_lite/20.1/nios2eds/bin/gnu/H-x86_64-pc-linux-gnu/bin/../lib/gcc/nios2-elf/9.2.1/../../../../../H-x86_64-pc-linux-gnu/nios2-elf/lib/libc.a(lib_a-localeconv.o)
                0x000000000800c4d4                __localeconv_l
 .text._localeconv_r
                0x000000000800c4dc        0xc /home/tom/intelFPGA_lite/20.1/nios2eds/bin/gnu/H-x86_64-pc-linux-gnu/bin/../lib/gcc/nios2-elf/9.2.1/../../../../../H-x86_64-pc-linux-gnu/nios2-elf/lib/libc.a(lib_a-localeconv.o)
                0x000000000800c4dc                _localeconv_r
 .text.localeconv
                0x000000000800c4e8        0xc /home/tom/intelFPGA_lite/20.1/nios2eds/bin/gnu/H-x86_64-pc-linux-gnu/bin/../lib/gcc/nios2-elf/9.2.1/../../../../../H-x86_64-pc-linux-gnu/nios2-elf/lib/libc.a(lib_a-localeconv.o)
                0x000000000800c4e8                localeconv
 .text          0x000000000800c4f4        0x0 /home/tom/intelFPGA_lite/20.1/nios2eds/bin/gnu/H-x86_64-pc-linux-gnu/bin/../lib/gcc/nios2-elf/9.2.1/../../../../../H-x86_64-pc-linux-gnu/nios2-elf/lib/libc.a(lib_a-makebuf.o)
 .text.__swhatbuf_r
                0x000000000800c4f4       0x98 /home/tom/intelFPGA_lite/20.1/nios2eds/bin/gnu/H-x86_64-pc-linux-gnu/bin/../lib/gcc/nios2-elf/9.2.1/../../../../../H-x86_64-pc-linux-gnu/nios2-elf/lib/libc.a(lib_a-makebuf.o)
                0x000000000800c4f4                __swhatbuf_r
 .text.__smakebuf_r
                0x000000000800c58c      0x140 /home/tom/intelFPGA_lite/20.1/nios2eds/bin/gnu/H-x86_64-pc-linux-gnu/bin/../lib/gcc/nios2-elf/9.2.1/../../../../../H-x86_64-pc-linux-gnu/nios2-elf/lib/libc.a(lib_a-makebuf.o)
                0x000000000800c58c                __smakebuf_r
 .text          0x000000000800c6cc        0x0 /home/tom/intelFPGA_lite/20.1/nios2eds/bin/gnu/H-x86_64-pc-linux-gnu/bin/../lib/gcc/nios2-elf/9.2.1/../../../../../H-x86_64-pc-linux-gnu/nios2-elf/lib/libc.a(lib_a-mallocr.o)
 .text._malloc_r
                0x000000000800c6cc      0x7e0 /home/tom/intelFPGA_lite/20.1/nios2eds/bin/gnu/H-x86_64-pc-linux-gnu/bin/../lib/gcc/nios2-elf/9.2.1/../../../../../H-x86_64-pc-linux-gnu/nios2-elf/lib/libc.a(lib_a-mallocr.o)
                0x000000000800c6cc                _malloc_r
 .text          0x000000000800ceac        0x0 /home/tom/intelFPGA_lite/20.1/nios2eds/bin/gnu/H-x86_64-pc-linux-gnu/bin/../lib/gcc/nios2-elf/9.2.1/../../../../../H-x86_64-pc-linux-gnu/nios2-elf/lib/libc.a(lib_a-memchr.o)
 .text.memchr   0x000000000800ceac       0xd4 /home/tom/intelFPGA_lite/20.1/nios2eds/bin/gnu/H-x86_64-pc-linux-gnu/bin/../lib/gcc/nios2-elf/9.2.1/../../../../../H-x86_64-pc-linux-gnu/nios2-elf/lib/libc.a(lib_a-memchr.o)
                0x000000000800ceac                memchr
 .text          0x000000000800cf80        0x0 /home/tom/intelFPGA_lite/20.1/nios2eds/bin/gnu/H-x86_64-pc-linux-gnu/bin/../lib/gcc/nios2-elf/9.2.1/../../../../../H-x86_64-pc-linux-gnu/nios2-elf/lib/libc.a(lib_a-memmove.o)
 .text.memmove  0x000000000800cf80      0x12c /home/tom/intelFPGA_lite/20.1/nios2eds/bin/gnu/H-x86_64-pc-linux-gnu/bin/../lib/gcc/nios2-elf/9.2.1/../../../../../H-x86_64-pc-linux-gnu/nios2-elf/lib/libc.a(lib_a-memmove.o)
                0x000000000800cf80                memmove
 .text          0x000000000800d0ac        0x0 /home/tom/intelFPGA_lite/20.1/nios2eds/bin/gnu/H-x86_64-pc-linux-gnu/bin/../lib/gcc/nios2-elf/9.2.1/../../../../../H-x86_64-pc-linux-gnu/nios2-elf/lib/libc.a(lib_a-mprec.o)
 .text._Balloc  0x000000000800d0ac       0xa4 /home/tom/intelFPGA_lite/20.1/nios2eds/bin/gnu/H-x86_64-pc-linux-gnu/bin/../lib/gcc/nios2-elf/9.2.1/../../../../../H-x86_64-pc-linux-gnu/nios2-elf/lib/libc.a(lib_a-mprec.o)
                0x000000000800d0ac                _Balloc
 .text._Bfree   0x000000000800d150       0x24 /home/tom/intelFPGA_lite/20.1/nios2eds/bin/gnu/H-x86_64-pc-linux-gnu/bin/../lib/gcc/nios2-elf/9.2.1/../../../../../H-x86_64-pc-linux-gnu/nios2-elf/lib/libc.a(lib_a-mprec.o)
                0x000000000800d150                _Bfree
 .text.__multadd
                0x000000000800d174      0x138 /home/tom/intelFPGA_lite/20.1/nios2eds/bin/gnu/H-x86_64-pc-linux-gnu/bin/../lib/gcc/nios2-elf/9.2.1/../../../../../H-x86_64-pc-linux-gnu/nios2-elf/lib/libc.a(lib_a-mprec.o)
                0x000000000800d174                __multadd
 .text.__s2b    0x000000000800d2ac      0x138 /home/tom/intelFPGA_lite/20.1/nios2eds/bin/gnu/H-x86_64-pc-linux-gnu/bin/../lib/gcc/nios2-elf/9.2.1/../../../../../H-x86_64-pc-linux-gnu/nios2-elf/lib/libc.a(lib_a-mprec.o)
                0x000000000800d2ac                __s2b
 .text.__hi0bits
                0x000000000800d3e4       0x64 /home/tom/intelFPGA_lite/20.1/nios2eds/bin/gnu/H-x86_64-pc-linux-gnu/bin/../lib/gcc/nios2-elf/9.2.1/../../../../../H-x86_64-pc-linux-gnu/nios2-elf/lib/libc.a(lib_a-mprec.o)
                0x000000000800d3e4                __hi0bits
 .text.__lo0bits
                0x000000000800d448       0xb0 /home/tom/intelFPGA_lite/20.1/nios2eds/bin/gnu/H-x86_64-pc-linux-gnu/bin/../lib/gcc/nios2-elf/9.2.1/../../../../../H-x86_64-pc-linux-gnu/nios2-elf/lib/libc.a(lib_a-mprec.o)
                0x000000000800d448                __lo0bits
 .text.__i2b    0x000000000800d4f8       0x54 /home/tom/intelFPGA_lite/20.1/nios2eds/bin/gnu/H-x86_64-pc-linux-gnu/bin/../lib/gcc/nios2-elf/9.2.1/../../../../../H-x86_64-pc-linux-gnu/nios2-elf/lib/libc.a(lib_a-mprec.o)
                0x000000000800d4f8                __i2b
 .text.__multiply
                0x000000000800d54c      0x230 /home/tom/intelFPGA_lite/20.1/nios2eds/bin/gnu/H-x86_64-pc-linux-gnu/bin/../lib/gcc/nios2-elf/9.2.1/../../../../../H-x86_64-pc-linux-gnu/nios2-elf/lib/libc.a(lib_a-mprec.o)
                0x000000000800d54c                __multiply
 .text.__pow5mult
                0x000000000800d77c      0x118 /home/tom/intelFPGA_lite/20.1/nios2eds/bin/gnu/H-x86_64-pc-linux-gnu/bin/../lib/gcc/nios2-elf/9.2.1/../../../../../H-x86_64-pc-linux-gnu/nios2-elf/lib/libc.a(lib_a-mprec.o)
                0x000000000800d77c                __pow5mult
 .text.__lshift
                0x000000000800d894      0x188 /home/tom/intelFPGA_lite/20.1/nios2eds/bin/gnu/H-x86_64-pc-linux-gnu/bin/../lib/gcc/nios2-elf/9.2.1/../../../../../H-x86_64-pc-linux-gnu/nios2-elf/lib/libc.a(lib_a-mprec.o)
                0x000000000800d894                __lshift
 .text.__mcmp   0x000000000800da1c       0x58 /home/tom/intelFPGA_lite/20.1/nios2eds/bin/gnu/H-x86_64-pc-linux-gnu/bin/../lib/gcc/nios2-elf/9.2.1/../../../../../H-x86_64-pc-linux-gnu/nios2-elf/lib/libc.a(lib_a-mprec.o)
                0x000000000800da1c                __mcmp
 .text.__mdiff  0x000000000800da74      0x22c /home/tom/intelFPGA_lite/20.1/nios2eds/bin/gnu/H-x86_64-pc-linux-gnu/bin/../lib/gcc/nios2-elf/9.2.1/../../../../../H-x86_64-pc-linux-gnu/nios2-elf/lib/libc.a(lib_a-mprec.o)
                0x000000000800da74                __mdiff
 .text.__ulp    0x000000000800dca0       0x5c /home/tom/intelFPGA_lite/20.1/nios2eds/bin/gnu/H-x86_64-pc-linux-gnu/bin/../lib/gcc/nios2-elf/9.2.1/../../../../../H-x86_64-pc-linux-gnu/nios2-elf/lib/libc.a(lib_a-mprec.o)
                0x000000000800dca0                __ulp
 .text.__b2d    0x000000000800dcfc      0x104 /home/tom/intelFPGA_lite/20.1/nios2eds/bin/gnu/H-x86_64-pc-linux-gnu/bin/../lib/gcc/nios2-elf/9.2.1/../../../../../H-x86_64-pc-linux-gnu/nios2-elf/lib/libc.a(lib_a-mprec.o)
                0x000000000800dcfc                __b2d
 .text.__d2b    0x000000000800de00      0x164 /home/tom/intelFPGA_lite/20.1/nios2eds/bin/gnu/H-x86_64-pc-linux-gnu/bin/../lib/gcc/nios2-elf/9.2.1/../../../../../H-x86_64-pc-linux-gnu/nios2-elf/lib/libc.a(lib_a-mprec.o)
                0x000000000800de00                __d2b
 .text.__ratio  0x000000000800df64       0xa8 /home/tom/intelFPGA_lite/20.1/nios2eds/bin/gnu/H-x86_64-pc-linux-gnu/bin/../lib/gcc/nios2-elf/9.2.1/../../../../../H-x86_64-pc-linux-gnu/nios2-elf/lib/libc.a(lib_a-mprec.o)
                0x000000000800df64                __ratio
 .text._mprec_log10
                0x000000000800e00c       0x70 /home/tom/intelFPGA_lite/20.1/nios2eds/bin/gnu/H-x86_64-pc-linux-gnu/bin/../lib/gcc/nios2-elf/9.2.1/../../../../../H-x86_64-pc-linux-gnu/nios2-elf/lib/libc.a(lib_a-mprec.o)
                0x000000000800e00c                _mprec_log10
 .text.__copybits
                0x000000000800e07c       0x6c /home/tom/intelFPGA_lite/20.1/nios2eds/bin/gnu/H-x86_64-pc-linux-gnu/bin/../lib/gcc/nios2-elf/9.2.1/../../../../../H-x86_64-pc-linux-gnu/nios2-elf/lib/libc.a(lib_a-mprec.o)
                0x000000000800e07c                __copybits
 .text.__any_on
                0x000000000800e0e8       0x60 /home/tom/intelFPGA_lite/20.1/nios2eds/bin/gnu/H-x86_64-pc-linux-gnu/bin/../lib/gcc/nios2-elf/9.2.1/../../../../../H-x86_64-pc-linux-gnu/nios2-elf/lib/libc.a(lib_a-mprec.o)
                0x000000000800e0e8                __any_on
 .text          0x000000000800e148        0x0 /home/tom/intelFPGA_lite/20.1/nios2eds/bin/gnu/H-x86_64-pc-linux-gnu/bin/../lib/gcc/nios2-elf/9.2.1/../../../../../H-x86_64-pc-linux-gnu/nios2-elf/lib/libc.a(lib_a-putc.o)
 .text._putc_r  0x000000000800e148       0xcc /home/tom/intelFPGA_lite/20.1/nios2eds/bin/gnu/H-x86_64-pc-linux-gnu/bin/../lib/gcc/nios2-elf/9.2.1/../../../../../H-x86_64-pc-linux-gnu/nios2-elf/lib/libc.a(lib_a-putc.o)
                0x000000000800e148                _putc_r
 .text.putc     0x000000000800e214       0xe0 /home/tom/intelFPGA_lite/20.1/nios2eds/bin/gnu/H-x86_64-pc-linux-gnu/bin/../lib/gcc/nios2-elf/9.2.1/../../../../../H-x86_64-pc-linux-gnu/nios2-elf/lib/libc.a(lib_a-putc.o)
                0x000000000800e214                putc
 .text          0x000000000800e2f4        0x0 /home/tom/intelFPGA_lite/20.1/nios2eds/bin/gnu/H-x86_64-pc-linux-gnu/bin/../lib/gcc/nios2-elf/9.2.1/../../../../../H-x86_64-pc-linux-gnu/nios2-elf/lib/libc.a(lib_a-reallocr.o)
 .text._realloc_r
                0x000000000800e2f4      0x564 /home/tom/intelFPGA_lite/20.1/nios2eds/bin/gnu/H-x86_64-pc-linux-gnu/bin/../lib/gcc/nios2-elf/9.2.1/../../../../../H-x86_64-pc-linux-gnu/nios2-elf/lib/libc.a(lib_a-reallocr.o)
                0x000000000800e2f4                _realloc_r
 .text          0x000000000800e858        0x0 /home/tom/intelFPGA_lite/20.1/nios2eds/bin/gnu/H-x86_64-pc-linux-gnu/bin/../lib/gcc/nios2-elf/9.2.1/../../../../../H-x86_64-pc-linux-gnu/nios2-elf/lib/libc.a(lib_a-rget.o)
 .text.__srget_r
                0x000000000800e858       0x74 /home/tom/intelFPGA_lite/20.1/nios2eds/bin/gnu/H-x86_64-pc-linux-gnu/bin/../lib/gcc/nios2-elf/9.2.1/../../../../../H-x86_64-pc-linux-gnu/nios2-elf/lib/libc.a(lib_a-rget.o)
                0x000000000800e858                __srget_r
 .text.__srget  0x000000000800e8cc       0x10 /home/tom/intelFPGA_lite/20.1/nios2eds/bin/gnu/H-x86_64-pc-linux-gnu/bin/../lib/gcc/nios2-elf/9.2.1/../../../../../H-x86_64-pc-linux-gnu/nios2-elf/lib/libc.a(lib_a-rget.o)
                0x000000000800e8cc                __srget
 .text          0x000000000800e8dc        0x0 /home/tom/intelFPGA_lite/20.1/nios2eds/bin/gnu/H-x86_64-pc-linux-gnu/bin/../lib/gcc/nios2-elf/9.2.1/../../../../../H-x86_64-pc-linux-gnu/nios2-elf/lib/libc.a(lib_a-sbrkr.o)
 .text._sbrk_r  0x000000000800e8dc       0x58 /home/tom/intelFPGA_lite/20.1/nios2eds/bin/gnu/H-x86_64-pc-linux-gnu/bin/../lib/gcc/nios2-elf/9.2.1/../../../../../H-x86_64-pc-linux-gnu/nios2-elf/lib/libc.a(lib_a-sbrkr.o)
                0x000000000800e8dc                _sbrk_r
 .text          0x000000000800e934        0x0 /home/tom/intelFPGA_lite/20.1/nios2eds/bin/gnu/H-x86_64-pc-linux-gnu/bin/../lib/gcc/nios2-elf/9.2.1/../../../../../H-x86_64-pc-linux-gnu/nios2-elf/lib/libc.a(lib_a-stdio.o)
 .text.__sread  0x000000000800e934       0x54 /home/tom/intelFPGA_lite/20.1/nios2eds/bin/gnu/H-x86_64-pc-linux-gnu/bin/../lib/gcc/nios2-elf/9.2.1/../../../../../H-x86_64-pc-linux-gnu/nios2-elf/lib/libc.a(lib_a-stdio.o)
                0x000000000800e934                __sread
 .text.__seofread
                0x000000000800e988        0x8 /home/tom/intelFPGA_lite/20.1/nios2eds/bin/gnu/H-x86_64-pc-linux-gnu/bin/../lib/gcc/nios2-elf/9.2.1/../../../../../H-x86_64-pc-linux-gnu/nios2-elf/lib/libc.a(lib_a-stdio.o)
                0x000000000800e988                __seofread
 .text.__swrite
                0x000000000800e990       0x80 /home/tom/intelFPGA_lite/20.1/nios2eds/bin/gnu/H-x86_64-pc-linux-gnu/bin/../lib/gcc/nios2-elf/9.2.1/../../../../../H-x86_64-pc-linux-gnu/nios2-elf/lib/libc.a(lib_a-stdio.o)
                0x000000000800e990                __swrite
 .text.__sseek  0x000000000800ea10       0x5c /home/tom/intelFPGA_lite/20.1/nios2eds/bin/gnu/H-x86_64-pc-linux-gnu/bin/../lib/gcc/nios2-elf/9.2.1/../../../../../H-x86_64-pc-linux-gnu/nios2-elf/lib/libc.a(lib_a-stdio.o)
                0x000000000800ea10                __sseek
 .text.__sclose
                0x000000000800ea6c        0x8 /home/tom/intelFPGA_lite/20.1/nios2eds/bin/gnu/H-x86_64-pc-linux-gnu/bin/../lib/gcc/nios2-elf/9.2.1/../../../../../H-x86_64-pc-linux-gnu/nios2-elf/lib/libc.a(lib_a-stdio.o)
                0x000000000800ea6c                __sclose
 .text          0x000000000800ea74        0x0 /home/tom/intelFPGA_lite/20.1/nios2eds/bin/gnu/H-x86_64-pc-linux-gnu/bin/../lib/gcc/nios2-elf/9.2.1/../../../../../H-x86_64-pc-linux-gnu/nios2-elf/lib/libc.a(lib_a-svfiprintf.o)
 .text.__ssprint_r
                0x000000000800ea74      0x1c0 /home/tom/intelFPGA_lite/20.1/nios2eds/bin/gnu/H-x86_64-pc-linux-gnu/bin/../lib/gcc/nios2-elf/9.2.1/../../../../../H-x86_64-pc-linux-gnu/nios2-elf/lib/libc.a(lib_a-svfiprintf.o)
                0x000000000800ea74                __ssprint_r
 .text.___svfiprintf_internal_r
                0x000000000800ec34     0x10e4 /home/tom/intelFPGA_lite/20.1/nios2eds/bin/gnu/H-x86_64-pc-linux-gnu/bin/../lib/gcc/nios2-elf/9.2.1/../../../../../H-x86_64-pc-linux-gnu/nios2-elf/lib/libc.a(lib_a-svfiprintf.o)
                0x000000000800ec34                ___svfiprintf_internal_r
 .text          0x000000000800fd18        0x0 /home/tom/intelFPGA_lite/20.1/nios2eds/bin/gnu/H-x86_64-pc-linux-gnu/bin/../lib/gcc/nios2-elf/9.2.1/../../../../../H-x86_64-pc-linux-gnu/nios2-elf/lib/libc.a(lib_a-vfiprintf.o)
 .text.__sprint_r.part.0
                0x000000000800fd18       0xf4 /home/tom/intelFPGA_lite/20.1/nios2eds/bin/gnu/H-x86_64-pc-linux-gnu/bin/../lib/gcc/nios2-elf/9.2.1/../../../../../H-x86_64-pc-linux-gnu/nios2-elf/lib/libc.a(lib_a-vfiprintf.o)
 .text.__sprint_r
                0x000000000800fe0c       0x18 /home/tom/intelFPGA_lite/20.1/nios2eds/bin/gnu/H-x86_64-pc-linux-gnu/bin/../lib/gcc/nios2-elf/9.2.1/../../../../../H-x86_64-pc-linux-gnu/nios2-elf/lib/libc.a(lib_a-vfiprintf.o)
                0x000000000800fe0c                __sprint_r
 .text.___vfiprintf_internal_r
                0x000000000800fe24     0x1304 /home/tom/intelFPGA_lite/20.1/nios2eds/bin/gnu/H-x86_64-pc-linux-gnu/bin/../lib/gcc/nios2-elf/9.2.1/../../../../../H-x86_64-pc-linux-gnu/nios2-elf/lib/libc.a(lib_a-vfiprintf.o)
                0x000000000800fe24                ___vfiprintf_internal_r
 .text.__vfiprintf_internal
                0x0000000008011128       0x1c /home/tom/intelFPGA_lite/20.1/nios2eds/bin/gnu/H-x86_64-pc-linux-gnu/bin/../lib/gcc/nios2-elf/9.2.1/../../../../../H-x86_64-pc-linux-gnu/nios2-elf/lib/libc.a(lib_a-vfiprintf.o)
                0x0000000008011128                __vfiprintf_internal
 .text.__sbprintf
                0x0000000008011144       0xc0 /home/tom/intelFPGA_lite/20.1/nios2eds/bin/gnu/H-x86_64-pc-linux-gnu/bin/../lib/gcc/nios2-elf/9.2.1/../../../../../H-x86_64-pc-linux-gnu/nios2-elf/lib/libc.a(lib_a-vfiprintf.o)
 .text          0x0000000008011204        0x0 /home/tom/intelFPGA_lite/20.1/nios2eds/bin/gnu/H-x86_64-pc-linux-gnu/bin/../lib/gcc/nios2-elf/9.2.1/../../../../../H-x86_64-pc-linux-gnu/nios2-elf/lib/libc.a(lib_a-wbuf.o)
 .text.__swbuf_r
                0x0000000008011204      0x148 /home/tom/intelFPGA_lite/20.1/nios2eds/bin/gnu/H-x86_64-pc-linux-gnu/bin/../lib/gcc/nios2-elf/9.2.1/../../../../../H-x86_64-pc-linux-gnu/nios2-elf/lib/libc.a(lib_a-wbuf.o)
                0x0000000008011204                __swbuf_r
 .text.__swbuf  0x000000000801134c       0x18 /home/tom/intelFPGA_lite/20.1/nios2eds/bin/gnu/H-x86_64-pc-linux-gnu/bin/../lib/gcc/nios2-elf/9.2.1/../../../../../H-x86_64-pc-linux-gnu/nios2-elf/lib/libc.a(lib_a-wbuf.o)
                0x000000000801134c                __swbuf
 .text          0x0000000008011364        0x0 /home/tom/intelFPGA_lite/20.1/nios2eds/bin/gnu/H-x86_64-pc-linux-gnu/bin/../lib/gcc/nios2-elf/9.2.1/../../../../../H-x86_64-pc-linux-gnu/nios2-elf/lib/libc.a(closer.o)
 .text._close_r
                0x0000000008011364       0x58 /home/tom/intelFPGA_lite/20.1/nios2eds/bin/gnu/H-x86_64-pc-linux-gnu/bin/../lib/gcc/nios2-elf/9.2.1/../../../../../H-x86_64-pc-linux-gnu/nios2-elf/lib/libc.a(closer.o)
                0x0000000008011364                _close_r
 .text          0x00000000080113bc        0x0 /home/tom/intelFPGA_lite/20.1/nios2eds/bin/gnu/H-x86_64-pc-linux-gnu/bin/../lib/gcc/nios2-elf/9.2.1/../../../../../H-x86_64-pc-linux-gnu/nios2-elf/lib/libc.a(lib_a-assert.o)
 .text.__assert_func
                0x00000000080113bc       0x64 /home/tom/intelFPGA_lite/20.1/nios2eds/bin/gnu/H-x86_64-pc-linux-gnu/bin/../lib/gcc/nios2-elf/9.2.1/../../../../../H-x86_64-pc-linux-gnu/nios2-elf/lib/libc.a(lib_a-assert.o)
                0x00000000080113bc                __assert_func
 .text.__assert
                0x0000000008011420       0x14 /home/tom/intelFPGA_lite/20.1/nios2eds/bin/gnu/H-x86_64-pc-linux-gnu/bin/../lib/gcc/nios2-elf/9.2.1/../../../../../H-x86_64-pc-linux-gnu/nios2-elf/lib/libc.a(lib_a-assert.o)
                0x0000000008011420                __assert
 .text          0x0000000008011434        0x0 /home/tom/intelFPGA_lite/20.1/nios2eds/bin/gnu/H-x86_64-pc-linux-gnu/bin/../lib/gcc/nios2-elf/9.2.1/../../../../../H-x86_64-pc-linux-gnu/nios2-elf/lib/libc.a(lib_a-callocr.o)
 .text._calloc_r
                0x0000000008011434       0xb4 /home/tom/intelFPGA_lite/20.1/nios2eds/bin/gnu/H-x86_64-pc-linux-gnu/bin/../lib/gcc/nios2-elf/9.2.1/../../../../../H-x86_64-pc-linux-gnu/nios2-elf/lib/libc.a(lib_a-callocr.o)
                0x0000000008011434                _calloc_r
 .text          0x00000000080114e8        0x0 /home/tom/intelFPGA_lite/20.1/nios2eds/bin/gnu/H-x86_64-pc-linux-gnu/bin/../lib/gcc/nios2-elf/9.2.1/../../../../../H-x86_64-pc-linux-gnu/nios2-elf/lib/libc.a(lib_a-fclose.o)
 .text._fclose_r
                0x00000000080114e8       0xf8 /home/tom/intelFPGA_lite/20.1/nios2eds/bin/gnu/H-x86_64-pc-linux-gnu/bin/../lib/gcc/nios2-elf/9.2.1/../../../../../H-x86_64-pc-linux-gnu/nios2-elf/lib/libc.a(lib_a-fclose.o)
                0x00000000080114e8                _fclose_r
 .text.fclose   0x00000000080115e0       0x10 /home/tom/intelFPGA_lite/20.1/nios2eds/bin/gnu/H-x86_64-pc-linux-gnu/bin/../lib/gcc/nios2-elf/9.2.1/../../../../../H-x86_64-pc-linux-gnu/nios2-elf/lib/libc.a(lib_a-fclose.o)
                0x00000000080115e0                fclose
 .text          0x00000000080115f0        0x0 /home/tom/intelFPGA_lite/20.1/nios2eds/bin/gnu/H-x86_64-pc-linux-gnu/bin/../lib/gcc/nios2-elf/9.2.1/../../../../../H-x86_64-pc-linux-gnu/nios2-elf/lib/libc.a(lib_a-fiprintf.o)
 .text._fiprintf_r
                0x00000000080115f0       0x20 /home/tom/intelFPGA_lite/20.1/nios2eds/bin/gnu/H-x86_64-pc-linux-gnu/bin/../lib/gcc/nios2-elf/9.2.1/../../../../../H-x86_64-pc-linux-gnu/nios2-elf/lib/libc.a(lib_a-fiprintf.o)
                0x00000000080115f0                _fiprintf_r
 .text.fiprintf
                0x0000000008011610       0x38 /home/tom/intelFPGA_lite/20.1/nios2eds/bin/gnu/H-x86_64-pc-linux-gnu/bin/../lib/gcc/nios2-elf/9.2.1/../../../../../H-x86_64-pc-linux-gnu/nios2-elf/lib/libc.a(lib_a-fiprintf.o)
                0x0000000008011610                fiprintf
 .text          0x0000000008011648        0x0 /home/tom/intelFPGA_lite/20.1/nios2eds/bin/gnu/H-x86_64-pc-linux-gnu/bin/../lib/gcc/nios2-elf/9.2.1/../../../../../H-x86_64-pc-linux-gnu/nios2-elf/lib/libc.a(lib_a-fputwc.o)
 .text.__fputwc
                0x0000000008011648      0x164 /home/tom/intelFPGA_lite/20.1/nios2eds/bin/gnu/H-x86_64-pc-linux-gnu/bin/../lib/gcc/nios2-elf/9.2.1/../../../../../H-x86_64-pc-linux-gnu/nios2-elf/lib/libc.a(lib_a-fputwc.o)
                0x0000000008011648                __fputwc
 .text._fputwc_r
                0x00000000080117ac       0x24 /home/tom/intelFPGA_lite/20.1/nios2eds/bin/gnu/H-x86_64-pc-linux-gnu/bin/../lib/gcc/nios2-elf/9.2.1/../../../../../H-x86_64-pc-linux-gnu/nios2-elf/lib/libc.a(lib_a-fputwc.o)
                0x00000000080117ac                _fputwc_r
 .text.fputwc   0x00000000080117d0       0x78 /home/tom/intelFPGA_lite/20.1/nios2eds/bin/gnu/H-x86_64-pc-linux-gnu/bin/../lib/gcc/nios2-elf/9.2.1/../../../../../H-x86_64-pc-linux-gnu/nios2-elf/lib/libc.a(lib_a-fputwc.o)
                0x00000000080117d0                fputwc
 .text          0x0000000008011848        0x0 /home/tom/intelFPGA_lite/20.1/nios2eds/bin/gnu/H-x86_64-pc-linux-gnu/bin/../lib/gcc/nios2-elf/9.2.1/../../../../../H-x86_64-pc-linux-gnu/nios2-elf/lib/libc.a(lib_a-fstatr.o)
 .text._fstat_r
                0x0000000008011848       0x60 /home/tom/intelFPGA_lite/20.1/nios2eds/bin/gnu/H-x86_64-pc-linux-gnu/bin/../lib/gcc/nios2-elf/9.2.1/../../../../../H-x86_64-pc-linux-gnu/nios2-elf/lib/libc.a(lib_a-fstatr.o)
                0x0000000008011848                _fstat_r
 .text          0x00000000080118a8        0x0 /home/tom/intelFPGA_lite/20.1/nios2eds/bin/gnu/H-x86_64-pc-linux-gnu/bin/../lib/gcc/nios2-elf/9.2.1/../../../../../H-x86_64-pc-linux-gnu/nios2-elf/lib/libc.a(lib_a-isattyr.o)
 .text._isatty_r
                0x00000000080118a8       0x58 /home/tom/intelFPGA_lite/20.1/nios2eds/bin/gnu/H-x86_64-pc-linux-gnu/bin/../lib/gcc/nios2-elf/9.2.1/../../../../../H-x86_64-pc-linux-gnu/nios2-elf/lib/libc.a(lib_a-isattyr.o)
                0x00000000080118a8                _isatty_r
 .text          0x0000000008011900        0x0 /home/tom/intelFPGA_lite/20.1/nios2eds/bin/gnu/H-x86_64-pc-linux-gnu/bin/../lib/gcc/nios2-elf/9.2.1/../../../../../H-x86_64-pc-linux-gnu/nios2-elf/lib/libc.a(lib_a-locale.o)
 .text._setlocale_r
                0x0000000008011900       0x74 /home/tom/intelFPGA_lite/20.1/nios2eds/bin/gnu/H-x86_64-pc-linux-gnu/bin/../lib/gcc/nios2-elf/9.2.1/../../../../../H-x86_64-pc-linux-gnu/nios2-elf/lib/libc.a(lib_a-locale.o)
                0x0000000008011900                _setlocale_r
 .text.__locale_mb_cur_max
                0x0000000008011974        0xc /home/tom/intelFPGA_lite/20.1/nios2eds/bin/gnu/H-x86_64-pc-linux-gnu/bin/../lib/gcc/nios2-elf/9.2.1/../../../../../H-x86_64-pc-linux-gnu/nios2-elf/lib/libc.a(lib_a-locale.o)
                0x0000000008011974                __locale_mb_cur_max
 .text.setlocale
                0x0000000008011980       0x18 /home/tom/intelFPGA_lite/20.1/nios2eds/bin/gnu/H-x86_64-pc-linux-gnu/bin/../lib/gcc/nios2-elf/9.2.1/../../../../../H-x86_64-pc-linux-gnu/nios2-elf/lib/libc.a(lib_a-locale.o)
                0x0000000008011980                setlocale
 .text          0x0000000008011998        0x0 /home/tom/intelFPGA_lite/20.1/nios2eds/bin/gnu/H-x86_64-pc-linux-gnu/bin/../lib/gcc/nios2-elf/9.2.1/../../../../../H-x86_64-pc-linux-gnu/nios2-elf/lib/libc.a(lib_a-lseekr.o)
 .text._lseek_r
                0x0000000008011998       0x64 /home/tom/intelFPGA_lite/20.1/nios2eds/bin/gnu/H-x86_64-pc-linux-gnu/bin/../lib/gcc/nios2-elf/9.2.1/../../../../../H-x86_64-pc-linux-gnu/nios2-elf/lib/libc.a(lib_a-lseekr.o)
                0x0000000008011998                _lseek_r
 .text          0x00000000080119fc        0x0 /home/tom/intelFPGA_lite/20.1/nios2eds/bin/gnu/H-x86_64-pc-linux-gnu/bin/../lib/gcc/nios2-elf/9.2.1/../../../../../H-x86_64-pc-linux-gnu/nios2-elf/lib/libc.a(lib_a-mbtowc_r.o)
 .text._mbtowc_r
                0x00000000080119fc        0xc /home/tom/intelFPGA_lite/20.1/nios2eds/bin/gnu/H-x86_64-pc-linux-gnu/bin/../lib/gcc/nios2-elf/9.2.1/../../../../../H-x86_64-pc-linux-gnu/nios2-elf/lib/libc.a(lib_a-mbtowc_r.o)
                0x00000000080119fc                _mbtowc_r
 .text.__ascii_mbtowc
                0x0000000008011a08       0x44 /home/tom/intelFPGA_lite/20.1/nios2eds/bin/gnu/H-x86_64-pc-linux-gnu/bin/../lib/gcc/nios2-elf/9.2.1/../../../../../H-x86_64-pc-linux-gnu/nios2-elf/lib/libc.a(lib_a-mbtowc_r.o)
                0x0000000008011a08                __ascii_mbtowc
 .text          0x0000000008011a4c        0x0 /home/tom/intelFPGA_lite/20.1/nios2eds/bin/gnu/H-x86_64-pc-linux-gnu/bin/../lib/gcc/nios2-elf/9.2.1/../../../../../H-x86_64-pc-linux-gnu/nios2-elf/lib/libc.a(lib_a-readr.o)
 .text._read_r  0x0000000008011a4c       0x64 /home/tom/intelFPGA_lite/20.1/nios2eds/bin/gnu/H-x86_64-pc-linux-gnu/bin/../lib/gcc/nios2-elf/9.2.1/../../../../../H-x86_64-pc-linux-gnu/nios2-elf/lib/libc.a(lib_a-readr.o)
                0x0000000008011a4c                _read_r
 .text          0x0000000008011ab0        0x0 /home/tom/intelFPGA_lite/20.1/nios2eds/bin/gnu/H-x86_64-pc-linux-gnu/bin/../lib/gcc/nios2-elf/9.2.1/../../../../../H-x86_64-pc-linux-gnu/nios2-elf/lib/libc.a(lib_a-refill.o)
 .text.lflush   0x0000000008011ab0       0x1c /home/tom/intelFPGA_lite/20.1/nios2eds/bin/gnu/H-x86_64-pc-linux-gnu/bin/../lib/gcc/nios2-elf/9.2.1/../../../../../H-x86_64-pc-linux-gnu/nios2-elf/lib/libc.a(lib_a-refill.o)
 .text.__srefill_r
                0x0000000008011acc      0x1cc /home/tom/intelFPGA_lite/20.1/nios2eds/bin/gnu/H-x86_64-pc-linux-gnu/bin/../lib/gcc/nios2-elf/9.2.1/../../../../../H-x86_64-pc-linux-gnu/nios2-elf/lib/libc.a(lib_a-refill.o)
                0x0000000008011acc                __srefill_r
 .text          0x0000000008011c98        0x0 /home/tom/intelFPGA_lite/20.1/nios2eds/bin/gnu/H-x86_64-pc-linux-gnu/bin/../lib/gcc/nios2-elf/9.2.1/../../../../../H-x86_64-pc-linux-gnu/nios2-elf/lib/libc.a(lib_a-strcmp.o)
 .text.strcmp   0x0000000008011c98       0xb8 /home/tom/intelFPGA_lite/20.1/nios2eds/bin/gnu/H-x86_64-pc-linux-gnu/bin/../lib/gcc/nios2-elf/9.2.1/../../../../../H-x86_64-pc-linux-gnu/nios2-elf/lib/libc.a(lib_a-strcmp.o)
                0x0000000008011c98                strcmp
 .text          0x0000000008011d50        0x0 /home/tom/intelFPGA_lite/20.1/nios2eds/bin/gnu/H-x86_64-pc-linux-gnu/bin/../lib/gcc/nios2-elf/9.2.1/../../../../../H-x86_64-pc-linux-gnu/nios2-elf/lib/libc.a(lib_a-vfiprintfr_1.o)
 .text._vfiprintf_r
                0x0000000008011d50        0x4 /home/tom/intelFPGA_lite/20.1/nios2eds/bin/gnu/H-x86_64-pc-linux-gnu/bin/../lib/gcc/nios2-elf/9.2.1/../../../../../H-x86_64-pc-linux-gnu/nios2-elf/lib/libc.a(lib_a-vfiprintfr_1.o)
                0x0000000008011d50                _vfiprintf_r
 .text          0x0000000008011d54        0x0 /home/tom/intelFPGA_lite/20.1/nios2eds/bin/gnu/H-x86_64-pc-linux-gnu/bin/../lib/gcc/nios2-elf/9.2.1/../../../../../H-x86_64-pc-linux-gnu/nios2-elf/lib/libc.a(lib_a-wcrtomb.o)
 .text._wcrtomb_r
                0x0000000008011d54       0x6c /home/tom/intelFPGA_lite/20.1/nios2eds/bin/gnu/H-x86_64-pc-linux-gnu/bin/../lib/gcc/nios2-elf/9.2.1/../../../../../H-x86_64-pc-linux-gnu/nios2-elf/lib/libc.a(lib_a-wcrtomb.o)
                0x0000000008011d54                _wcrtomb_r
 .text.wcrtomb  0x0000000008011dc0       0x88 /home/tom/intelFPGA_lite/20.1/nios2eds/bin/gnu/H-x86_64-pc-linux-gnu/bin/../lib/gcc/nios2-elf/9.2.1/../../../../../H-x86_64-pc-linux-gnu/nios2-elf/lib/libc.a(lib_a-wcrtomb.o)
                0x0000000008011dc0                wcrtomb
 .text          0x0000000008011e48        0x0 /home/tom/intelFPGA_lite/20.1/nios2eds/bin/gnu/H-x86_64-pc-linux-gnu/bin/../lib/gcc/nios2-elf/9.2.1/../../../../../H-x86_64-pc-linux-gnu/nios2-elf/lib/libc.a(lib_a-wctomb_r.o)
 .text._wctomb_r
                0x0000000008011e48        0xc /home/tom/intelFPGA_lite/20.1/nios2eds/bin/gnu/H-x86_64-pc-linux-gnu/bin/../lib/gcc/nios2-elf/9.2.1/../../../../../H-x86_64-pc-linux-gnu/nios2-elf/lib/libc.a(lib_a-wctomb_r.o)
                0x0000000008011e48                _wctomb_r
 .text.__ascii_wctomb
                0x0000000008011e54       0x30 /home/tom/intelFPGA_lite/20.1/nios2eds/bin/gnu/H-x86_64-pc-linux-gnu/bin/../lib/gcc/nios2-elf/9.2.1/../../../../../H-x86_64-pc-linux-gnu/nios2-elf/lib/libc.a(lib_a-wctomb_r.o)
                0x0000000008011e54                __ascii_wctomb
 .text          0x0000000008011e84        0x0 /home/tom/intelFPGA_lite/20.1/nios2eds/bin/gnu/H-x86_64-pc-linux-gnu/bin/../lib/gcc/nios2-elf/9.2.1/../../../../../H-x86_64-pc-linux-gnu/nios2-elf/lib/libc.a(lib_a-abort.o)
 .text.unlikely.abort
                0x0000000008011e84       0x18 /home/tom/intelFPGA_lite/20.1/nios2eds/bin/gnu/H-x86_64-pc-linux-gnu/bin/../lib/gcc/nios2-elf/9.2.1/../../../../../H-x86_64-pc-linux-gnu/nios2-elf/lib/libc.a(lib_a-abort.o)
                0x0000000008011e84                abort
 .text          0x0000000008011e9c        0x0 /home/tom/intelFPGA_lite/20.1/nios2eds/bin/gnu/H-x86_64-pc-linux-gnu/bin/../lib/gcc/nios2-elf/9.2.1/../../../../../H-x86_64-pc-linux-gnu/nios2-elf/lib/libc.a(lib_a-signal.o)
 .text._init_signal_r.part.0
                0x0000000008011e9c       0x4c /home/tom/intelFPGA_lite/20.1/nios2eds/bin/gnu/H-x86_64-pc-linux-gnu/bin/../lib/gcc/nios2-elf/9.2.1/../../../../../H-x86_64-pc-linux-gnu/nios2-elf/lib/libc.a(lib_a-signal.o)
 .text._init_signal_r
                0x0000000008011ee8       0x14 /home/tom/intelFPGA_lite/20.1/nios2eds/bin/gnu/H-x86_64-pc-linux-gnu/bin/../lib/gcc/nios2-elf/9.2.1/../../../../../H-x86_64-pc-linux-gnu/nios2-elf/lib/libc.a(lib_a-signal.o)
                0x0000000008011ee8                _init_signal_r
 .text._signal_r
                0x0000000008011efc       0x84 /home/tom/intelFPGA_lite/20.1/nios2eds/bin/gnu/H-x86_64-pc-linux-gnu/bin/../lib/gcc/nios2-elf/9.2.1/../../../../../H-x86_64-pc-linux-gnu/nios2-elf/lib/libc.a(lib_a-signal.o)
                0x0000000008011efc                _signal_r
 .text._raise_r
                0x0000000008011f80       0xc4 /home/tom/intelFPGA_lite/20.1/nios2eds/bin/gnu/H-x86_64-pc-linux-gnu/bin/../lib/gcc/nios2-elf/9.2.1/../../../../../H-x86_64-pc-linux-gnu/nios2-elf/lib/libc.a(lib_a-signal.o)
                0x0000000008011f80                _raise_r
 .text.__sigtramp_r
                0x0000000008012044       0xb8 /home/tom/intelFPGA_lite/20.1/nios2eds/bin/gnu/H-x86_64-pc-linux-gnu/bin/../lib/gcc/nios2-elf/9.2.1/../../../../../H-x86_64-pc-linux-gnu/nios2-elf/lib/libc.a(lib_a-signal.o)
                0x0000000008012044                __sigtramp_r
 .text.raise    0x00000000080120fc       0x10 /home/tom/intelFPGA_lite/20.1/nios2eds/bin/gnu/H-x86_64-pc-linux-gnu/bin/../lib/gcc/nios2-elf/9.2.1/../../../../../H-x86_64-pc-linux-gnu/nios2-elf/lib/libc.a(lib_a-signal.o)
                0x00000000080120fc                raise
 .text.signal   0x000000000801210c       0x18 /home/tom/intelFPGA_lite/20.1/nios2eds/bin/gnu/H-x86_64-pc-linux-gnu/bin/../lib/gcc/nios2-elf/9.2.1/../../../../../H-x86_64-pc-linux-gnu/nios2-elf/lib/libc.a(lib_a-signal.o)
                0x000000000801210c                signal
 .text._init_signal
                0x0000000008012124       0x1c /home/tom/intelFPGA_lite/20.1/nios2eds/bin/gnu/H-x86_64-pc-linux-gnu/bin/../lib/gcc/nios2-elf/9.2.1/../../../../../H-x86_64-pc-linux-gnu/nios2-elf/lib/libc.a(lib_a-signal.o)
                0x0000000008012124                _init_signal
 .text.__sigtramp
                0x0000000008012140       0x10 /home/tom/intelFPGA_lite/20.1/nios2eds/bin/gnu/H-x86_64-pc-linux-gnu/bin/../lib/gcc/nios2-elf/9.2.1/../../../../../H-x86_64-pc-linux-gnu/nios2-elf/lib/libc.a(lib_a-signal.o)
                0x0000000008012140                __sigtramp
 .text          0x0000000008012150        0x0 /home/tom/intelFPGA_lite/20.1/nios2eds/bin/gnu/H-x86_64-pc-linux-gnu/bin/../lib/gcc/nios2-elf/9.2.1/../../../../../H-x86_64-pc-linux-gnu/nios2-elf/lib/libc.a(lib_a-signalr.o)
 .text._kill_r  0x0000000008012150       0x60 /home/tom/intelFPGA_lite/20.1/nios2eds/bin/gnu/H-x86_64-pc-linux-gnu/bin/../lib/gcc/nios2-elf/9.2.1/../../../../../H-x86_64-pc-linux-gnu/nios2-elf/lib/libc.a(lib_a-signalr.o)
                0x0000000008012150                _kill_r
 .text._getpid_r
                0x00000000080121b0        0x4 /home/tom/intelFPGA_lite/20.1/nios2eds/bin/gnu/H-x86_64-pc-linux-gnu/bin/../lib/gcc/nios2-elf/9.2.1/../../../../../H-x86_64-pc-linux-gnu/nios2-elf/lib/libc.a(lib_a-signalr.o)
                0x00000000080121b0                _getpid_r
 .text          0x00000000080121b4      0x590 /home/tom/intelFPGA_lite/20.1/nios2eds/bin/gnu/H-x86_64-pc-linux-gnu/bin/../lib/gcc/nios2-elf/9.2.1/libgcc.a(_udivdi3.o)
                0x00000000080121b4                __udivdi3
 .text          0x0000000008012744      0x534 /home/tom/intelFPGA_lite/20.1/nios2eds/bin/gnu/H-x86_64-pc-linux-gnu/bin/../lib/gcc/nios2-elf/9.2.1/libgcc.a(_umoddi3.o)
                0x0000000008012744                __umoddi3
 .text          0x0000000008012c78      0x1b4 /home/tom/intelFPGA_lite/20.1/nios2eds/bin/gnu/H-x86_64-pc-linux-gnu/bin/../lib/gcc/nios2-elf/9.2.1/libgcc.a(lib2-divmod.o)
                0x0000000008012c78                __divsi3
                0x0000000008012cf8                __modsi3
                0x0000000008012d6c                __udivsi3
                0x0000000008012dd0                __umodsi3
 .text          0x0000000008012e2c      0x978 /home/tom/intelFPGA_lite/20.1/nios2eds/bin/gnu/H-x86_64-pc-linux-gnu/bin/../lib/gcc/nios2-elf/9.2.1/libgcc.a(adddf3.o)
                0x0000000008012e2c                __adddf3
 .text          0x00000000080137a4      0x860 /home/tom/intelFPGA_lite/20.1/nios2eds/bin/gnu/H-x86_64-pc-linux-gnu/bin/../lib/gcc/nios2-elf/9.2.1/libgcc.a(divdf3.o)
                0x00000000080137a4                __divdf3
 .text          0x0000000008014004       0x80 /home/tom/intelFPGA_lite/20.1/nios2eds/bin/gnu/H-x86_64-pc-linux-gnu/bin/../lib/gcc/nios2-elf/9.2.1/libgcc.a(eqdf2.o)
                0x0000000008014004                __eqdf2
                0x0000000008014004                __nedf2
 .text          0x0000000008014084       0xf0 /home/tom/intelFPGA_lite/20.1/nios2eds/bin/gnu/H-x86_64-pc-linux-gnu/bin/../lib/gcc/nios2-elf/9.2.1/libgcc.a(gedf2.o)
                0x0000000008014084                __gtdf2
                0x0000000008014084                __gedf2
 .text          0x0000000008014174       0xf0 /home/tom/intelFPGA_lite/20.1/nios2eds/bin/gnu/H-x86_64-pc-linux-gnu/bin/../lib/gcc/nios2-elf/9.2.1/libgcc.a(ledf2.o)
                0x0000000008014174                __ltdf2
                0x0000000008014174                __ledf2
 .text          0x0000000008014264      0x670 /home/tom/intelFPGA_lite/20.1/nios2eds/bin/gnu/H-x86_64-pc-linux-gnu/bin/../lib/gcc/nios2-elf/9.2.1/libgcc.a(muldf3.o)
                0x0000000008014264                __muldf3
 .text          0x00000000080148d4      0x934 /home/tom/intelFPGA_lite/20.1/nios2eds/bin/gnu/H-x86_64-pc-linux-gnu/bin/../lib/gcc/nios2-elf/9.2.1/libgcc.a(subdf3.o)
                0x00000000080148d4                __subdf3
 .text          0x0000000008015208       0x54 /home/tom/intelFPGA_lite/20.1/nios2eds/bin/gnu/H-x86_64-pc-linux-gnu/bin/../lib/gcc/nios2-elf/9.2.1/libgcc.a(unorddf2.o)
                0x0000000008015208                __unorddf2
 .text          0x000000000801525c       0x80 /home/tom/intelFPGA_lite/20.1/nios2eds/bin/gnu/H-x86_64-pc-linux-gnu/bin/../lib/gcc/nios2-elf/9.2.1/libgcc.a(fixdfsi.o)
                0x000000000801525c                __fixdfsi
 .text          0x00000000080152dc       0xbc /home/tom/intelFPGA_lite/20.1/nios2eds/bin/gnu/H-x86_64-pc-linux-gnu/bin/../lib/gcc/nios2-elf/9.2.1/libgcc.a(floatsidf.o)
                0x00000000080152dc                __floatsidf
 .text          0x0000000008015398       0x90 /home/tom/intelFPGA_lite/20.1/nios2eds/bin/gnu/H-x86_64-pc-linux-gnu/bin/../lib/gcc/nios2-elf/9.2.1/libgcc.a(floatunsidf.o)
                0x0000000008015398                __floatunsidf
 .text          0x0000000008015428        0x0 /home/tom/intelFPGA_lite/20.1/nios2eds/bin/gnu/H-x86_64-pc-linux-gnu/bin/../lib/gcc/nios2-elf/9.2.1/libgcc.a(_clz.o)
 .text          0x0000000008015428       0x54 /home/tom/intelFPGA_lite/20.1/nios2eds/bin/gnu/H-x86_64-pc-linux-gnu/bin/../lib/gcc/nios2-elf/9.2.1/libgcc.a(_clzsi2.o)
                0x0000000008015428                __clzsi2
 .text          0x000000000801547c       0x38 ../MOD_socket_server_bsp//libucosii_bsp.a(alt_exit.o)
                0x000000000801547c                _exit
 .text          0x00000000080154b4       0xec ../MOD_socket_server_bsp//libucosii_bsp.a(alt_fstat.o)
                0x00000000080154f0                fstat
 .text          0x00000000080155a0       0x20 ../MOD_socket_server_bsp//libucosii_bsp.a(alt_getpid.o)
                0x00000000080155a0                getpid
 .text          0x00000000080155c0       0xe0 ../MOD_socket_server_bsp//libucosii_bsp.a(alt_isatty.o)
                0x00000000080155fc                isatty
 .text          0x00000000080156a0      0x168 ../MOD_socket_server_bsp//libucosii_bsp.a(alt_kill.o)
                0x00000000080156dc                kill
 .text          0x0000000008015808      0x110 ../MOD_socket_server_bsp//libucosii_bsp.a(alt_lseek.o)
                0x0000000008015844                lseek
 .text          0x0000000008015918       0xc0 ../MOD_socket_server_bsp//libucosii_bsp.a(alt_main.o)
                0x0000000008015918                alt_main
 .text          0x00000000080159d8       0xb8 ../MOD_socket_server_bsp//libucosii_bsp.a(alt_sbrk.o)
                0x00000000080159d8                sbrk
 .text          0x0000000008015a90      0x120 ../MOD_socket_server_bsp//libucosii_bsp.a(alt_env_lock.o)
                0x0000000008015a90                __env_lock
                0x0000000008015b50                __env_unlock
 .text          0x0000000008015bb0      0x1fc ../MOD_socket_server_bsp//libucosii_bsp.a(alt_malloc_lock.o)
                0x0000000008015bb0                __malloc_lock
                0x0000000008015cd8                __malloc_unlock
 .text          0x0000000008015dac     0x204c ../MOD_socket_server_bsp//libucosii_bsp.a(os_core.o)
                0x0000000008015dac                OSEventNameGet
                0x0000000008015ed0                OSEventNameSet
                0x0000000008016018                OSEventPendMulti
                0x0000000008016650                OSInit
                0x00000000080166a8                OSIntEnter
                0x00000000080166f4                OSIntExit
                0x00000000080167e8                OSSchedLock
                0x0000000008016878                OSSchedUnlock
                0x000000000801695c                OSStart
                0x00000000080169c4                OSStatInit
                0x0000000008016a7c                OSTimeTick
                0x0000000008016cb0                OSVersion
                0x0000000008016cd0                OS_Dummy
                0x0000000008016cf0                OS_EventTaskRdy
                0x0000000008016e78                OS_EventTaskWait
                0x0000000008016f80                OS_EventTaskWaitMulti
                0x00000000080170c8                OS_EventTaskRemove
                0x0000000008017178                OS_EventTaskRemoveMulti
                0x0000000008017274                OS_EventWaitListInit
                0x0000000008017660                OS_MemClr
                0x00000000080176b8                OS_MemCopy
                0x0000000008017724                OS_Sched
                0x000000000801785c                OS_StrCopy
                0x00000000080178d0                OS_StrLen
                0x0000000008017924                OS_TaskIdle
                0x0000000008017984                OS_TaskStat
                0x0000000008017a54                OS_TaskStatStkChk
                0x0000000008017b18                OS_TCBInit
 .text          0x0000000008017df8      0x190 ../MOD_socket_server_bsp//libucosii_bsp.a(os_dbg.o)
                0x0000000008017df8                OSDebugInit
 .text          0x0000000008017f88     0x17c4 ../MOD_socket_server_bsp//libucosii_bsp.a(os_flag.o)
                0x0000000008017f88                OSFlagAccept
                0x00000000080182ac                OSFlagCreate
                0x00000000080183bc                OSFlagDel
                0x0000000008018614                OSFlagNameGet
                0x0000000008018744                OSFlagNameSet
                0x0000000008018898                OSFlagPend
                0x0000000008018e98                OSFlagPendGetFlagsRdy
                0x0000000008018efc                OSFlagPost
                0x00000000080192a8                OSFlagQuery
                0x00000000080194d4                OS_FlagInit
                0x00000000080196a8                OS_FlagUnlink
 .text          0x000000000801974c      0x778 ../MOD_socket_server_bsp//libucosii_bsp.a(os_mem.o)
                0x000000000801974c                OSMemCreate
                0x0000000008019924                OSMemGet
                0x0000000008019a1c                OSMemNameGet
                0x0000000008019b10                OSMemNameSet
                0x0000000008019c2c                OSMemPut
                0x0000000008019d0c                OSMemQuery
                0x0000000008019df8                OS_MemInit
 .text          0x0000000008019ec4     0x115c ../MOD_socket_server_bsp//libucosii_bsp.a(os_q.o)
                0x0000000008019ec4                OSQAccept
                0x000000000801a008                OSQCreate
                0x000000000801a1b8                OSQDel
                0x000000000801a448                OSQFlush
                0x000000000801a504                OSQPend
                0x000000000801a79c                OSQPendAbort
                0x000000000801a910                OSQPost
                0x000000000801aa84                OSQPostFront
                0x000000000801ac00                OSQPostOpt
                0x000000000801ae18                OSQQuery
                0x000000000801af78                OS_QInit
 .text          0x000000000801b020      0xa98 ../MOD_socket_server_bsp//libucosii_bsp.a(os_sem.o)
                0x000000000801b020                OSSemAccept
                0x000000000801b0d4                OSSemCreate
                0x000000000801b1b0                OSSemDel
                0x000000000801b400                OSSemPend
                0x000000000801b614                OSSemPendAbort
                0x000000000801b788                OSSemPost
                0x000000000801b8a4                OSSemQuery
                0x000000000801b9b8                OSSemSet
 .text          0x000000000801bab8     0x1750 ../MOD_socket_server_bsp//libucosii_bsp.a(os_task.o)
                0x000000000801bab8                OSTaskChangePrio
                0x000000000801bf7c                OSTaskCreate
                0x000000000801c120                OSTaskCreateExt
                0x000000000801c2fc                OSTaskDel
                0x000000000801c640                OSTaskDelReq
                0x000000000801c798                OSTaskNameGet
                0x000000000801c934                OSTaskNameSet
                0x000000000801caf0                OSTaskResume
                0x000000000801ccd0                OSTaskStkChk
                0x000000000801ce88                OSTaskSuspend
                0x000000000801d070                OSTaskQuery
                0x000000000801d198                OS_TaskStkClr
 .text          0x000000000801d208      0x50c ../MOD_socket_server_bsp//libucosii_bsp.a(os_time.o)
                0x000000000801d208                OSTimeDly
                0x000000000801d310                OSTimeDlyHMSM
                0x000000000801d470                OSTimeDlyResume
                0x000000000801d650                OSTimeGet
                0x000000000801d6b0                OSTimeSet
 .text          0x000000000801d714      0x2cc ../MOD_socket_server_bsp//libucosii_bsp.a(alt_sys_init.o)
                0x000000000801d748                alt_irq_init
                0x000000000801d784                alt_sys_init
 .text          0x000000000801d9e0      0x4f8 ../MOD_socket_server_bsp//libucosii_bsp.a(altera_avalon_fifo_util.o)
                0x000000000801d9e0                altera_avalon_fifo_init
                0x000000000801da78                altera_avalon_fifo_read_status
                0x000000000801dab4                altera_avalon_fifo_read_ienable
                0x000000000801daf0                altera_avalon_fifo_read_almostfull
                0x000000000801db1c                altera_avalon_fifo_read_almostempty
                0x000000000801db48                altera_avalon_fifo_read_event
                0x000000000801db84                altera_avalon_fifo_read_level
                0x000000000801dbac                altera_avalon_fifo_clear_event
                0x000000000801dc0c                altera_avalon_fifo_write_ienable
                0x000000000801dc64                altera_avalon_fifo_write_almostfull
                0x000000000801dcbc                altera_avalon_fifo_write_almostempty
                0x000000000801dd14                altera_avalon_fifo_write_fifo
                0x000000000801dd6c                altera_avalon_read_fifo
                0x000000000801ddd8                altera_avalon_fifo_read_fifo
                0x000000000801de24                altera_avalon_fifo_write_other_info
                0x000000000801de84                altera_avalon_fifo_read_other_info
                0x000000000801deb0                altera_avalon_fifo_read_backpressure
 .text          0x000000000801ded8     0x1c54 ../MOD_socket_server_bsp//libucosii_bsp.a(altera_avalon_i2c.o)
                0x000000000801dfe8                alt_avalon_i2c_register_optional_irq_handler
                0x000000000801e0d8                alt_avalon_i2c_register_callback
                0x000000000801e12c                alt_avalon_i2c_init
                0x000000000801e258                alt_avalon_i2c_open
                0x000000000801e298                alt_avalon_i2c_enable
                0x000000000801e330                alt_avalon_i2c_disable
                0x000000000801e37c                alt_avalon_i2c_master_config_get
                0x000000000801e42c                alt_avalon_i2c_master_config_set
                0x000000000801e4f8                alt_avalon_i2c_master_config_speed_get
                0x000000000801e58c                alt_avalon_i2c_master_config_speed_set
                0x000000000801e688                alt_avalon_i2c_is_busy
                0x000000000801e6cc                alt_avalon_i2c_rx_read_available
                0x000000000801e778                alt_avalon_i2c_rx_read
                0x000000000801e820                alt_avalon_i2c_cmd_write
                0x000000000801e90c                alt_avalon_i2c_send_address
                0x000000000801e9fc                alt_avalon_i2c_master_target_get
                0x000000000801ea34                alt_avalon_i2c_master_target_set
                0x000000000801ea68                alt_avalon_i2c_check_nack
                0x000000000801eab4                alt_avalon_i2c_check_arblost
                0x000000000801eb00                alt_avalon_i2c_interrupt_transaction_status
                0x000000000801ec34                alt_avalon_i2c_master_tx
                0x000000000801ed1c                alt_avalon_i2c_master_rx
                0x000000000801ee58                alt_avalon_i2c_master_tx_rx
                0x000000000801f020                alt_avalon_i2c_master_transmit
                0x000000000801f1dc                alt_avalon_i2c_master_transmit_using_interrupts
                0x000000000801f3e4                alt_avalon_i2c_master_receive
                0x000000000801f5f0                alt_avalon_i2c_master_receive_using_interrupts
                0x000000000801f7dc                alt_avalon_i2c_int_status_get
                0x000000000801f834                alt_avalon_i2c_int_raw_status_get
                0x000000000801f878                alt_avalon_i2c_int_clear
                0x000000000801f8b4                alt_avalon_i2c_int_disable
                0x000000000801f920                alt_avalon_i2c_int_enable
                0x000000000801f988                alt_avalon_i2c_enabled_ints_get
                0x000000000801f9cc                alt_avalon_i2c_rx_fifo_threshold_get
                0x000000000801fa18                alt_avalon_i2c_rx_fifo_threshold_set
                0x000000000801fa7c                alt_avalon_i2c_tfr_cmd_fifo_threshold_get
                0x000000000801fac8                alt_avalon_i2c_tfr_cmd_fifo_threshold_set
 .text          0x000000000801fb2c      0x164 ../MOD_socket_server_bsp//libucosii_bsp.a(altera_avalon_jtag_uart_fd.o)
                0x000000000801fb2c                altera_avalon_jtag_uart_read_fd
                0x000000000801fb8c                altera_avalon_jtag_uart_write_fd
                0x000000000801fbec                altera_avalon_jtag_uart_close_fd
                0x000000000801fc3c                altera_avalon_jtag_uart_ioctl_fd
 .text          0x000000000801fc90      0x570 ../MOD_socket_server_bsp//libucosii_bsp.a(altera_avalon_jtag_uart_init.o)
                0x000000000801fc90                altera_avalon_jtag_uart_init
                0x0000000008020198                altera_avalon_jtag_uart_close
 .text          0x0000000008020200       0xf4 ../MOD_socket_server_bsp//libucosii_bsp.a(altera_avalon_jtag_uart_ioctl.o)
                0x0000000008020200                altera_avalon_jtag_uart_ioctl
 .text          0x00000000080202f4      0x2c8 ../MOD_socket_server_bsp//libucosii_bsp.a(altera_avalon_jtag_uart_read.o)
                0x00000000080202f4                altera_avalon_jtag_uart_read
 .text          0x00000000080205bc      0x2d0 ../MOD_socket_server_bsp//libucosii_bsp.a(altera_avalon_jtag_uart_write.o)
                0x00000000080205bc                altera_avalon_jtag_uart_write
 .text          0x000000000802088c      0x1fc ../MOD_socket_server_bsp//libucosii_bsp.a(altera_avalon_spi.o)
                0x000000000802088c                alt_avalon_spi_command
 .text          0x0000000008020a88      0x100 ../MOD_socket_server_bsp//libucosii_bsp.a(altera_avalon_timer_sc.o)
                0x0000000008020b04                alt_avalon_timer_sc_init
 .text          0x0000000008020b88     0x4f20 ../MOD_socket_server_bsp//libucosii_bsp.a(altera_avalon_tse.o)
                0x0000000008020b88                no_printf
                0x0000000008020bb8                tse_mac_initTransInfo2
                0x0000000008020c18                tse_mac_sTxWrite
                0x0000000008020ce0                tse_mac_aRxRead
                0x0000000008020d50                tse_mac_aTxWrite
                0x0000000008020dc0                tse_mac_SwReset
                0x0000000008020e48                tse_mac_setMIImode
                0x0000000008020e9c                tse_mac_setGMIImode
                0x0000000008020eec                alt_tse_phy_add_profile
                0x00000000080210a0                alt_tse_system_add_sys
                0x0000000008021964                alt_tse_sys_enable_mdio_sharing
                0x0000000008021aa8                alt_tse_mac_get_common_speed
                0x0000000008021ae8                alt_tse_mac_set_common_speed
                0x0000000008021b30                alt_tse_get_system_index
                0x0000000008021b9c                alt_tse_get_mac_group_index
                0x0000000008021c08                alt_tse_get_mac_info_index
                0x0000000008021c84                alt_tse_get_mac_info
                0x0000000008021d50                alt_tse_mac_set_speed
                0x0000000008021e30                alt_tse_mac_set_duplex
                0x0000000008021ebc                getPHYSpeed
                0x0000000008022934                alt_tse_phy_rd_mdio_addr
                0x000000000802297c                alt_tse_phy_wr_mdio_addr
                0x00000000080229d4                alt_tse_phy_wr_mdio_reg
                0x0000000008022b00                alt_tse_phy_rd_mdio_reg
                0x0000000008022bd0                alt_tse_phy_add_profile_default
                0x0000000008022e98                alt_tse_phy_print_profile
                0x0000000008023068                alt_tse_mac_group_init
                0x0000000008023710                alt_tse_mac_get_phy
                0x0000000008023b0c                alt_tse_mac_associate_phy
                0x0000000008023d4c                alt_tse_phy_cfg_pcs
                0x0000000008023e74                alt_tse_phy_init
                0x0000000008023f80                alt_tse_phy_restart_an
                0x0000000008024144                alt_tse_phy_check_link
                0x00000000080242cc                alt_tse_phy_get_cap
                0x0000000008024858                alt_tse_phy_set_adv_1000
                0x0000000008024a1c                alt_tse_phy_set_adv_100
                0x0000000008024c70                alt_tse_phy_set_adv_10
                0x0000000008024e18                alt_tse_phy_get_common_speed
                0x0000000008025134                alt_tse_phy_set_common_speed
                0x00000000080255e4                marvell_phy_cfg
                0x000000000802567c                marvell_cfg_gmii
                0x0000000008025760                marvell_cfg_sgmii
                0x0000000008025844                marvell_cfg_rgmii
                0x0000000008025934                DP83848C_link_status_read
                0x00000000080259ac                PEF7071_config
                0x0000000008025a08                PEF7071_link_status_read
 .text          0x0000000008025aa8      0xb24 ../MOD_socket_server_bsp//libucosii_bsp.a(altera_generic_quad_spi_controller.o)
                0x0000000008025adc                alt_qspi_controller_lock
                0x0000000008025bec                alt_qspi_controller_get_info
                0x0000000008025c78                alt_qspi_controller_erase_block
                0x0000000008025d9c                alt_qspi_controller_write_block
                0x0000000008025fac                alt_qspi_controller_write
                0x0000000008026194                alt_qspi_controller_read
                0x0000000008026240                altera_qspi_controller_init
 .text          0x00000000080265cc     0x2158 ../MOD_socket_server_bsp//libucosii_bsp.a(altera_msgdma.o)
                0x0000000008027284                alt_msgdma_construct_standard_st_to_mm_descriptor
                0x00000000080272dc                alt_msgdma_construct_standard_mm_to_st_descriptor
                0x0000000008027334                alt_msgdma_construct_standard_mm_to_mm_descriptor
                0x000000000802738c                alt_msgdma_construct_extended_st_to_mm_descriptor
                0x000000000802741c                alt_msgdma_construct_extended_mm_to_st_descriptor
                0x00000000080274ac                alt_msgdma_construct_extended_mm_to_mm_descriptor
                0x000000000802778c                alt_msgdma_construct_prefetcher_standard_mm_to_mm_descriptor
                0x00000000080277e4                alt_msgdma_construct_prefetcher_standard_st_to_mm_descriptor
                0x000000000802783c                alt_msgdma_construct_prefetcher_standard_mm_to_st_descriptor
                0x0000000008027894                alt_msgdma_construct_prefetcher_extended_st_to_mm_descriptor
                0x0000000008027934                alt_msgdma_construct_prefetcher_extended_mm_to_st_descriptor
                0x00000000080279cc                alt_msgdma_construct_prefetcher_extended_mm_to_mm_descriptor
                0x0000000008027a84                alt_msgdma_prefetcher_add_standard_desc_to_list
                0x0000000008027b74                alt_msgdma_prefetcher_add_extended_desc_to_list
                0x0000000008027d0c                alt_msgdma_prefetcher_set_std_list_own_by_hw_bits
                0x0000000008027e1c                alt_msgdma_prefetcher_set_extd_list_own_by_hw_bits
                0x0000000008027f68                alt_msgdma_start_prefetcher_with_list_addr
                0x0000000008028280                alt_msgdma_start_prefetcher_with_std_desc_list
                0x0000000008028330                alt_msgdma_start_prefetcher_with_extd_desc_list
                0x00000000080283e0                alt_msgdma_open
                0x0000000008028438                alt_msgdma_init
                0x00000000080285e0                alt_msgdma_register_callback
                0x0000000008028634                alt_msgdma_standard_descriptor_async_transfer
                0x0000000008028670                alt_msgdma_extended_descriptor_async_transfer
                0x00000000080286ac                alt_msgdma_standard_descriptor_sync_transfer
                0x00000000080286e8                alt_msgdma_extended_descriptor_sync_transfer
 .text          0x0000000008028724     0x1998 ../MOD_socket_server_bsp//libucosii_bsp.a(ins_tse_mac.o)
                0x0000000008028724                altera_eth_tse_init
                0x000000000802886c                prep_tse_mac
                0x0000000008028a98                msgdma_reset
                0x0000000008028b14                tse_mac_init
                0x0000000008029578                tse_msgdma_write_init
                0x0000000008029698                tse_mac_raw_send
                0x000000000802986c                tse_msgdmaRx_isr
                0x0000000008029a04                tse_msgdmaTx_isr
                0x0000000008029a64                tse_msgdma_read_init
                0x0000000008029d1c                allocate_rx_descriptor_chain
                0x0000000008029e54                tse_mac_rcv
                0x0000000008029fa0                tse_mac_stats
                0x0000000008029fe0                tse_mac_close
 .text          0x000000000802a0bc       0x48 ../MOD_socket_server_bsp//libucosii_bsp.a(alt_iniche_close.o)
                0x000000000802a0bc                close
 .text          0x000000000802a104      0x140 ../MOD_socket_server_bsp//libucosii_bsp.a(alt_iniche_dev.o)
                0x000000000802a104                iniche_devices_init
 .text          0x000000000802a244       0x70 ../MOD_socket_server_bsp//libucosii_bsp.a(alt_iniche_read.o)
                0x000000000802a244                read
 .text          0x000000000802a2b4       0x68 ../MOD_socket_server_bsp//libucosii_bsp.a(alt_iniche_write.o)
                0x000000000802a2b4                write
 .text          0x000000000802a31c      0xca4 ../MOD_socket_server_bsp//libucosii_bsp.a(ipnet.o)
                0x000000000802a31c                Netinit
                0x000000000802a7ec                fixup_subnet_mask
                0x000000000802a91c                netclose
                0x000000000802aa00                pktdemux
                0x000000000802ada4                c_older
                0x000000000802ae34                ip2mac
 .text          0x000000000802afc0      0x400 ../MOD_socket_server_bsp//libucosii_bsp.a(ipstart.o)
                0x000000000802afc0                ip_startup
                0x000000000802b224                exit_hook
                0x000000000802b28c                ip_exit
                0x000000000802b340                if_netnumber
 .text          0x000000000802b3c0      0xe94 ../MOD_socket_server_bsp//libucosii_bsp.a(igmp_cmn.o)
                0x000000000802b3c0                igmp_init
                0x000000000802b460                igmp_input
                0x000000000802b530                igmp_fasttimo
                0x000000000802b6a0                igmp_send
                0x000000000802b918                igmp_joingroup
                0x000000000802bb44                igmp_leavegroup
                0x000000000802bbc4                igmp_validate
                0x000000000802bea0                igmp_print_stats
 .text          0x000000000802c254      0xb10 ../MOD_socket_server_bsp//libucosii_bsp.a(bsdsock.o)
                0x000000000802c254                bsd_accept
                0x000000000802c374                bsd_getpeername
                0x000000000802c494                bsd_getsockname
                0x000000000802c5b4                bsd_i_sockoptlen
                0x000000000802c790                bsd_getsockopt
                0x000000000802c898                bsd_ioctl
                0x000000000802c988                bsd_inet_ntoa
                0x000000000802c9bc                bsd_recvfrom
                0x000000000802cb00                bsd_select
                0x000000000802cc88                bsd_setsockopt
 .text          0x000000000802cd64       0xf8 ../MOD_socket_server_bsp//libucosii_bsp.a(cksum.o)
                0x000000000802cd64                ccksum
                0x000000000802ce08                cksum
 .text          0x000000000802ce5c      0xa48 ../MOD_socket_server_bsp//libucosii_bsp.a(in_utils.o)
                0x000000000802ce5c                do_trap
                0x000000000802ce88                nextarg
                0x000000000802cf04                hexdump
                0x000000000802d04c                print_ipad
                0x000000000802d0c8                print_uptime
                0x000000000802d208                panic
                0x000000000802d250                print_eth
                0x000000000802d3a4                uslash
                0x000000000802d420                ns_printf
                0x000000000802d590                std_out
                0x000000000802d5d4                con_page
                0x000000000802d6ac                parse_args
 .text          0x000000000802d8a4      0x1a0 ../MOD_socket_server_bsp//libucosii_bsp.a(netmain.o)
                0x000000000802d8a4                netmain
                0x000000000802d984                tk_netmain
                0x000000000802d9fc                tk_nettick
 .text          0x000000000802da44      0x55c ../MOD_socket_server_bsp//libucosii_bsp.a(tk_crnos.o)
                0x000000000802da44                TK_OSTimeDly
                0x000000000802da74                TK_OSTaskResume
                0x000000000802dae8                tcp_sleep
                0x000000000802dc34                tcp_wakeup
                0x000000000802dd0c                TK_OSTaskQuery
                0x000000000802dd78                tk_yield
                0x000000000802dda8                tk_stats
 .text          0x000000000802dfa0     0x27c0 ../MOD_socket_server_bsp//libucosii_bsp.a(dhcpclnt.o)
                0x000000000802dfa0                dhc_get_srv_ipaddr
                0x000000000802e028                dhc_init
                0x000000000802e0cc                dhc_set_callback
                0x000000000802e10c                dhc_upcall
                0x000000000802e7f4                dhc_buildheader
                0x000000000802e9b0                dhc_discover
                0x000000000802edf8                dhc_rx_offer
                0x000000000802eecc                dhc_request
                0x000000000802f858                dhc_setip
                0x000000000802fa44                dhc_resetip
                0x000000000802faf8                dhc_decline
                0x000000000802fca4                dhc_extract_opts
                0x000000000802fef8                dhc_second
                0x00000000080303b8                dhc_halt
                0x0000000008030434                dhc_reclaim
                0x0000000008030594                dhc_state_init
                0x00000000080305ec                dhc_alldone
                0x000000000803066c                dhc_ifacedone
                0x00000000080306cc                dhc_set_state
 .text          0x0000000008030760       0xc0 ../MOD_socket_server_bsp//libucosii_bsp.a(dhcputil.o)
                0x0000000008030760                find_opt
 .text          0x0000000008030820      0x730 ../MOD_socket_server_bsp//libucosii_bsp.a(pktalloc.o)
                0x0000000008030820                pk_init
                0x0000000008030aac                pk_alloc
                0x0000000008030b6c                pk_validate
                0x0000000008030dc0                pk_free
                0x0000000008030e6c                pk_get_max_intrsafe_buf_len
                0x0000000008030e8c                dump_buf_estats
 .text          0x0000000008030f50      0x268 ../MOD_socket_server_bsp//libucosii_bsp.a(q.o)
                0x0000000008030f50                getq
                0x0000000008031008                putq
                0x00000000080310b8                qdel
 .text          0x00000000080311b8      0x2d8 ../MOD_socket_server_bsp//libucosii_bsp.a(udp_open.o)
                0x00000000080311b8                udp_open
                0x00000000080313b8                udp_close
 .text          0x0000000008031490      0x194 ../MOD_socket_server_bsp//libucosii_bsp.a(asm_cksum.o)
                0x0000000008031490                asm_cksum
 .text          0x0000000008031624      0x268 ../MOD_socket_server_bsp//libucosii_bsp.a(brdutils.o)
                0x0000000008031624                dtrap
                0x0000000008031658                kbhit
                0x00000000080316e0                getch
                0x0000000008031730                clock_init
                0x0000000008031768                clock_c
                0x0000000008031788                cticks_hook
                0x00000000080317e4                irq_Mask
                0x0000000008031844                irq_Unmask
 .text          0x000000000803188c      0x4a8 ../MOD_socket_server_bsp//libucosii_bsp.a(osportco.o)
                0x000000000803188c                LOCK_NET_RESOURCE
                0x0000000008031948                UNLOCK_NET_RESOURCE
                0x00000000080319cc                TK_NEWTASK
                0x0000000008031c0c                wait_app_sem
                0x0000000008031cc0                post_app_sem
 .text          0x0000000008031d34      0x538 ../MOD_socket_server_bsp//libucosii_bsp.a(targnios.o)
                0x0000000008031d34                alt_iniche_init
                0x0000000008031ef4                pre_task_setup
                0x0000000008031f40                post_task_setup
                0x0000000008031f60                prep_armintcp
                0x0000000008031f98                npalloc_base
                0x00000000080320a4                npfree_base
                0x0000000008032184                npalloc
                0x00000000080321b8                npfree
                0x00000000080321f8                ncpalloc
                0x000000000803222c                ncpfree
 .text          0x000000000803226c     0x17c0 ../MOD_socket_server_bsp//libucosii_bsp.a(nptcp.o)
                0x000000000803226c                pffindtype
                0x00000000080322fc                pffindproto
                0x00000000080323d0                m_getnbuf
                0x0000000008032558                m_free
                0x000000000803265c                m_freem
                0x00000000080326a4                m_copy
                0x000000000803297c                m_adj
                0x0000000008032b3c                mbuf_len
                0x0000000008032b90                dtom
                0x0000000008032c28                remque
                0x0000000008032c98                insque
                0x0000000008032d14                nptcp_init
                0x0000000008032e08                tcp_rcv
                0x0000000008032fbc                ip_output
                0x0000000008033544                in_broadcast
                0x000000000803357c                np_stripoptions
                0x000000000803366c                so_icmpdu
                0x00000000080339b4                tcp_tick
 .text          0x0000000008033a2c      0x958 ../MOD_socket_server_bsp//libucosii_bsp.a(rawsock.o)
                0x0000000008033a2c                rawip_lookup
                0x0000000008033a88                rawip_soinput
                0x0000000008033c4c                rawip_usrreq
 .text          0x0000000008034384     0x163c ../MOD_socket_server_bsp//libucosii_bsp.a(sockcall.o)
                0x0000000008034384                DOMAIN_CHECK
                0x00000000080343d4                t_socket
                0x0000000008034454                t_bind
                0x00000000080345b4                t_listen
                0x0000000008034688                t_accept
                0x00000000080348d8                t_connect
                0x0000000008034b48                t_getpeername
                0x0000000008034b8c                t_getsockname
                0x0000000008034db0                t_setsockopt
                0x0000000008034f70                t_getsockopt
                0x00000000080350f8                t_recv
                0x00000000080351d4                t_recvfrom
                0x0000000008035310                t_sendto
                0x000000000803550c                t_send
                0x000000000803570c                t_shutdown
                0x00000000080357e0                t_socketclose
                0x000000000803592c                t_errno
 .text          0x00000000080359c0     0x21ec ../MOD_socket_server_bsp//libucosii_bsp.a(socket.o)
                0x00000000080359c0                socreate
                0x0000000008035b68                sobind
                0x0000000008035bc4                solisten
                0x0000000008035c94                sofree
                0x0000000008035da4                soclose
                0x000000000803606c                soabort
                0x00000000080360bc                soaccept
                0x0000000008036154                soconnect
                0x000000000803620c                sodisconnect
                0x00000000080362a4                sosend
                0x0000000008036804                soreceive
                0x0000000008036f5c                soshutdown
                0x0000000008036ff4                sorflush
                0x00000000080370f0                sosetopt
                0x0000000008037618                sogetopt
                0x0000000008037b60                sohasoutofband
 .text          0x0000000008037bac     0x1284 ../MOD_socket_server_bsp//libucosii_bsp.a(socket2.o)
                0x0000000008037bac                soisconnecting
                0x0000000008037c1c                soisconnected
                0x0000000008037d20                soisdisconnecting
                0x0000000008037db8                soisdisconnected
                0x0000000008037e7c                sonewconn
                0x0000000008038074                soqinsque
                0x0000000008038120                soqremque
                0x0000000008038228                socantsendmore
                0x0000000008038280                socantrcvmore
                0x00000000080382d8                sbselqueue
                0x0000000008038314                sbwait
                0x0000000008038380                sbwakeup
                0x000000000803840c                soreserve
                0x0000000008038494                sbreserve
                0x00000000080384e4                sbrelease
                0x0000000008038530                sbappend
                0x00000000080385d0                sbappendrecord
                0x00000000080386a8                sbappendaddr
                0x0000000008038884                sbcompress
                0x0000000008038a64                sbflush
                0x0000000008038ae8                sbdrop
                0x0000000008038ca0                sbdropend
                0x0000000008038da0                sbdroprecord
 .text          0x0000000008038e30      0x884 ../MOD_socket_server_bsp//libucosii_bsp.a(soselect.o)
                0x0000000008038e30                t_select
                0x0000000008039000                sock_selscan
                0x0000000008039150                sock_select
                0x0000000008039340                in_pcbnotify
                0x0000000008039408                tcp_notify
                0x0000000008039488                ifd_clr
                0x000000000803956c                ifd_set
                0x00000000080395e0                ifd_isset
                0x0000000008039654                ifd_get
 .text          0x00000000080396b4     0x2c38 ../MOD_socket_server_bsp//libucosii_bsp.a(tcp_in.o)
                0x00000000080396b4                tcp_reass
                0x0000000008039aa4                tcp_input
                0x000000000803bcbc                tcp_dooptions
                0x000000000803be44                tcp_pulloutofband
                0x000000000803bf70                tcp_xmit_timer
                0x000000000803c1ac                ip4_tcpmss
                0x000000000803c1f4                tcp_mss
 .text          0x000000000803c2ec     0x1160 ../MOD_socket_server_bsp//libucosii_bsp.a(tcp_out.o)
                0x000000000803c2ec                tcp_output
                0x000000000803d284                tcp_setpersist
 .text          0x000000000803d44c      0x90c ../MOD_socket_server_bsp//libucosii_bsp.a(tcp_subr.o)
                0x000000000803d44c                tcp_init
                0x000000000803d494                tcp_template
                0x000000000803d59c                tcp_respond
                0x000000000803d990                tcp_newtcpcb
                0x000000000803da9c                tcp_drop
                0x000000000803db38                tcp_close
                0x000000000803dc20                tcp_quench
                0x000000000803dc6c                tcp_putseq
                0x000000000803dce4                tcp_getseq
 .text          0x000000000803dd58      0x71c ../MOD_socket_server_bsp//libucosii_bsp.a(tcp_timr.o)
                0x000000000803dd58                tcp_slowtimo
                0x000000000803dfb4                tcp_canceltimers
                0x000000000803e014                tcp_timers
 .text          0x000000000803e474      0x964 ../MOD_socket_server_bsp//libucosii_bsp.a(tcp_usr.o)
                0x000000000803e474                tcp_usrreq
                0x000000000803eb2c                tcp_attach
                0x000000000803ec44                tcp_disconnect
                0x000000000803ed10                tcp_usrclosed
 .text          0x000000000803edd8       0x40 ../MOD_socket_server_bsp//libucosii_bsp.a(tcpport.o)
                0x000000000803edd8                tcpinit
 .text          0x000000000803ee18      0xba0 ../MOD_socket_server_bsp//libucosii_bsp.a(udpsock.o)
                0x000000000803ee18                udp_lookup
                0x000000000803ee74                udp_soinput
                0x000000000803f014                udp_usrreq
                0x000000000803f24c                udp4_sockbind
                0x000000000803f51c                udp4_socksend
                0x000000000803f890                udp4_sockaddr
 .text          0x000000000803f9b8      0x134 ../MOD_socket_server_bsp//libucosii_bsp.a(alt_alarm_start.o)
                0x000000000803f9b8                alt_alarm_start
 .text          0x000000000803faec      0x158 ../MOD_socket_server_bsp//libucosii_bsp.a(alt_busy_sleep.o)
                0x000000000803faec                alt_busy_sleep
 .text          0x000000000803fc44      0x10c ../MOD_socket_server_bsp//libucosii_bsp.a(alt_close.o)
                0x000000000803fc80                alt_close
 .text          0x000000000803fd50       0x28 ../MOD_socket_server_bsp//libucosii_bsp.a(alt_dcache_flush.o)
                0x000000000803fd50                alt_dcache_flush
 .text          0x000000000803fd78       0x2c ../MOD_socket_server_bsp//libucosii_bsp.a(alt_dev.o)
 .text          0x000000000803fda4       0xe4 ../MOD_socket_server_bsp//libucosii_bsp.a(alt_dev_llist_insert.o)
                0x000000000803fde0                alt_dev_llist_insert
 .text          0x000000000803fe88       0x64 ../MOD_socket_server_bsp//libucosii_bsp.a(alt_do_ctors.o)
                0x000000000803fe88                _do_ctors
 .text          0x000000000803feec       0x64 ../MOD_socket_server_bsp//libucosii_bsp.a(alt_do_dtors.o)
                0x000000000803feec                _do_dtors
 .text          0x000000000803ff50        0x0 ../MOD_socket_server_bsp//libucosii_bsp.a(alt_errno.o)
 .text          0x000000000803ff50       0x90 ../MOD_socket_server_bsp//libucosii_bsp.a(alt_find_dev.o)
                0x000000000803ff50                alt_find_dev
 .text          0x000000000803ffe0       0xbc ../MOD_socket_server_bsp//libucosii_bsp.a(alt_flash_dev.o)
                0x000000000803ffe0                alt_flash_open_dev
                0x0000000008040048                alt_flash_close_dev
 .text          0x000000000804009c      0x1b0 ../MOD_socket_server_bsp//libucosii_bsp.a(alt_iic.o)
                0x000000000804009c                alt_ic_isr_register
                0x00000000080400ec                alt_ic_irq_enable
                0x0000000008040174                alt_ic_irq_disable
                0x0000000008040200                alt_ic_irq_enabled
 .text          0x000000000804024c       0xe8 ../MOD_socket_server_bsp//libucosii_bsp.a(alt_iic_isr_register.o)
                0x000000000804024c                alt_iic_isr_register
 .text          0x0000000008040334      0x12c ../MOD_socket_server_bsp//libucosii_bsp.a(alt_io_redirect.o)
                0x00000000080403e4                alt_io_redirect
 .text          0x0000000008040460        0x0 ../MOD_socket_server_bsp//libucosii_bsp.a(alt_irq_entry.o)
 .text          0x0000000008040460        0x0 ../MOD_socket_server_bsp//libucosii_bsp.a(alt_irq_handler.o)
 .text          0x0000000008040460        0x0 ../MOD_socket_server_bsp//libucosii_bsp.a(alt_irq_vars.o)
 .text          0x0000000008040460      0x248 ../MOD_socket_server_bsp//libucosii_bsp.a(alt_open.o)
                0x0000000008040554                open
 .text          0x00000000080406a8      0x22c ../MOD_socket_server_bsp//libucosii_bsp.a(alt_printf.o)
                0x00000000080406a8                alt_printf
 .text          0x00000000080408d4       0x30 ../MOD_socket_server_bsp//libucosii_bsp.a(alt_putchar.o)
                0x00000000080408d4                alt_putchar
 .text          0x0000000008040904      0x138 ../MOD_socket_server_bsp//libucosii_bsp.a(alt_read.o)
                0x0000000008040940                alt_read
 .text          0x0000000008040a3c       0x58 ../MOD_socket_server_bsp//libucosii_bsp.a(alt_release_fd.o)
                0x0000000008040a3c                alt_release_fd
 .text          0x0000000008040a94       0x28 ../MOD_socket_server_bsp//libucosii_bsp.a(alt_remap_cached.o)
                0x0000000008040a94                alt_remap_cached
 .text          0x0000000008040abc      0x1ac ../MOD_socket_server_bsp//libucosii_bsp.a(alt_tick.o)
                0x0000000008040abc                alt_alarm_stop
                0x0000000008040b60                alt_tick
 .text          0x0000000008040c68       0x34 ../MOD_socket_server_bsp//libucosii_bsp.a(alt_uncached_free.o)
                0x0000000008040c68                alt_uncached_free
 .text          0x0000000008040c9c       0x30 ../MOD_socket_server_bsp//libucosii_bsp.a(alt_uncached_malloc.o)
                0x0000000008040c9c                alt_uncached_malloc
 .text          0x0000000008040ccc      0x114 ../MOD_socket_server_bsp//libucosii_bsp.a(alt_usleep.o)
                0x0000000008040ccc                usleep
 .text          0x0000000008040de0      0x134 ../MOD_socket_server_bsp//libucosii_bsp.a(alt_write.o)
                0x0000000008040e1c                alt_write
 .text          0x0000000008040f14       0x24 ../MOD_socket_server_bsp//libucosii_bsp.a(altera_nios2_gen2_irq.o)
                0x0000000008040f14                altera_nios2_gen2_irq_init
 .text          0x0000000008040f38       0xd0 ../MOD_socket_server_bsp//libucosii_bsp.a(os_cpu_a.o)
                0x0000000008040f38                OSCtxSw
                0x0000000008040f38                OSIntCtxSw
                0x0000000008040fc4                OSStartHighRdy
                0x0000000008040fe4                OSStartTsk
 .text          0x0000000008041008      0x284 ../MOD_socket_server_bsp//libucosii_bsp.a(os_cpu_c.o)
                0x0000000008041008                OSTaskStkInit
                0x0000000008041154                OSTaskCreateHook
                0x0000000008041178                OSTaskDelHook
                0x000000000804119c                OSTaskSwHook
                0x00000000080411bc                OSTaskStatHook
                0x00000000080411dc                OSTimeTickHook
                0x0000000008041208                OSInitHookBegin
                0x0000000008041228                OSInitHookEnd
                0x0000000008041248                OSTaskIdleHook
                0x0000000008041268                OSTCBInitHook
 .text          0x000000000804128c      0x3d8 ../MOD_socket_server_bsp//libucosii_bsp.a(allports.o)
                0x000000000804128c                netmain_init
                0x0000000008041378                icmp_port_du
                0x0000000008041404                station_state
                0x0000000008041564                sysuptime
                0x000000000804159c                packet_check
                0x00000000080415ec                mcastlist
                0x0000000008041610                prep_modules
 .text          0x0000000008041664      0x39c ../MOD_socket_server_bsp//libucosii_bsp.a(timeouts.o)
                0x0000000008041664                inet_timer
                0x000000000804183c                in_timerset
                0x0000000008041968                in_timerkill
 .text          0x0000000008041a00       0xa0 ../MOD_socket_server_bsp//libucosii_bsp.a(tk_misc.o)
                0x0000000008041a00                create_apptasks
                0x0000000008041a24                task_stats
 .text          0x0000000008041aa0       0xa0 ../MOD_socket_server_bsp//libucosii_bsp.a(alt_iniche_fcntl.o)
                0x0000000008041aa0                fcntl
 .text          0x0000000008041b40     0x13e8 ../MOD_socket_server_bsp//libucosii_bsp.a(et_arp.o)
                0x0000000008041b40                etainit
                0x0000000008041b88                et_send
                0x0000000008041d08                arp_free_pending
                0x0000000008041d90                arp_send_pending
                0x0000000008041e08                send_arp
                0x000000000804225c                find_oldest_arp
                0x00000000080423c8                make_arp_entry
                0x00000000080424c4                arpReply
                0x0000000008042784                arprcv
                0x00000000080429e8                send_via_arp
                0x0000000008042b64                cb_arpent_tmo
                0x0000000008042c70                grat_arp
 .text          0x0000000008042f28      0x260 ../MOD_socket_server_bsp//libucosii_bsp.a(iface.o)
                0x0000000008042f28                if_getbynum
                0x0000000008042f94                isbcast
                0x0000000008043068                reg_type
                0x00000000080430f4                if_killsocks
 .text          0x0000000008043188     0x1f8c ../MOD_socket_server_bsp//libucosii_bsp.a(ip.o)
                0x0000000008043188                ip_init
                0x0000000008043260                ip_bldhead
                0x00000000080433ec                ip_write_internal
                0x0000000008043af8                ip_write
                0x0000000008043d08                ip_write2
                0x000000000804407c                ip_raw_write
                0x0000000008044138                ip_fragment_lc
                0x0000000008044538                ip_fragment
                0x0000000008044ad4                ip_mymach
                0x0000000008044b78                ip_dump
                0x0000000008044e1c                iproute
                0x0000000008044fe8                ip_copypkt
 .text          0x0000000008045114     0x1b54 ../MOD_socket_server_bsp//libucosii_bsp.a(ip_reasm.o)
                0x0000000008045114                ip_reasm_match_frag_with_ire
                0x00000000080451d8                ip_reasm_determine_type_of_frag
                0x00000000080452a8                ip_reasm_check_mem_useage
                0x000000000804532c                ip_reasm_incr_mem_useage
                0x00000000080453bc                ip_reasm_decr_mem_useage
                0x0000000008045444                ip_reasm_process_first_fragment
                0x00000000080456ec                ip_reassm
                0x0000000008045774                ip_reasm_compute_overlap
                0x0000000008045cc8                ip_reasm_process_subsequent_fragments
                0x00000000080461c8                ip_reasm_find_ire
                0x0000000008046220                ip_reasm_copy_queued_fragments_into_reassy_buffer
                0x000000000804655c                ip_reasm_process_timer_tick
                0x0000000008046624                ip_reasm_delete_ire
                0x00000000080467cc                ip_reasm_mark_compact_rfq
                0x00000000080468f0                ipr_stats
                0x0000000008046c18                ip_reasm_send_icmp_timex
 .text          0x0000000008046c68      0xca0 ../MOD_socket_server_bsp//libucosii_bsp.a(ipdemux.o)
                0x0000000008046c68                ip_rcv
                0x0000000008046fbc                ip_rcv_phase2
                0x000000000804755c                ip_demux
 .text          0x0000000008047908      0x2bc ../MOD_socket_server_bsp//libucosii_bsp.a(ipmc.o)
                0x0000000008047908                in_addmulti
                0x0000000008047a54                in_delmulti
                0x0000000008047b60                lookup_mcast
 .text          0x0000000008047bc4       0xd4 ../MOD_socket_server_bsp//libucosii_bsp.a(ipport.o)
                0x0000000008047bc4                prep_ifaces
                0x0000000008047c44                netexit
                0x0000000008047c6c                evtmap_setup
 .text          0x0000000008047c98      0x4ec ../MOD_socket_server_bsp//libucosii_bsp.a(ipraw.o)
                0x0000000008047c98                ip_raw_open
                0x0000000008047d70                ip_raw_close
                0x0000000008047e2c                ip_raw_input
                0x0000000008048040                ip_raw_alloc
                0x00000000080480f8                ip_raw_free
                0x000000000804813c                ip_raw_maxalloc
 .text          0x0000000008048184      0x60c ../MOD_socket_server_bsp//libucosii_bsp.a(iproute.o)
                0x0000000008048184                rt_lookup
                0x00000000080482d8                add_route
                0x000000000804867c                del_route
 .text          0x0000000008048790      0xcc8 ../MOD_socket_server_bsp//libucosii_bsp.a(udp.o)
                0x0000000008048790                udpdemux
                0x0000000008048efc                udp_send
                0x0000000008049190                udpswap
                0x0000000008049284                udp_socket
                0x0000000008049334                udp_alloc
                0x00000000080493f0                udp_maxalloc
                0x0000000008049414                udp_free
 .text          0x0000000008049458      0x268 ../MOD_socket_server_bsp//libucosii_bsp.a(igmp.o)
                0x0000000008049458                igmpv1_input
 .text          0x00000000080496c0      0x65c ../MOD_socket_server_bsp//libucosii_bsp.a(igmp2.o)
                0x00000000080496c0                igmpv2_input
                0x00000000080497d0                igmpv2_process_report
                0x00000000080498e4                igmpv2_process_query
                0x0000000008049aa4                igmpv2_chk_set_timer
                0x0000000008049bd4                igmpv2_chk4_rtr_alert_opt
 .text          0x0000000008049d1c      0x858 ../MOD_socket_server_bsp//libucosii_bsp.a(ipopt.o)
                0x0000000008049d1c                IPADDR_TO_NETP
                0x0000000008049e30                ip_setmoptions
                0x000000000804a3d0                ip_getmoptions
                0x000000000804a4f0                ip_freemoptions
 .text          0x000000000804a574      0x6a0 ../MOD_socket_server_bsp//libucosii_bsp.a(u_mctest.o)
                0x000000000804a574                u_mctest_init
                0x000000000804a5a8                u_mctest_run
 .text          0x000000000804ac14      0x30c ../MOD_socket_server_bsp//libucosii_bsp.a(dhcsetup.o)
                0x000000000804ac14                dhc_setup
                0x000000000804ae2c                dhc_main_ipset
 .text          0x000000000804af20      0x3a4 ../MOD_socket_server_bsp//libucosii_bsp.a(memdev.o)
                0x000000000804af20                init_memdev
                0x000000000804af70                md_fopen
                0x000000000804af98                md_fclose
                0x000000000804afbc                md_fread
                0x000000000804b114                md_fwrite
                0x000000000804b18c                md_fseek
                0x000000000804b1b8                md_ftell
                0x000000000804b1dc                md_fgetc
                0x000000000804b2a0                md_unlink
 .text          0x000000000804b2c4      0x784 ../MOD_socket_server_bsp//libucosii_bsp.a(parseip.o)
                0x000000000804b2c4                parse_ipad
                0x000000000804b5c0                inet_addr
                0x000000000804b624                hextoa
                0x000000000804b670                inet_pton
                0x000000000804b704                inet_ntop
                0x000000000804b788                print46_addr
                0x000000000804b7e4                inet46_addr
                0x000000000804b8a8                inet_setport
                0x000000000804b914                convert_ip
 .text          0x000000000804ba48      0x194 ../MOD_socket_server_bsp//libucosii_bsp.a(tcpcksum.o)
                0x000000000804ba48                tcp_cksum
 .text          0x000000000804bbdc      0x888 ../MOD_socket_server_bsp//libucosii_bsp.a(in_pcb.o)
                0x000000000804bbdc                in_pcballoc
                0x000000000804bc64                in_pcbdetach
                0x000000000804bcbc                in_pcbbind
                0x000000000804becc                in_pcbconnect
                0x000000000804c0ac                in_pcbdisconnect
                0x000000000804c108                in_setsockaddr
                0x000000000804c18c                in_setpeeraddr
                0x000000000804c210                in_pcblookup
 .text          0x000000000804c464     0x18f0 ../MOD_socket_server_bsp//libucosii_bsp.a(vfsfiles.o)
                0x000000000804c464                set_vfopen_error
                0x000000000804c490                get_vfopen_error
                0x000000000804c4b0                vf_alloc_and_link_vop
                0x000000000804c520                vf_alloc_buffer
                0x000000000804c5e8                vf_free_buffer
                0x000000000804c638                vfopen_locked
                0x000000000804c970                vfopen
                0x000000000804c9c0                vfclose_locked
                0x000000000804cb78                vfclose
                0x000000000804cbbc                vfflush
                0x000000000804cc04                vfgets
                0x000000000804ccd4                vfeof
                0x000000000804cd24                vunlink_flag_open_files
                0x000000000804cd84                vunlink
                0x000000000804cf84                vfread
                0x000000000804d10c                vfwrite_locked
                0x000000000804d4b8                vfwrite
                0x000000000804d518                vfseek
                0x000000000804d67c                vftell
                0x000000000804d788                vgetc_locked
                0x000000000804d880                vgetc
                0x000000000804d8c8                vfslookup_locked
                0x000000000804d9ec                vfslookup
                0x000000000804da34                strippath
                0x000000000804dc00                isvfile_locked
                0x000000000804dc58                isvfile
                0x000000000804dca0                vferror
                0x000000000804dcfc                vclearerr
 .text          0x000000000804dd54       0x24 ../MOD_socket_server_bsp//libucosii_bsp.a(vfsport.o)
                0x000000000804dd54                prep_vfs
 .text          0x000000000804dd78        0x0 ../MOD_socket_server_bsp//libucosii_bsp.a(alt_exception_entry.o)
 .text          0x000000000804dd78      0x160 ../MOD_socket_server_bsp//libucosii_bsp.a(alt_fcntl.o)
                0x000000000804ddb4                alt_fcntl
 .text          0x000000000804ded8      0x108 ../MOD_socket_server_bsp//libucosii_bsp.a(alt_find_file.o)
                0x000000000804ded8                alt_find_file
 .text          0x000000000804dfe0       0xd8 ../MOD_socket_server_bsp//libucosii_bsp.a(alt_get_fd.o)
                0x000000000804dfe0                alt_get_fd
 .text          0x000000000804e0b8       0x98 ../MOD_socket_server_bsp//libucosii_bsp.a(alt_instruction_exception_entry.o)
                0x000000000804e0b8                alt_exception_cause_generated_bad_addr
 .text          0x000000000804e150     0x10f0 ../MOD_socket_server_bsp//libucosii_bsp.a(icmp.o)
                0x000000000804e150                icmprcv
                0x000000000804ec2c                icmp_destun
                0x000000000804ef00                icmp_timex
                0x000000000804f1ec                icmp_du
 .text          0x000000000804f240        0x0 /home/tom/intelFPGA_lite/20.1/nios2eds/bin/gnu/H-x86_64-pc-linux-gnu/bin/../lib/gcc/nios2-elf/9.2.1/../../../../../H-x86_64-pc-linux-gnu/nios2-elf/lib/libc.a(lib_a-atexit.o)
 .text.atexit   0x000000000804f240       0x14 /home/tom/intelFPGA_lite/20.1/nios2eds/bin/gnu/H-x86_64-pc-linux-gnu/bin/../lib/gcc/nios2-elf/9.2.1/../../../../../H-x86_64-pc-linux-gnu/nios2-elf/lib/libc.a(lib_a-atexit.o)
                0x000000000804f240                atexit
 .text          0x000000000804f254        0x0 /home/tom/intelFPGA_lite/20.1/nios2eds/bin/gnu/H-x86_64-pc-linux-gnu/bin/../lib/gcc/nios2-elf/9.2.1/../../../../../H-x86_64-pc-linux-gnu/nios2-elf/lib/libc.a(lib_a-atoi.o)
 .text.atoi     0x000000000804f254        0xc /home/tom/intelFPGA_lite/20.1/nios2eds/bin/gnu/H-x86_64-pc-linux-gnu/bin/../lib/gcc/nios2-elf/9.2.1/../../../../../H-x86_64-pc-linux-gnu/nios2-elf/lib/libc.a(lib_a-atoi.o)
                0x000000000804f254                atoi
 .text._atoi_r  0x000000000804f260        0xc /home/tom/intelFPGA_lite/20.1/nios2eds/bin/gnu/H-x86_64-pc-linux-gnu/bin/../lib/gcc/nios2-elf/9.2.1/../../../../../H-x86_64-pc-linux-gnu/nios2-elf/lib/libc.a(lib_a-atoi.o)
                0x000000000804f260                _atoi_r
 .text          0x000000000804f26c        0x0 /home/tom/intelFPGA_lite/20.1/nios2eds/bin/gnu/H-x86_64-pc-linux-gnu/bin/../lib/gcc/nios2-elf/9.2.1/../../../../../H-x86_64-pc-linux-gnu/nios2-elf/lib/libc.a(lib_a-exit.o)
 .text.exit     0x000000000804f26c       0x34 /home/tom/intelFPGA_lite/20.1/nios2eds/bin/gnu/H-x86_64-pc-linux-gnu/bin/../lib/gcc/nios2-elf/9.2.1/../../../../../H-x86_64-pc-linux-gnu/nios2-elf/lib/libc.a(lib_a-exit.o)
                0x000000000804f26c                exit
 .text          0x000000000804f2a0        0x0 /home/tom/intelFPGA_lite/20.1/nios2eds/bin/gnu/H-x86_64-pc-linux-gnu/bin/../lib/gcc/nios2-elf/9.2.1/../../../../../H-x86_64-pc-linux-gnu/nios2-elf/lib/libc.a(lib_a-malloc.o)
 .text.malloc   0x000000000804f2a0       0x10 /home/tom/intelFPGA_lite/20.1/nios2eds/bin/gnu/H-x86_64-pc-linux-gnu/bin/../lib/gcc/nios2-elf/9.2.1/../../../../../H-x86_64-pc-linux-gnu/nios2-elf/lib/libc.a(lib_a-malloc.o)
                0x000000000804f2a0                malloc
 .text.free     0x000000000804f2b0       0x10 /home/tom/intelFPGA_lite/20.1/nios2eds/bin/gnu/H-x86_64-pc-linux-gnu/bin/../lib/gcc/nios2-elf/9.2.1/../../../../../H-x86_64-pc-linux-gnu/nios2-elf/lib/libc.a(lib_a-malloc.o)
                0x000000000804f2b0                free
 .text          0x000000000804f2c0        0x0 /home/tom/intelFPGA_lite/20.1/nios2eds/bin/gnu/H-x86_64-pc-linux-gnu/bin/../lib/gcc/nios2-elf/9.2.1/../../../../../H-x86_64-pc-linux-gnu/nios2-elf/lib/libc.a(lib_a-strchr.o)
 .text.strchr   0x000000000804f2c0      0x15c /home/tom/intelFPGA_lite/20.1/nios2eds/bin/gnu/H-x86_64-pc-linux-gnu/bin/../lib/gcc/nios2-elf/9.2.1/../../../../../H-x86_64-pc-linux-gnu/nios2-elf/lib/libc.a(lib_a-strchr.o)
                0x000000000804f2c0                strchr
 .text          0x000000000804f41c        0x0 /home/tom/intelFPGA_lite/20.1/nios2eds/bin/gnu/H-x86_64-pc-linux-gnu/bin/../lib/gcc/nios2-elf/9.2.1/../../../../../H-x86_64-pc-linux-gnu/nios2-elf/lib/libc.a(lib_a-strncmp.o)
 .text.strncmp  0x000000000804f41c       0xc4 /home/tom/intelFPGA_lite/20.1/nios2eds/bin/gnu/H-x86_64-pc-linux-gnu/bin/../lib/gcc/nios2-elf/9.2.1/../../../../../H-x86_64-pc-linux-gnu/nios2-elf/lib/libc.a(lib_a-strncmp.o)
                0x000000000804f41c                strncmp
 .text          0x000000000804f4e0        0x0 /home/tom/intelFPGA_lite/20.1/nios2eds/bin/gnu/H-x86_64-pc-linux-gnu/bin/../lib/gcc/nios2-elf/9.2.1/../../../../../H-x86_64-pc-linux-gnu/nios2-elf/lib/libc.a(lib_a-strncpy.o)
 .text.strncpy  0x000000000804f4e0       0xb8 /home/tom/intelFPGA_lite/20.1/nios2eds/bin/gnu/H-x86_64-pc-linux-gnu/bin/../lib/gcc/nios2-elf/9.2.1/../../../../../H-x86_64-pc-linux-gnu/nios2-elf/lib/libc.a(lib_a-strncpy.o)
                0x000000000804f4e0                strncpy
 .text          0x000000000804f598        0x0 /home/tom/intelFPGA_lite/20.1/nios2eds/bin/gnu/H-x86_64-pc-linux-gnu/bin/../lib/gcc/nios2-elf/9.2.1/../../../../../H-x86_64-pc-linux-gnu/nios2-elf/lib/libc.a(lib_a-strtol.o)
 .text._strtol_l.isra.0
                0x000000000804f598      0x224 /home/tom/intelFPGA_lite/20.1/nios2eds/bin/gnu/H-x86_64-pc-linux-gnu/bin/../lib/gcc/nios2-elf/9.2.1/../../../../../H-x86_64-pc-linux-gnu/nios2-elf/lib/libc.a(lib_a-strtol.o)
 .text._strtol_r
                0x000000000804f7bc        0x4 /home/tom/intelFPGA_lite/20.1/nios2eds/bin/gnu/H-x86_64-pc-linux-gnu/bin/../lib/gcc/nios2-elf/9.2.1/../../../../../H-x86_64-pc-linux-gnu/nios2-elf/lib/libc.a(lib_a-strtol.o)
                0x000000000804f7bc                _strtol_r
 .text.strtol_l
                0x000000000804f7c0       0x1c /home/tom/intelFPGA_lite/20.1/nios2eds/bin/gnu/H-x86_64-pc-linux-gnu/bin/../lib/gcc/nios2-elf/9.2.1/../../../../../H-x86_64-pc-linux-gnu/nios2-elf/lib/libc.a(lib_a-strtol.o)
                0x000000000804f7c0                strtol_l
 .text.strtol   0x000000000804f7dc       0x1c /home/tom/intelFPGA_lite/20.1/nios2eds/bin/gnu/H-x86_64-pc-linux-gnu/bin/../lib/gcc/nios2-elf/9.2.1/../../../../../H-x86_64-pc-linux-gnu/nios2-elf/lib/libc.a(lib_a-strtol.o)
                0x000000000804f7dc                strtol
 .text          0x000000000804f7f8        0x0 /home/tom/intelFPGA_lite/20.1/nios2eds/bin/gnu/H-x86_64-pc-linux-gnu/bin/../lib/gcc/nios2-elf/9.2.1/../../../../../H-x86_64-pc-linux-gnu/nios2-elf/lib/libc.a(lib_a-vprintf.o)
 .text.vprintf  0x000000000804f7f8       0x1c /home/tom/intelFPGA_lite/20.1/nios2eds/bin/gnu/H-x86_64-pc-linux-gnu/bin/../lib/gcc/nios2-elf/9.2.1/../../../../../H-x86_64-pc-linux-gnu/nios2-elf/lib/libc.a(lib_a-vprintf.o)
                0x000000000804f7f8                vprintf
 .text._vprintf_r
                0x000000000804f814       0x14 /home/tom/intelFPGA_lite/20.1/nios2eds/bin/gnu/H-x86_64-pc-linux-gnu/bin/../lib/gcc/nios2-elf/9.2.1/../../../../../H-x86_64-pc-linux-gnu/nios2-elf/lib/libc.a(lib_a-vprintf.o)
                0x000000000804f814                _vprintf_r
 .text          0x000000000804f828        0x0 /home/tom/intelFPGA_lite/20.1/nios2eds/bin/gnu/H-x86_64-pc-linux-gnu/bin/../lib/gcc/nios2-elf/9.2.1/../../../../../H-x86_64-pc-linux-gnu/nios2-elf/lib/libc.a(lib_a-vsprintf.o)
 .text._vsprintf_r
                0x000000000804f828       0x4c /home/tom/intelFPGA_lite/20.1/nios2eds/bin/gnu/H-x86_64-pc-linux-gnu/bin/../lib/gcc/nios2-elf/9.2.1/../../../../../H-x86_64-pc-linux-gnu/nios2-elf/lib/libc.a(lib_a-vsprintf.o)
                0x000000000804f828                _vsprintf_r
 .text.vsprintf
                0x000000000804f874       0x1c /home/tom/intelFPGA_lite/20.1/nios2eds/bin/gnu/H-x86_64-pc-linux-gnu/bin/../lib/gcc/nios2-elf/9.2.1/../../../../../H-x86_64-pc-linux-gnu/nios2-elf/lib/libc.a(lib_a-vsprintf.o)
                0x000000000804f874                vsprintf
 .text          0x000000000804f890        0x0 /home/tom/intelFPGA_lite/20.1/nios2eds/bin/gnu/H-x86_64-pc-linux-gnu/bin/../lib/gcc/nios2-elf/9.2.1/../../../../../H-x86_64-pc-linux-gnu/nios2-elf/lib/libc.a(lib_a-__atexit.o)
 .text.__register_exitproc
                0x000000000804f890       0x90 /home/tom/intelFPGA_lite/20.1/nios2eds/bin/gnu/H-x86_64-pc-linux-gnu/bin/../lib/gcc/nios2-elf/9.2.1/../../../../../H-x86_64-pc-linux-gnu/nios2-elf/lib/libc.a(lib_a-__atexit.o)
                0x000000000804f890                __register_exitproc
 .text          0x000000000804f920        0x0 /home/tom/intelFPGA_lite/20.1/nios2eds/bin/gnu/H-x86_64-pc-linux-gnu/bin/../lib/gcc/nios2-elf/9.2.1/../../../../../H-x86_64-pc-linux-gnu/nios2-elf/lib/libc.a(lib_a-__call_atexit.o)
 .text.__call_exitprocs
                0x000000000804f920      0x120 /home/tom/intelFPGA_lite/20.1/nios2eds/bin/gnu/H-x86_64-pc-linux-gnu/bin/../lib/gcc/nios2-elf/9.2.1/../../../../../H-x86_64-pc-linux-gnu/nios2-elf/lib/libc.a(lib_a-__call_atexit.o)
                0x000000000804f920                __call_exitprocs
 .text          0x000000000804fa40        0x0 /home/tom/intelFPGA_lite/20.1/nios2eds/bin/gnu/H-x86_64-pc-linux-gnu/bin/../lib/gcc/nios2-elf/9.2.1/../../../../../H-x86_64-pc-linux-gnu/nios2-elf/lib/libc.a(lib_a-vfprintfr_1.o)
 .text._vfprintf_r
                0x000000000804fa40        0x4 /home/tom/intelFPGA_lite/20.1/nios2eds/bin/gnu/H-x86_64-pc-linux-gnu/bin/../lib/gcc/nios2-elf/9.2.1/../../../../../H-x86_64-pc-linux-gnu/nios2-elf/lib/libc.a(lib_a-vfprintfr_1.o)
                0x000000000804fa40                _vfprintf_r
 *(.gnu.warning.*)
 *(.fini)
                [!provide]                        PROVIDE (__etext = ABSOLUTE (.))
                [!provide]                        PROVIDE (_etext = ABSOLUTE (.))
                [!provide]                        PROVIDE (etext = ABSOLUTE (.))
 *(.eh_frame_hdr)
                0x000000000804fa44                . = ALIGN (0x4)
                [!provide]                        PROVIDE (__preinit_array_start = ABSOLUTE (.))
 *(.preinit_array)
                [!provide]                        PROVIDE (__preinit_array_end = ABSOLUTE (.))
                [!provide]                        PROVIDE (__init_array_start = ABSOLUTE (.))
 *(.init_array)
                [!provide]                        PROVIDE (__init_array_end = ABSOLUTE (.))
                [!provide]                        PROVIDE (__fini_array_start = ABSOLUTE (.))
 *(.fini_array)
                [!provide]                        PROVIDE (__fini_array_end = ABSOLUTE (.))
 *(.eh_frame)
 *(.gcc_except_table .gcc_except_table.*)
 *(.dynamic)
                0x000000000804fa44                PROVIDE (__CTOR_LIST__ = ABSOLUTE (.))
 *(.ctors)
 *(SORT_BY_NAME(.ctors.*))
                0x000000000804fa44                PROVIDE (__CTOR_END__ = ABSOLUTE (.))
                0x000000000804fa44                PROVIDE (__DTOR_LIST__ = ABSOLUTE (.))
 *(.dtors)
 *(SORT_BY_NAME(.dtors.*))
                0x000000000804fa44                PROVIDE (__DTOR_END__ = ABSOLUTE (.))
 *(.jcr)
                0x000000000804fa44                . = ALIGN (0x4)

.rodata         0x000000000804fa44     0x6738
                [!provide]                        PROVIDE (__ram_rodata_start = ABSOLUTE (.))
                0x000000000804fa44                . = ALIGN (0x4)
 *(.rodata .rodata.* .gnu.linkonce.r.*)
 .rodata        0x000000000804fa44      0x4ae obj/default/DELHProtocol.o
 *fill*         0x000000000804fef2        0x2 
 .rodata        0x000000000804fef4      0x23f obj/default/InitializePeriph.o
 *fill*         0x0000000008050133        0x1 
 .rodata        0x0000000008050134      0xba2 obj/default/alt_error_handler.o
 *fill*         0x0000000008050cd6        0x2 
 .rodata        0x0000000008050cd8       0x3a obj/default/iniche_init.o
 *fill*         0x0000000008050d12        0x2 
 .rodata        0x0000000008050d14      0x1e8 obj/default/network_utilities.o
 .rodata        0x0000000008050efc       0xea obj/default/simple_socket_server.o
 *fill*         0x0000000008050fe6        0x2 
 .rodata        0x0000000008050fe8       0x27 obj/default/tse_my_system.o
 *fill*         0x000000000805100f        0x1 
 .rodata._ctype_
                0x0000000008051010      0x101 /home/tom/intelFPGA_lite/20.1/nios2eds/bin/gnu/H-x86_64-pc-linux-gnu/bin/../lib/gcc/nios2-elf/9.2.1/../../../../../H-x86_64-pc-linux-gnu/nios2-elf/lib/libc.a(lib_a-ctype_.o)
                0x0000000008051010                _ctype_
 *fill*         0x0000000008051111        0x3 
 .rodata._ctype_b
                0x0000000008051114      0x180 /home/tom/intelFPGA_lite/20.1/nios2eds/bin/gnu/H-x86_64-pc-linux-gnu/bin/../lib/gcc/nios2-elf/9.2.1/../../../../../H-x86_64-pc-linux-gnu/nios2-elf/lib/libc.a(lib_a-ctype_.o)
                0x0000000008051114                _ctype_b
 .rodata._perror_r.str1.4
                0x0000000008051294        0x6 /home/tom/intelFPGA_lite/20.1/nios2eds/bin/gnu/H-x86_64-pc-linux-gnu/bin/../lib/gcc/nios2-elf/9.2.1/../../../../../H-x86_64-pc-linux-gnu/nios2-elf/lib/libc.a(lib_a-perror.o)
 .rodata._puts_r.str1.4
                0x000000000805129a        0x2 /home/tom/intelFPGA_lite/20.1/nios2eds/bin/gnu/H-x86_64-pc-linux-gnu/bin/../lib/gcc/nios2-elf/9.2.1/../../../../../H-x86_64-pc-linux-gnu/nios2-elf/lib/libc.a(lib_a-puts.o)
 *fill*         0x000000000805129a        0x2 
 .rodata._strerror_r.str1.4
                0x000000000805129c      0x700 /home/tom/intelFPGA_lite/20.1/nios2eds/bin/gnu/H-x86_64-pc-linux-gnu/bin/../lib/gcc/nios2-elf/9.2.1/../../../../../H-x86_64-pc-linux-gnu/nios2-elf/lib/libc.a(lib_a-strerror.o)
                                        0x701 (size before relaxing)
 .rodata.___svfprintf_internal_r.str1.4
                0x000000000805199c       0x42 /home/tom/intelFPGA_lite/20.1/nios2eds/bin/gnu/H-x86_64-pc-linux-gnu/bin/../lib/gcc/nios2-elf/9.2.1/../../../../../H-x86_64-pc-linux-gnu/nios2-elf/lib/libc.a(lib_a-svfprintf.o)
 *fill*         0x00000000080519de        0x2 
 .rodata.zeroes.5158
                0x00000000080519e0       0x10 /home/tom/intelFPGA_lite/20.1/nios2eds/bin/gnu/H-x86_64-pc-linux-gnu/bin/../lib/gcc/nios2-elf/9.2.1/../../../../../H-x86_64-pc-linux-gnu/nios2-elf/lib/libc.a(lib_a-svfprintf.o)
 .rodata.blanks.5157
                0x00000000080519f0       0x10 /home/tom/intelFPGA_lite/20.1/nios2eds/bin/gnu/H-x86_64-pc-linux-gnu/bin/../lib/gcc/nios2-elf/9.2.1/../../../../../H-x86_64-pc-linux-gnu/nios2-elf/lib/libc.a(lib_a-svfprintf.o)
 .rodata.___vfprintf_internal_r.str1.4
                0x0000000008051a00       0x42 /home/tom/intelFPGA_lite/20.1/nios2eds/bin/gnu/H-x86_64-pc-linux-gnu/bin/../lib/gcc/nios2-elf/9.2.1/../../../../../H-x86_64-pc-linux-gnu/nios2-elf/lib/libc.a(lib_a-vfprintf.o)
 .rodata.zeroes.5177
                0x0000000008051a00       0x10 /home/tom/intelFPGA_lite/20.1/nios2eds/bin/gnu/H-x86_64-pc-linux-gnu/bin/../lib/gcc/nios2-elf/9.2.1/../../../../../H-x86_64-pc-linux-gnu/nios2-elf/lib/libc.a(lib_a-vfprintf.o)
 .rodata.blanks.5176
                0x0000000008051a10       0x10 /home/tom/intelFPGA_lite/20.1/nios2eds/bin/gnu/H-x86_64-pc-linux-gnu/bin/../lib/gcc/nios2-elf/9.2.1/../../../../../H-x86_64-pc-linux-gnu/nios2-elf/lib/libc.a(lib_a-vfprintf.o)
 .rodata._dtoa_r.str1.4
                0x0000000008051a20       0x5e /home/tom/intelFPGA_lite/20.1/nios2eds/bin/gnu/H-x86_64-pc-linux-gnu/bin/../lib/gcc/nios2-elf/9.2.1/../../../../../H-x86_64-pc-linux-gnu/nios2-elf/lib/libc.a(lib_a-dtoa.o)
                                         0x62 (size before relaxing)
 *fill*         0x0000000008051a7e        0x2 
 .rodata.__multadd.str1.4
                0x0000000008051a80       0x3b /home/tom/intelFPGA_lite/20.1/nios2eds/bin/gnu/H-x86_64-pc-linux-gnu/bin/../lib/gcc/nios2-elf/9.2.1/../../../../../H-x86_64-pc-linux-gnu/nios2-elf/lib/libc.a(lib_a-mprec.o)
                                         0x4f (size before relaxing)
 *fill*         0x0000000008051abb        0x1 
 .rodata.p05.3991
                0x0000000008051abc        0xc /home/tom/intelFPGA_lite/20.1/nios2eds/bin/gnu/H-x86_64-pc-linux-gnu/bin/../lib/gcc/nios2-elf/9.2.1/../../../../../H-x86_64-pc-linux-gnu/nios2-elf/lib/libc.a(lib_a-mprec.o)
 .rodata.__mprec_tinytens
                0x0000000008051ac8       0x28 /home/tom/intelFPGA_lite/20.1/nios2eds/bin/gnu/H-x86_64-pc-linux-gnu/bin/../lib/gcc/nios2-elf/9.2.1/../../../../../H-x86_64-pc-linux-gnu/nios2-elf/lib/libc.a(lib_a-mprec.o)
                0x0000000008051ac8                __mprec_tinytens
 .rodata.__mprec_bigtens
                0x0000000008051af0       0x28 /home/tom/intelFPGA_lite/20.1/nios2eds/bin/gnu/H-x86_64-pc-linux-gnu/bin/../lib/gcc/nios2-elf/9.2.1/../../../../../H-x86_64-pc-linux-gnu/nios2-elf/lib/libc.a(lib_a-mprec.o)
                0x0000000008051af0                __mprec_bigtens
 .rodata.__mprec_tens
                0x0000000008051b18       0xc8 /home/tom/intelFPGA_lite/20.1/nios2eds/bin/gnu/H-x86_64-pc-linux-gnu/bin/../lib/gcc/nios2-elf/9.2.1/../../../../../H-x86_64-pc-linux-gnu/nios2-elf/lib/libc.a(lib_a-mprec.o)
                0x0000000008051b18                __mprec_tens
 .rodata.___svfiprintf_internal_r.str1.4
                0x0000000008051be0       0x2f /home/tom/intelFPGA_lite/20.1/nios2eds/bin/gnu/H-x86_64-pc-linux-gnu/bin/../lib/gcc/nios2-elf/9.2.1/../../../../../H-x86_64-pc-linux-gnu/nios2-elf/lib/libc.a(lib_a-svfiprintf.o)
 .rodata.zeroes.5138
                0x0000000008051be0       0x10 /home/tom/intelFPGA_lite/20.1/nios2eds/bin/gnu/H-x86_64-pc-linux-gnu/bin/../lib/gcc/nios2-elf/9.2.1/../../../../../H-x86_64-pc-linux-gnu/nios2-elf/lib/libc.a(lib_a-svfiprintf.o)
 .rodata.blanks.5137
                0x0000000008051bf0       0x10 /home/tom/intelFPGA_lite/20.1/nios2eds/bin/gnu/H-x86_64-pc-linux-gnu/bin/../lib/gcc/nios2-elf/9.2.1/../../../../../H-x86_64-pc-linux-gnu/nios2-elf/lib/libc.a(lib_a-svfiprintf.o)
 .rodata.___vfiprintf_internal_r.str1.4
                0x0000000008051c00       0x2f /home/tom/intelFPGA_lite/20.1/nios2eds/bin/gnu/H-x86_64-pc-linux-gnu/bin/../lib/gcc/nios2-elf/9.2.1/../../../../../H-x86_64-pc-linux-gnu/nios2-elf/lib/libc.a(lib_a-vfiprintf.o)
 .rodata.zeroes.5154
                0x0000000008051c00       0x10 /home/tom/intelFPGA_lite/20.1/nios2eds/bin/gnu/H-x86_64-pc-linux-gnu/bin/../lib/gcc/nios2-elf/9.2.1/../../../../../H-x86_64-pc-linux-gnu/nios2-elf/lib/libc.a(lib_a-vfiprintf.o)
 .rodata.blanks.5153
                0x0000000008051c10       0x10 /home/tom/intelFPGA_lite/20.1/nios2eds/bin/gnu/H-x86_64-pc-linux-gnu/bin/../lib/gcc/nios2-elf/9.2.1/../../../../../H-x86_64-pc-linux-gnu/nios2-elf/lib/libc.a(lib_a-vfiprintf.o)
 .rodata.__assert_func.str1.4
                0x0000000008051c20       0x3f /home/tom/intelFPGA_lite/20.1/nios2eds/bin/gnu/H-x86_64-pc-linux-gnu/bin/../lib/gcc/nios2-elf/9.2.1/../../../../../H-x86_64-pc-linux-gnu/nios2-elf/lib/libc.a(lib_a-assert.o)
                                         0x43 (size before relaxing)
 *fill*         0x0000000008051c5f        0x1 
 .rodata._setlocale_r.str1.4
                0x0000000008051c60        0xa /home/tom/intelFPGA_lite/20.1/nios2eds/bin/gnu/H-x86_64-pc-linux-gnu/bin/../lib/gcc/nios2-elf/9.2.1/../../../../../H-x86_64-pc-linux-gnu/nios2-elf/lib/libc.a(lib_a-locale.o)
 *fill*         0x0000000008051c6a        0x2 
 .rodata.str1.4
                0x0000000008051c6c        0x4 /home/tom/intelFPGA_lite/20.1/nios2eds/bin/gnu/H-x86_64-pc-linux-gnu/bin/../lib/gcc/nios2-elf/9.2.1/../../../../../H-x86_64-pc-linux-gnu/nios2-elf/lib/libc.a(lib_a-locale.o)
                                          0x5 (size before relaxing)
 .rodata        0x0000000008051c70      0x100 /home/tom/intelFPGA_lite/20.1/nios2eds/bin/gnu/H-x86_64-pc-linux-gnu/bin/../lib/gcc/nios2-elf/9.2.1/libgcc.a(_clz.o)
                0x0000000008051c70                __clz_tab
 .rodata        0x0000000008051d70        0xf ../MOD_socket_server_bsp//libucosii_bsp.a(alt_main.o)
 *fill*         0x0000000008051d7f        0x1 
 .rodata        0x0000000008051d80      0x11e ../MOD_socket_server_bsp//libucosii_bsp.a(os_core.o)
                0x0000000008051d80                OSUnMapTbl
 *fill*         0x0000000008051e9e        0x2 
 .rodata        0x0000000008051ea0       0xb7 ../MOD_socket_server_bsp//libucosii_bsp.a(alt_sys_init.o)
 *fill*         0x0000000008051f57        0x1 
 .rodata        0x0000000008051f58       0x1d ../MOD_socket_server_bsp//libucosii_bsp.a(altera_avalon_i2c.o)
 *fill*         0x0000000008051f75        0x3 
 .rodata        0x0000000008051f78     0x1c66 ../MOD_socket_server_bsp//libucosii_bsp.a(altera_avalon_tse.o)
 *fill*         0x0000000008053bde        0x2 
 .rodata        0x0000000008053be0      0x1ed ../MOD_socket_server_bsp//libucosii_bsp.a(altera_msgdma.o)
 *fill*         0x0000000008053dcd        0x3 
 .rodata        0x0000000008053dd0      0x385 ../MOD_socket_server_bsp//libucosii_bsp.a(ins_tse_mac.o)
 *fill*         0x0000000008054155        0x3 
 .rodata        0x0000000008054158       0xd7 ../MOD_socket_server_bsp//libucosii_bsp.a(ipnet.o)
 *fill*         0x000000000805422f        0x1 
 .rodata        0x0000000008054230       0xec ../MOD_socket_server_bsp//libucosii_bsp.a(ipstart.o)
 .rodata        0x000000000805431c      0x54b ../MOD_socket_server_bsp//libucosii_bsp.a(igmp_cmn.o)
 *fill*         0x0000000008054867        0x1 
 .rodata        0x0000000008054868       0xb6 ../MOD_socket_server_bsp//libucosii_bsp.a(in_utils.o)
 *fill*         0x000000000805491e        0x2 
 .rodata        0x0000000008054920       0x34 ../MOD_socket_server_bsp//libucosii_bsp.a(netmain.o)
 .rodata        0x0000000008054954      0x1a8 ../MOD_socket_server_bsp//libucosii_bsp.a(tk_crnos.o)
 .rodata        0x0000000008054afc        0x7 ../MOD_socket_server_bsp//libucosii_bsp.a(dhcpclnt.o)
 *fill*         0x0000000008054b03        0x1 
 .rodata        0x0000000008054b04      0x117 ../MOD_socket_server_bsp//libucosii_bsp.a(pktalloc.o)
 *fill*         0x0000000008054c1b        0x1 
 .rodata        0x0000000008054c1c       0x81 ../MOD_socket_server_bsp//libucosii_bsp.a(udp_open.o)
 *fill*         0x0000000008054c9d        0x3 
 .rodata        0x0000000008054ca0       0x2c ../MOD_socket_server_bsp//libucosii_bsp.a(brdutils.o)
 .rodata        0x0000000008054ccc      0x26a ../MOD_socket_server_bsp//libucosii_bsp.a(osportco.o)
 *fill*         0x0000000008054f36        0x2 
 .rodata        0x0000000008054f38       0x9f ../MOD_socket_server_bsp//libucosii_bsp.a(targnios.o)
 *fill*         0x0000000008054fd7        0x1 
 .rodata        0x0000000008054fd8       0x90 ../MOD_socket_server_bsp//libucosii_bsp.a(nptcp.o)
 .rodata        0x0000000008055068        0x7 ../MOD_socket_server_bsp//libucosii_bsp.a(sockcall.o)
 *fill*         0x000000000805506f        0x1 
 .rodata        0x0000000008055070       0x4d ../MOD_socket_server_bsp//libucosii_bsp.a(socket.o)
 *fill*         0x00000000080550bd        0x3 
 .rodata        0x00000000080550c0       0x3f ../MOD_socket_server_bsp//libucosii_bsp.a(socket2.o)
 *fill*         0x00000000080550ff        0x1 
 .rodata        0x0000000008055100       0x1e ../MOD_socket_server_bsp//libucosii_bsp.a(tcp_in.o)
 *fill*         0x000000000805511e        0x2 
 .rodata        0x0000000008055120       0x3d ../MOD_socket_server_bsp//libucosii_bsp.a(tcp_out.o)
 *fill*         0x000000000805515d        0x3 
 .rodata        0x0000000008055160       0x23 ../MOD_socket_server_bsp//libucosii_bsp.a(tcp_subr.o)
 *fill*         0x0000000008055183        0x1 
 .rodata        0x0000000008055184       0x2b ../MOD_socket_server_bsp//libucosii_bsp.a(tcp_usr.o)
 *fill*         0x00000000080551af        0x1 
 .rodata        0x00000000080551b0        0xa ../MOD_socket_server_bsp//libucosii_bsp.a(alt_dev.o)
 *fill*         0x00000000080551ba        0x2 
 .rodata        0x00000000080551bc      0x1d1 ../MOD_socket_server_bsp//libucosii_bsp.a(allports.o)
 *fill*         0x000000000805538d        0x3 
 .rodata        0x0000000008055390       0x32 ../MOD_socket_server_bsp//libucosii_bsp.a(tk_misc.o)
 *fill*         0x00000000080553c2        0x2 
 .rodata        0x00000000080553c4       0x41 ../MOD_socket_server_bsp//libucosii_bsp.a(et_arp.o)
 *fill*         0x0000000008055405        0x3 
 .rodata        0x0000000008055408      0x1dc ../MOD_socket_server_bsp//libucosii_bsp.a(ip.o)
 .rodata        0x00000000080555e4      0x155 ../MOD_socket_server_bsp//libucosii_bsp.a(ip_reasm.o)
 *fill*         0x0000000008055739        0x3 
 .rodata        0x000000000805573c      0x11d ../MOD_socket_server_bsp//libucosii_bsp.a(ipdemux.o)
 *fill*         0x0000000008055859        0x3 
 .rodata        0x000000000805585c       0x31 ../MOD_socket_server_bsp//libucosii_bsp.a(ipport.o)
 *fill*         0x000000000805588d        0x3 
 .rodata        0x0000000008055890       0x22 ../MOD_socket_server_bsp//libucosii_bsp.a(ipraw.o)
 *fill*         0x00000000080558b2        0x2 
 .rodata        0x00000000080558b4       0x35 ../MOD_socket_server_bsp//libucosii_bsp.a(iproute.o)
 *fill*         0x00000000080558e9        0x3 
 .rodata        0x00000000080558ec       0xe8 ../MOD_socket_server_bsp//libucosii_bsp.a(udp.o)
 .rodata        0x00000000080559d4      0x2ce ../MOD_socket_server_bsp//libucosii_bsp.a(u_mctest.o)
 *fill*         0x0000000008055ca2        0x2 
 .rodata        0x0000000008055ca4       0xf5 ../MOD_socket_server_bsp//libucosii_bsp.a(dhcsetup.o)
 *fill*         0x0000000008055d99        0x3 
 .rodata        0x0000000008055d9c       0x93 ../MOD_socket_server_bsp//libucosii_bsp.a(parseip.o)
 *fill*         0x0000000008055e2f        0x1 
 .rodata        0x0000000008055e30       0x31 ../MOD_socket_server_bsp//libucosii_bsp.a(vfsfiles.o)
 *fill*         0x0000000008055e61        0x3 
 .rodata        0x0000000008055e64      0x317 ../MOD_socket_server_bsp//libucosii_bsp.a(icmp.o)
 *(.rodata1)
                0x000000000805617c                . = ALIGN (0x4)
 *fill*         0x000000000805617b        0x1 
                [!provide]                        PROVIDE (__ram_rodata_end = ABSOLUTE (.))
                [!provide]                        PROVIDE (__flash_rodata_start = LOADADDR (.rodata))

.rwdata         0x0000000008056180     0x2b7c
                [!provide]                        PROVIDE (__ram_rwdata_start = ABSOLUTE (.))
                0x0000000008056180                . = ALIGN (0x4)
 *(.got.plt)
 *(.got)
 *(.data1)
 *(.data .data.* .gnu.linkonce.d.*)
 .data          0x0000000008056180        0x0 ../MOD_socket_server_bsp//obj/HAL/src/crt0.o
 .data          0x0000000008056180      0x858 obj/default/ClockModInit.o
                0x0000000008056180                ClockPreface
                0x0000000008056190                ClockBody
 .data          0x00000000080569d8        0x0 obj/default/DELHProtocol.o
 .data          0x00000000080569d8        0x0 obj/default/InitializePeriph.o
 .data          0x00000000080569d8        0x0 obj/default/alt_error_handler.o
 .data          0x00000000080569d8       0x18 obj/default/iniche_init.o
                0x00000000080569d8                ssstask
 .data          0x00000000080569f0        0x0 obj/default/led.o
 .data          0x00000000080569f0        0x0 obj/default/network_utilities.o
 .data          0x00000000080569f0        0x0 obj/default/simple_socket_server.o
 .data          0x00000000080569f0      0x130 obj/default/tse_my_system.o
                0x00000000080569f0                tse_mac_device
 .data          0x0000000008056b20        0x0 /home/tom/intelFPGA_lite/20.1/nios2eds/bin/gnu/H-x86_64-pc-linux-gnu/bin/../lib/gcc/nios2-elf/9.2.1/../../../../../H-x86_64-pc-linux-gnu/nios2-elf/lib/libc.a(lib_a-ctype_.o)
 .data          0x0000000008056b20        0x0 /home/tom/intelFPGA_lite/20.1/nios2eds/bin/gnu/H-x86_64-pc-linux-gnu/bin/../lib/gcc/nios2-elf/9.2.1/../../../../../H-x86_64-pc-linux-gnu/nios2-elf/lib/libc.a(lib_a-fprintf.o)
 .data          0x0000000008056b20        0x0 /home/tom/intelFPGA_lite/20.1/nios2eds/bin/gnu/H-x86_64-pc-linux-gnu/bin/../lib/gcc/nios2-elf/9.2.1/../../../../../H-x86_64-pc-linux-gnu/nios2-elf/lib/libc.a(lib_a-fwrite.o)
 .data          0x0000000008056b20        0x0 /home/tom/intelFPGA_lite/20.1/nios2eds/bin/gnu/H-x86_64-pc-linux-gnu/bin/../lib/gcc/nios2-elf/9.2.1/../../../../../H-x86_64-pc-linux-gnu/nios2-elf/lib/libc.a(lib_a-getchar.o)
 .data          0x0000000008056b20        0x0 /home/tom/intelFPGA_lite/20.1/nios2eds/bin/gnu/H-x86_64-pc-linux-gnu/bin/../lib/gcc/nios2-elf/9.2.1/../../../../../H-x86_64-pc-linux-gnu/nios2-elf/lib/libc.a(lib_a-impure.o)
 .data.impure_data
                0x0000000008056b20      0x424 /home/tom/intelFPGA_lite/20.1/nios2eds/bin/gnu/H-x86_64-pc-linux-gnu/bin/../lib/gcc/nios2-elf/9.2.1/../../../../../H-x86_64-pc-linux-gnu/nios2-elf/lib/libc.a(lib_a-impure.o)
 .data          0x0000000008056f44        0x0 /home/tom/intelFPGA_lite/20.1/nios2eds/bin/gnu/H-x86_64-pc-linux-gnu/bin/../lib/gcc/nios2-elf/9.2.1/../../../../../H-x86_64-pc-linux-gnu/nios2-elf/lib/libc.a(lib_a-memcmp.o)
 .data          0x0000000008056f44        0x0 /home/tom/intelFPGA_lite/20.1/nios2eds/bin/gnu/H-x86_64-pc-linux-gnu/bin/../lib/gcc/nios2-elf/9.2.1/../../../../../H-x86_64-pc-linux-gnu/nios2-elf/lib/libc.a(lib_a-memcpy.o)
 .data          0x0000000008056f44        0x0 /home/tom/intelFPGA_lite/20.1/nios2eds/bin/gnu/H-x86_64-pc-linux-gnu/bin/../lib/gcc/nios2-elf/9.2.1/../../../../../H-x86_64-pc-linux-gnu/nios2-elf/lib/libc.a(lib_a-memset.o)
 .data          0x0000000008056f44        0x0 /home/tom/intelFPGA_lite/20.1/nios2eds/bin/gnu/H-x86_64-pc-linux-gnu/bin/../lib/gcc/nios2-elf/9.2.1/../../../../../H-x86_64-pc-linux-gnu/nios2-elf/lib/libc.a(lib_a-perror.o)
 .data          0x0000000008056f44        0x0 /home/tom/intelFPGA_lite/20.1/nios2eds/bin/gnu/H-x86_64-pc-linux-gnu/bin/../lib/gcc/nios2-elf/9.2.1/../../../../../H-x86_64-pc-linux-gnu/nios2-elf/lib/libc.a(lib_a-printf.o)
 .data          0x0000000008056f44        0x0 /home/tom/intelFPGA_lite/20.1/nios2eds/bin/gnu/H-x86_64-pc-linux-gnu/bin/../lib/gcc/nios2-elf/9.2.1/../../../../../H-x86_64-pc-linux-gnu/nios2-elf/lib/libc.a(lib_a-putchar.o)
 .data          0x0000000008056f44        0x0 /home/tom/intelFPGA_lite/20.1/nios2eds/bin/gnu/H-x86_64-pc-linux-gnu/bin/../lib/gcc/nios2-elf/9.2.1/../../../../../H-x86_64-pc-linux-gnu/nios2-elf/lib/libc.a(lib_a-puts.o)
 .data          0x0000000008056f44        0x0 /home/tom/intelFPGA_lite/20.1/nios2eds/bin/gnu/H-x86_64-pc-linux-gnu/bin/../lib/gcc/nios2-elf/9.2.1/../../../../../H-x86_64-pc-linux-gnu/nios2-elf/lib/libc.a(lib_a-sprintf.o)
 .data          0x0000000008056f44        0x0 /home/tom/intelFPGA_lite/20.1/nios2eds/bin/gnu/H-x86_64-pc-linux-gnu/bin/../lib/gcc/nios2-elf/9.2.1/../../../../../H-x86_64-pc-linux-gnu/nios2-elf/lib/libc.a(lib_a-strcpy.o)
 .data          0x0000000008056f44        0x0 /home/tom/intelFPGA_lite/20.1/nios2eds/bin/gnu/H-x86_64-pc-linux-gnu/bin/../lib/gcc/nios2-elf/9.2.1/../../../../../H-x86_64-pc-linux-gnu/nios2-elf/lib/libc.a(lib_a-strerror.o)
 .data          0x0000000008056f44        0x0 /home/tom/intelFPGA_lite/20.1/nios2eds/bin/gnu/H-x86_64-pc-linux-gnu/bin/../lib/gcc/nios2-elf/9.2.1/../../../../../H-x86_64-pc-linux-gnu/nios2-elf/lib/libc.a(lib_a-strlen.o)
 .data          0x0000000008056f44        0x0 /home/tom/intelFPGA_lite/20.1/nios2eds/bin/gnu/H-x86_64-pc-linux-gnu/bin/../lib/gcc/nios2-elf/9.2.1/../../../../../H-x86_64-pc-linux-gnu/nios2-elf/lib/libc.a(lib_a-strtok.o)
 .data          0x0000000008056f44        0x0 /home/tom/intelFPGA_lite/20.1/nios2eds/bin/gnu/H-x86_64-pc-linux-gnu/bin/../lib/gcc/nios2-elf/9.2.1/../../../../../H-x86_64-pc-linux-gnu/nios2-elf/lib/libc.a(lib_a-strtok_r.o)
 .data          0x0000000008056f44        0x0 /home/tom/intelFPGA_lite/20.1/nios2eds/bin/gnu/H-x86_64-pc-linux-gnu/bin/../lib/gcc/nios2-elf/9.2.1/../../../../../H-x86_64-pc-linux-gnu/nios2-elf/lib/libc.a(lib_a-strtoul.o)
 .data          0x0000000008056f44        0x0 /home/tom/intelFPGA_lite/20.1/nios2eds/bin/gnu/H-x86_64-pc-linux-gnu/bin/../lib/gcc/nios2-elf/9.2.1/../../../../../H-x86_64-pc-linux-gnu/nios2-elf/lib/libc.a(lib_a-svfprintf.o)
 .data          0x0000000008056f44        0x0 /home/tom/intelFPGA_lite/20.1/nios2eds/bin/gnu/H-x86_64-pc-linux-gnu/bin/../lib/gcc/nios2-elf/9.2.1/../../../../../H-x86_64-pc-linux-gnu/nios2-elf/lib/libc.a(lib_a-u_strerr.o)
 .data          0x0000000008056f44        0x0 /home/tom/intelFPGA_lite/20.1/nios2eds/bin/gnu/H-x86_64-pc-linux-gnu/bin/../lib/gcc/nios2-elf/9.2.1/../../../../../H-x86_64-pc-linux-gnu/nios2-elf/lib/libc.a(lib_a-vfprintf.o)
 .data          0x0000000008056f44        0x0 /home/tom/intelFPGA_lite/20.1/nios2eds/bin/gnu/H-x86_64-pc-linux-gnu/bin/../lib/gcc/nios2-elf/9.2.1/../../../../../H-x86_64-pc-linux-gnu/nios2-elf/lib/libc.a(lib_a-writer.o)
 .data          0x0000000008056f44        0x0 /home/tom/intelFPGA_lite/20.1/nios2eds/bin/gnu/H-x86_64-pc-linux-gnu/bin/../lib/gcc/nios2-elf/9.2.1/../../../../../H-x86_64-pc-linux-gnu/nios2-elf/lib/libc.a(lib_a-wsetup.o)
 .data          0x0000000008056f44        0x0 /home/tom/intelFPGA_lite/20.1/nios2eds/bin/gnu/H-x86_64-pc-linux-gnu/bin/../lib/gcc/nios2-elf/9.2.1/../../../../../H-x86_64-pc-linux-gnu/nios2-elf/lib/libc.a(lib_a-dtoa.o)
 .data          0x0000000008056f44        0x0 /home/tom/intelFPGA_lite/20.1/nios2eds/bin/gnu/H-x86_64-pc-linux-gnu/bin/../lib/gcc/nios2-elf/9.2.1/../../../../../H-x86_64-pc-linux-gnu/nios2-elf/lib/libc.a(lib_a-fflush.o)
 .data          0x0000000008056f44        0x0 /home/tom/intelFPGA_lite/20.1/nios2eds/bin/gnu/H-x86_64-pc-linux-gnu/bin/../lib/gcc/nios2-elf/9.2.1/../../../../../H-x86_64-pc-linux-gnu/nios2-elf/lib/libc.a(lib_a-fileno.o)
 .data          0x0000000008056f44        0x0 /home/tom/intelFPGA_lite/20.1/nios2eds/bin/gnu/H-x86_64-pc-linux-gnu/bin/../lib/gcc/nios2-elf/9.2.1/../../../../../H-x86_64-pc-linux-gnu/nios2-elf/lib/libc.a(lib_a-findfp.o)
 .data          0x0000000008056f44        0x0 /home/tom/intelFPGA_lite/20.1/nios2eds/bin/gnu/H-x86_64-pc-linux-gnu/bin/../lib/gcc/nios2-elf/9.2.1/../../../../../H-x86_64-pc-linux-gnu/nios2-elf/lib/libc.a(lib_a-freer.o)
 .data          0x0000000008056f44        0x0 /home/tom/intelFPGA_lite/20.1/nios2eds/bin/gnu/H-x86_64-pc-linux-gnu/bin/../lib/gcc/nios2-elf/9.2.1/../../../../../H-x86_64-pc-linux-gnu/nios2-elf/lib/libc.a(lib_a-fvwrite.o)
 .data          0x0000000008056f44        0x0 /home/tom/intelFPGA_lite/20.1/nios2eds/bin/gnu/H-x86_64-pc-linux-gnu/bin/../lib/gcc/nios2-elf/9.2.1/../../../../../H-x86_64-pc-linux-gnu/nios2-elf/lib/libc.a(lib_a-fwalk.o)
 .data          0x0000000008056f44        0x0 /home/tom/intelFPGA_lite/20.1/nios2eds/bin/gnu/H-x86_64-pc-linux-gnu/bin/../lib/gcc/nios2-elf/9.2.1/../../../../../H-x86_64-pc-linux-gnu/nios2-elf/lib/libc.a(lib_a-getc.o)
 .data          0x0000000008056f44        0x0 /home/tom/intelFPGA_lite/20.1/nios2eds/bin/gnu/H-x86_64-pc-linux-gnu/bin/../lib/gcc/nios2-elf/9.2.1/../../../../../H-x86_64-pc-linux-gnu/nios2-elf/lib/libc.a(lib_a-int_errno.o)
 .data          0x0000000008056f44        0x0 /home/tom/intelFPGA_lite/20.1/nios2eds/bin/gnu/H-x86_64-pc-linux-gnu/bin/../lib/gcc/nios2-elf/9.2.1/../../../../../H-x86_64-pc-linux-gnu/nios2-elf/lib/libc.a(lib_a-localeconv.o)
 .data          0x0000000008056f44        0x0 /home/tom/intelFPGA_lite/20.1/nios2eds/bin/gnu/H-x86_64-pc-linux-gnu/bin/../lib/gcc/nios2-elf/9.2.1/../../../../../H-x86_64-pc-linux-gnu/nios2-elf/lib/libc.a(lib_a-makebuf.o)
 .data          0x0000000008056f44        0x0 /home/tom/intelFPGA_lite/20.1/nios2eds/bin/gnu/H-x86_64-pc-linux-gnu/bin/../lib/gcc/nios2-elf/9.2.1/../../../../../H-x86_64-pc-linux-gnu/nios2-elf/lib/libc.a(lib_a-mallocr.o)
 .data.__malloc_av_
                0x0000000008056f44      0x408 /home/tom/intelFPGA_lite/20.1/nios2eds/bin/gnu/H-x86_64-pc-linux-gnu/bin/../lib/gcc/nios2-elf/9.2.1/../../../../../H-x86_64-pc-linux-gnu/nios2-elf/lib/libc.a(lib_a-mallocr.o)
                0x0000000008056f44                __malloc_av_
 .data          0x000000000805734c        0x0 /home/tom/intelFPGA_lite/20.1/nios2eds/bin/gnu/H-x86_64-pc-linux-gnu/bin/../lib/gcc/nios2-elf/9.2.1/../../../../../H-x86_64-pc-linux-gnu/nios2-elf/lib/libc.a(lib_a-memchr.o)
 .data          0x000000000805734c        0x0 /home/tom/intelFPGA_lite/20.1/nios2eds/bin/gnu/H-x86_64-pc-linux-gnu/bin/../lib/gcc/nios2-elf/9.2.1/../../../../../H-x86_64-pc-linux-gnu/nios2-elf/lib/libc.a(lib_a-memmove.o)
 .data          0x000000000805734c        0x0 /home/tom/intelFPGA_lite/20.1/nios2eds/bin/gnu/H-x86_64-pc-linux-gnu/bin/../lib/gcc/nios2-elf/9.2.1/../../../../../H-x86_64-pc-linux-gnu/nios2-elf/lib/libc.a(lib_a-mprec.o)
 .data          0x000000000805734c        0x0 /home/tom/intelFPGA_lite/20.1/nios2eds/bin/gnu/H-x86_64-pc-linux-gnu/bin/../lib/gcc/nios2-elf/9.2.1/../../../../../H-x86_64-pc-linux-gnu/nios2-elf/lib/libc.a(lib_a-putc.o)
 .data          0x000000000805734c        0x0 /home/tom/intelFPGA_lite/20.1/nios2eds/bin/gnu/H-x86_64-pc-linux-gnu/bin/../lib/gcc/nios2-elf/9.2.1/../../../../../H-x86_64-pc-linux-gnu/nios2-elf/lib/libc.a(lib_a-reallocr.o)
 .data          0x000000000805734c        0x0 /home/tom/intelFPGA_lite/20.1/nios2eds/bin/gnu/H-x86_64-pc-linux-gnu/bin/../lib/gcc/nios2-elf/9.2.1/../../../../../H-x86_64-pc-linux-gnu/nios2-elf/lib/libc.a(lib_a-rget.o)
 .data          0x000000000805734c        0x0 /home/tom/intelFPGA_lite/20.1/nios2eds/bin/gnu/H-x86_64-pc-linux-gnu/bin/../lib/gcc/nios2-elf/9.2.1/../../../../../H-x86_64-pc-linux-gnu/nios2-elf/lib/libc.a(lib_a-sbrkr.o)
 .data          0x000000000805734c        0x0 /home/tom/intelFPGA_lite/20.1/nios2eds/bin/gnu/H-x86_64-pc-linux-gnu/bin/../lib/gcc/nios2-elf/9.2.1/../../../../../H-x86_64-pc-linux-gnu/nios2-elf/lib/libc.a(lib_a-stdio.o)
 .data          0x000000000805734c        0x0 /home/tom/intelFPGA_lite/20.1/nios2eds/bin/gnu/H-x86_64-pc-linux-gnu/bin/../lib/gcc/nios2-elf/9.2.1/../../../../../H-x86_64-pc-linux-gnu/nios2-elf/lib/libc.a(lib_a-svfiprintf.o)
 .data          0x000000000805734c        0x0 /home/tom/intelFPGA_lite/20.1/nios2eds/bin/gnu/H-x86_64-pc-linux-gnu/bin/../lib/gcc/nios2-elf/9.2.1/../../../../../H-x86_64-pc-linux-gnu/nios2-elf/lib/libc.a(lib_a-vfiprintf.o)
 .data          0x000000000805734c        0x0 /home/tom/intelFPGA_lite/20.1/nios2eds/bin/gnu/H-x86_64-pc-linux-gnu/bin/../lib/gcc/nios2-elf/9.2.1/../../../../../H-x86_64-pc-linux-gnu/nios2-elf/lib/libc.a(lib_a-wbuf.o)
 .data          0x000000000805734c        0x0 /home/tom/intelFPGA_lite/20.1/nios2eds/bin/gnu/H-x86_64-pc-linux-gnu/bin/../lib/gcc/nios2-elf/9.2.1/../../../../../H-x86_64-pc-linux-gnu/nios2-elf/lib/libc.a(closer.o)
 .data          0x000000000805734c        0x0 /home/tom/intelFPGA_lite/20.1/nios2eds/bin/gnu/H-x86_64-pc-linux-gnu/bin/../lib/gcc/nios2-elf/9.2.1/../../../../../H-x86_64-pc-linux-gnu/nios2-elf/lib/libc.a(lib_a-assert.o)
 .data          0x000000000805734c        0x0 /home/tom/intelFPGA_lite/20.1/nios2eds/bin/gnu/H-x86_64-pc-linux-gnu/bin/../lib/gcc/nios2-elf/9.2.1/../../../../../H-x86_64-pc-linux-gnu/nios2-elf/lib/libc.a(lib_a-callocr.o)
 .data          0x000000000805734c        0x0 /home/tom/intelFPGA_lite/20.1/nios2eds/bin/gnu/H-x86_64-pc-linux-gnu/bin/../lib/gcc/nios2-elf/9.2.1/../../../../../H-x86_64-pc-linux-gnu/nios2-elf/lib/libc.a(lib_a-fclose.o)
 .data          0x000000000805734c        0x0 /home/tom/intelFPGA_lite/20.1/nios2eds/bin/gnu/H-x86_64-pc-linux-gnu/bin/../lib/gcc/nios2-elf/9.2.1/../../../../../H-x86_64-pc-linux-gnu/nios2-elf/lib/libc.a(lib_a-fiprintf.o)
 .data          0x000000000805734c        0x0 /home/tom/intelFPGA_lite/20.1/nios2eds/bin/gnu/H-x86_64-pc-linux-gnu/bin/../lib/gcc/nios2-elf/9.2.1/../../../../../H-x86_64-pc-linux-gnu/nios2-elf/lib/libc.a(lib_a-fputwc.o)
 .data          0x000000000805734c        0x0 /home/tom/intelFPGA_lite/20.1/nios2eds/bin/gnu/H-x86_64-pc-linux-gnu/bin/../lib/gcc/nios2-elf/9.2.1/../../../../../H-x86_64-pc-linux-gnu/nios2-elf/lib/libc.a(lib_a-fstatr.o)
 .data          0x000000000805734c        0x0 /home/tom/intelFPGA_lite/20.1/nios2eds/bin/gnu/H-x86_64-pc-linux-gnu/bin/../lib/gcc/nios2-elf/9.2.1/../../../../../H-x86_64-pc-linux-gnu/nios2-elf/lib/libc.a(lib_a-isattyr.o)
 .data          0x000000000805734c        0x0 /home/tom/intelFPGA_lite/20.1/nios2eds/bin/gnu/H-x86_64-pc-linux-gnu/bin/../lib/gcc/nios2-elf/9.2.1/../../../../../H-x86_64-pc-linux-gnu/nios2-elf/lib/libc.a(lib_a-locale.o)
 .data.__global_locale
                0x000000000805734c      0x16c /home/tom/intelFPGA_lite/20.1/nios2eds/bin/gnu/H-x86_64-pc-linux-gnu/bin/../lib/gcc/nios2-elf/9.2.1/../../../../../H-x86_64-pc-linux-gnu/nios2-elf/lib/libc.a(lib_a-locale.o)
                0x000000000805734c                __global_locale
 .data          0x00000000080574b8        0x0 /home/tom/intelFPGA_lite/20.1/nios2eds/bin/gnu/H-x86_64-pc-linux-gnu/bin/../lib/gcc/nios2-elf/9.2.1/../../../../../H-x86_64-pc-linux-gnu/nios2-elf/lib/libc.a(lib_a-lseekr.o)
 .data          0x00000000080574b8        0x0 /home/tom/intelFPGA_lite/20.1/nios2eds/bin/gnu/H-x86_64-pc-linux-gnu/bin/../lib/gcc/nios2-elf/9.2.1/../../../../../H-x86_64-pc-linux-gnu/nios2-elf/lib/libc.a(lib_a-mbtowc_r.o)
 .data          0x00000000080574b8        0x0 /home/tom/intelFPGA_lite/20.1/nios2eds/bin/gnu/H-x86_64-pc-linux-gnu/bin/../lib/gcc/nios2-elf/9.2.1/../../../../../H-x86_64-pc-linux-gnu/nios2-elf/lib/libc.a(lib_a-readr.o)
 .data          0x00000000080574b8        0x0 /home/tom/intelFPGA_lite/20.1/nios2eds/bin/gnu/H-x86_64-pc-linux-gnu/bin/../lib/gcc/nios2-elf/9.2.1/../../../../../H-x86_64-pc-linux-gnu/nios2-elf/lib/libc.a(lib_a-refill.o)
 .data          0x00000000080574b8        0x0 /home/tom/intelFPGA_lite/20.1/nios2eds/bin/gnu/H-x86_64-pc-linux-gnu/bin/../lib/gcc/nios2-elf/9.2.1/../../../../../H-x86_64-pc-linux-gnu/nios2-elf/lib/libc.a(lib_a-strcmp.o)
 .data          0x00000000080574b8        0x0 /home/tom/intelFPGA_lite/20.1/nios2eds/bin/gnu/H-x86_64-pc-linux-gnu/bin/../lib/gcc/nios2-elf/9.2.1/../../../../../H-x86_64-pc-linux-gnu/nios2-elf/lib/libc.a(lib_a-vfiprintfr_1.o)
 .data          0x00000000080574b8        0x0 /home/tom/intelFPGA_lite/20.1/nios2eds/bin/gnu/H-x86_64-pc-linux-gnu/bin/../lib/gcc/nios2-elf/9.2.1/../../../../../H-x86_64-pc-linux-gnu/nios2-elf/lib/libc.a(lib_a-wcrtomb.o)
 .data          0x00000000080574b8        0x0 /home/tom/intelFPGA_lite/20.1/nios2eds/bin/gnu/H-x86_64-pc-linux-gnu/bin/../lib/gcc/nios2-elf/9.2.1/../../../../../H-x86_64-pc-linux-gnu/nios2-elf/lib/libc.a(lib_a-wctomb_r.o)
 .data          0x00000000080574b8        0x0 /home/tom/intelFPGA_lite/20.1/nios2eds/bin/gnu/H-x86_64-pc-linux-gnu/bin/../lib/gcc/nios2-elf/9.2.1/../../../../../H-x86_64-pc-linux-gnu/nios2-elf/lib/libc.a(lib_a-abort.o)
 .data          0x00000000080574b8        0x0 /home/tom/intelFPGA_lite/20.1/nios2eds/bin/gnu/H-x86_64-pc-linux-gnu/bin/../lib/gcc/nios2-elf/9.2.1/../../../../../H-x86_64-pc-linux-gnu/nios2-elf/lib/libc.a(lib_a-signal.o)
 .data          0x00000000080574b8        0x0 /home/tom/intelFPGA_lite/20.1/nios2eds/bin/gnu/H-x86_64-pc-linux-gnu/bin/../lib/gcc/nios2-elf/9.2.1/../../../../../H-x86_64-pc-linux-gnu/nios2-elf/lib/libc.a(lib_a-signalr.o)
 .data          0x00000000080574b8        0x0 /home/tom/intelFPGA_lite/20.1/nios2eds/bin/gnu/H-x86_64-pc-linux-gnu/bin/../lib/gcc/nios2-elf/9.2.1/libgcc.a(_udivdi3.o)
 .data          0x00000000080574b8        0x0 /home/tom/intelFPGA_lite/20.1/nios2eds/bin/gnu/H-x86_64-pc-linux-gnu/bin/../lib/gcc/nios2-elf/9.2.1/libgcc.a(_umoddi3.o)
 .data          0x00000000080574b8        0x0 /home/tom/intelFPGA_lite/20.1/nios2eds/bin/gnu/H-x86_64-pc-linux-gnu/bin/../lib/gcc/nios2-elf/9.2.1/libgcc.a(lib2-divmod.o)
 .data          0x00000000080574b8        0x0 /home/tom/intelFPGA_lite/20.1/nios2eds/bin/gnu/H-x86_64-pc-linux-gnu/bin/../lib/gcc/nios2-elf/9.2.1/libgcc.a(adddf3.o)
 .data          0x00000000080574b8        0x0 /home/tom/intelFPGA_lite/20.1/nios2eds/bin/gnu/H-x86_64-pc-linux-gnu/bin/../lib/gcc/nios2-elf/9.2.1/libgcc.a(divdf3.o)
 .data          0x00000000080574b8        0x0 /home/tom/intelFPGA_lite/20.1/nios2eds/bin/gnu/H-x86_64-pc-linux-gnu/bin/../lib/gcc/nios2-elf/9.2.1/libgcc.a(eqdf2.o)
 .data          0x00000000080574b8        0x0 /home/tom/intelFPGA_lite/20.1/nios2eds/bin/gnu/H-x86_64-pc-linux-gnu/bin/../lib/gcc/nios2-elf/9.2.1/libgcc.a(gedf2.o)
 .data          0x00000000080574b8        0x0 /home/tom/intelFPGA_lite/20.1/nios2eds/bin/gnu/H-x86_64-pc-linux-gnu/bin/../lib/gcc/nios2-elf/9.2.1/libgcc.a(ledf2.o)
 .data          0x00000000080574b8        0x0 /home/tom/intelFPGA_lite/20.1/nios2eds/bin/gnu/H-x86_64-pc-linux-gnu/bin/../lib/gcc/nios2-elf/9.2.1/libgcc.a(muldf3.o)
 .data          0x00000000080574b8        0x0 /home/tom/intelFPGA_lite/20.1/nios2eds/bin/gnu/H-x86_64-pc-linux-gnu/bin/../lib/gcc/nios2-elf/9.2.1/libgcc.a(subdf3.o)
 .data          0x00000000080574b8        0x0 /home/tom/intelFPGA_lite/20.1/nios2eds/bin/gnu/H-x86_64-pc-linux-gnu/bin/../lib/gcc/nios2-elf/9.2.1/libgcc.a(unorddf2.o)
 .data          0x00000000080574b8        0x0 /home/tom/intelFPGA_lite/20.1/nios2eds/bin/gnu/H-x86_64-pc-linux-gnu/bin/../lib/gcc/nios2-elf/9.2.1/libgcc.a(fixdfsi.o)
 .data          0x00000000080574b8        0x0 /home/tom/intelFPGA_lite/20.1/nios2eds/bin/gnu/H-x86_64-pc-linux-gnu/bin/../lib/gcc/nios2-elf/9.2.1/libgcc.a(floatsidf.o)
 .data          0x00000000080574b8        0x0 /home/tom/intelFPGA_lite/20.1/nios2eds/bin/gnu/H-x86_64-pc-linux-gnu/bin/../lib/gcc/nios2-elf/9.2.1/libgcc.a(floatunsidf.o)
 .data          0x00000000080574b8        0x0 /home/tom/intelFPGA_lite/20.1/nios2eds/bin/gnu/H-x86_64-pc-linux-gnu/bin/../lib/gcc/nios2-elf/9.2.1/libgcc.a(_clz.o)
 .data          0x00000000080574b8        0x0 /home/tom/intelFPGA_lite/20.1/nios2eds/bin/gnu/H-x86_64-pc-linux-gnu/bin/../lib/gcc/nios2-elf/9.2.1/libgcc.a(_clzsi2.o)
 .data          0x00000000080574b8        0x0 ../MOD_socket_server_bsp//libucosii_bsp.a(alt_exit.o)
 .data          0x00000000080574b8        0x0 ../MOD_socket_server_bsp//libucosii_bsp.a(alt_fstat.o)
 .data          0x00000000080574b8        0x0 ../MOD_socket_server_bsp//libucosii_bsp.a(alt_getpid.o)
 .data          0x00000000080574b8        0x0 ../MOD_socket_server_bsp//libucosii_bsp.a(alt_isatty.o)
 .data          0x00000000080574b8        0x0 ../MOD_socket_server_bsp//libucosii_bsp.a(alt_kill.o)
 .data          0x00000000080574b8        0x0 ../MOD_socket_server_bsp//libucosii_bsp.a(alt_lseek.o)
 .data          0x00000000080574b8        0x0 ../MOD_socket_server_bsp//libucosii_bsp.a(alt_main.o)
 .data          0x00000000080574b8        0x0 ../MOD_socket_server_bsp//libucosii_bsp.a(alt_sbrk.o)
 .data          0x00000000080574b8        0x0 ../MOD_socket_server_bsp//libucosii_bsp.a(alt_env_lock.o)
 .data          0x00000000080574b8        0x0 ../MOD_socket_server_bsp//libucosii_bsp.a(alt_malloc_lock.o)
 .data          0x00000000080574b8        0x0 ../MOD_socket_server_bsp//libucosii_bsp.a(os_core.o)
 .data          0x00000000080574b8        0x0 ../MOD_socket_server_bsp//libucosii_bsp.a(os_dbg.o)
 .data          0x00000000080574b8        0x0 ../MOD_socket_server_bsp//libucosii_bsp.a(os_flag.o)
 .data          0x00000000080574b8        0x0 ../MOD_socket_server_bsp//libucosii_bsp.a(os_mem.o)
 .data          0x00000000080574b8        0x0 ../MOD_socket_server_bsp//libucosii_bsp.a(os_q.o)
 .data          0x00000000080574b8        0x0 ../MOD_socket_server_bsp//libucosii_bsp.a(os_sem.o)
 .data          0x00000000080574b8        0x0 ../MOD_socket_server_bsp//libucosii_bsp.a(os_task.o)
 .data          0x00000000080574b8        0x0 ../MOD_socket_server_bsp//libucosii_bsp.a(os_time.o)
 *fill*         0x00000000080574b8        0x8 
 .data          0x00000000080574c0     0x1320 ../MOD_socket_server_bsp//libucosii_bsp.a(alt_sys_init.o)
 .data          0x00000000080587e0        0x0 ../MOD_socket_server_bsp//libucosii_bsp.a(altera_avalon_fifo_util.o)
 .data          0x00000000080587e0        0x0 ../MOD_socket_server_bsp//libucosii_bsp.a(altera_avalon_i2c.o)
 .data          0x00000000080587e0        0x0 ../MOD_socket_server_bsp//libucosii_bsp.a(altera_avalon_jtag_uart_fd.o)
 .data          0x00000000080587e0        0x0 ../MOD_socket_server_bsp//libucosii_bsp.a(altera_avalon_jtag_uart_init.o)
 .data          0x00000000080587e0        0x0 ../MOD_socket_server_bsp//libucosii_bsp.a(altera_avalon_jtag_uart_ioctl.o)
 .data          0x00000000080587e0        0x0 ../MOD_socket_server_bsp//libucosii_bsp.a(altera_avalon_jtag_uart_read.o)
 .data          0x00000000080587e0        0x0 ../MOD_socket_server_bsp//libucosii_bsp.a(altera_avalon_jtag_uart_write.o)
 .data          0x00000000080587e0        0x0 ../MOD_socket_server_bsp//libucosii_bsp.a(altera_avalon_spi.o)
 .data          0x00000000080587e0        0x0 ../MOD_socket_server_bsp//libucosii_bsp.a(altera_avalon_timer_sc.o)
 .data          0x00000000080587e0        0x0 ../MOD_socket_server_bsp//libucosii_bsp.a(altera_avalon_tse.o)
 .data          0x00000000080587e0        0x0 ../MOD_socket_server_bsp//libucosii_bsp.a(altera_generic_quad_spi_controller.o)
 .data          0x00000000080587e0        0x0 ../MOD_socket_server_bsp//libucosii_bsp.a(altera_msgdma.o)
 .data          0x00000000080587e0        0x0 ../MOD_socket_server_bsp//libucosii_bsp.a(ins_tse_mac.o)
 .data          0x00000000080587e0        0x0 ../MOD_socket_server_bsp//libucosii_bsp.a(alt_iniche_close.o)
 .data          0x00000000080587e0        0x0 ../MOD_socket_server_bsp//libucosii_bsp.a(alt_iniche_dev.o)
 .data          0x00000000080587e0        0x0 ../MOD_socket_server_bsp//libucosii_bsp.a(alt_iniche_read.o)
 .data          0x00000000080587e0        0x0 ../MOD_socket_server_bsp//libucosii_bsp.a(alt_iniche_write.o)
 .data          0x00000000080587e0        0x0 ../MOD_socket_server_bsp//libucosii_bsp.a(ipnet.o)
 .data          0x00000000080587e0        0x0 ../MOD_socket_server_bsp//libucosii_bsp.a(ipstart.o)
 .data          0x00000000080587e0        0x0 ../MOD_socket_server_bsp//libucosii_bsp.a(igmp_cmn.o)
 .data          0x00000000080587e0        0x0 ../MOD_socket_server_bsp//libucosii_bsp.a(bsdsock.o)
 .data          0x00000000080587e0        0x0 ../MOD_socket_server_bsp//libucosii_bsp.a(cksum.o)
 .data          0x00000000080587e0        0x0 ../MOD_socket_server_bsp//libucosii_bsp.a(in_utils.o)
 .data          0x00000000080587e0       0x30 ../MOD_socket_server_bsp//libucosii_bsp.a(netmain.o)
                0x00000000080587e0                nettasks
 .data          0x0000000008058810        0x0 ../MOD_socket_server_bsp//libucosii_bsp.a(tk_crnos.o)
 .data          0x0000000008058810        0x0 ../MOD_socket_server_bsp//libucosii_bsp.a(dhcpclnt.o)
 .data          0x0000000008058810        0x0 ../MOD_socket_server_bsp//libucosii_bsp.a(dhcputil.o)
 .data          0x0000000008058810        0x0 ../MOD_socket_server_bsp//libucosii_bsp.a(pktalloc.o)
 .data          0x0000000008058810        0x0 ../MOD_socket_server_bsp//libucosii_bsp.a(q.o)
 .data          0x0000000008058810        0x0 ../MOD_socket_server_bsp//libucosii_bsp.a(udp_open.o)
 .data          0x0000000008058810        0x0 ../MOD_socket_server_bsp//libucosii_bsp.a(asm_cksum.o)
 .data          0x0000000008058810        0x0 ../MOD_socket_server_bsp//libucosii_bsp.a(brdutils.o)
 .data          0x0000000008058810        0x0 ../MOD_socket_server_bsp//libucosii_bsp.a(osportco.o)
 .data          0x0000000008058810        0x0 ../MOD_socket_server_bsp//libucosii_bsp.a(targnios.o)
 .data          0x0000000008058810       0x48 ../MOD_socket_server_bsp//libucosii_bsp.a(nptcp.o)
                0x0000000008058810                tcp_protosw
                0x0000000008058828                udp_protosw
                0x0000000008058840                rawip_protosw
 .data          0x0000000008058858        0x0 ../MOD_socket_server_bsp//libucosii_bsp.a(rawsock.o)
 .data          0x0000000008058858        0x0 ../MOD_socket_server_bsp//libucosii_bsp.a(sockcall.o)
 .data          0x0000000008058858        0x0 ../MOD_socket_server_bsp//libucosii_bsp.a(socket.o)
 .data          0x0000000008058858        0x0 ../MOD_socket_server_bsp//libucosii_bsp.a(socket2.o)
 .data          0x0000000008058858        0x0 ../MOD_socket_server_bsp//libucosii_bsp.a(soselect.o)
 .data          0x0000000008058858        0x0 ../MOD_socket_server_bsp//libucosii_bsp.a(tcp_in.o)
 .data          0x0000000008058858        0xb ../MOD_socket_server_bsp//libucosii_bsp.a(tcp_out.o)
                0x0000000008058858                tcp_outflags
 .data          0x0000000008058863        0x0 ../MOD_socket_server_bsp//libucosii_bsp.a(tcp_subr.o)
 *fill*         0x0000000008058863        0x1 
 .data          0x0000000008058864        0xd ../MOD_socket_server_bsp//libucosii_bsp.a(tcp_timr.o)
                0x0000000008058864                tcp_backoff
 .data          0x0000000008058871        0x0 ../MOD_socket_server_bsp//libucosii_bsp.a(tcp_usr.o)
 .data          0x0000000008058871        0x0 ../MOD_socket_server_bsp//libucosii_bsp.a(tcpport.o)
 .data          0x0000000008058871        0x0 ../MOD_socket_server_bsp//libucosii_bsp.a(udpsock.o)
 .data          0x0000000008058871        0x0 ../MOD_socket_server_bsp//libucosii_bsp.a(alt_alarm_start.o)
 .data          0x0000000008058871        0x0 ../MOD_socket_server_bsp//libucosii_bsp.a(alt_busy_sleep.o)
 .data          0x0000000008058871        0x0 ../MOD_socket_server_bsp//libucosii_bsp.a(alt_close.o)
 .data          0x0000000008058871        0x0 ../MOD_socket_server_bsp//libucosii_bsp.a(alt_dcache_flush.o)
 *fill*         0x0000000008058871        0x3 
 .data          0x0000000008058874      0x1a8 ../MOD_socket_server_bsp//libucosii_bsp.a(alt_dev.o)
                0x0000000008058874                alt_dev_null
                0x000000000805889c                alt_fd_list
 .data          0x0000000008058a1c        0x0 ../MOD_socket_server_bsp//libucosii_bsp.a(alt_dev_llist_insert.o)
 .data          0x0000000008058a1c        0x0 ../MOD_socket_server_bsp//libucosii_bsp.a(alt_do_ctors.o)
 .data          0x0000000008058a1c        0x0 ../MOD_socket_server_bsp//libucosii_bsp.a(alt_do_dtors.o)
 .data          0x0000000008058a1c        0x0 ../MOD_socket_server_bsp//libucosii_bsp.a(alt_errno.o)
 .data          0x0000000008058a1c        0x0 ../MOD_socket_server_bsp//libucosii_bsp.a(alt_find_dev.o)
 .data          0x0000000008058a1c        0x0 ../MOD_socket_server_bsp//libucosii_bsp.a(alt_flash_dev.o)
 .data          0x0000000008058a1c        0x0 ../MOD_socket_server_bsp//libucosii_bsp.a(alt_iic.o)
 .data          0x0000000008058a1c        0x0 ../MOD_socket_server_bsp//libucosii_bsp.a(alt_iic_isr_register.o)
 .data          0x0000000008058a1c        0x0 ../MOD_socket_server_bsp//libucosii_bsp.a(alt_io_redirect.o)
 .data          0x0000000008058a1c        0x0 ../MOD_socket_server_bsp//libucosii_bsp.a(alt_irq_entry.o)
 .data          0x0000000008058a1c        0x0 ../MOD_socket_server_bsp//libucosii_bsp.a(alt_irq_handler.o)
 .data          0x0000000008058a1c        0x0 ../MOD_socket_server_bsp//libucosii_bsp.a(alt_irq_vars.o)
 .data          0x0000000008058a1c        0x0 ../MOD_socket_server_bsp//libucosii_bsp.a(alt_open.o)
 .data          0x0000000008058a1c        0x0 ../MOD_socket_server_bsp//libucosii_bsp.a(alt_printf.o)
 .data          0x0000000008058a1c        0x0 ../MOD_socket_server_bsp//libucosii_bsp.a(alt_putchar.o)
 .data          0x0000000008058a1c        0x0 ../MOD_socket_server_bsp//libucosii_bsp.a(alt_read.o)
 .data          0x0000000008058a1c        0x0 ../MOD_socket_server_bsp//libucosii_bsp.a(alt_release_fd.o)
 .data          0x0000000008058a1c        0x0 ../MOD_socket_server_bsp//libucosii_bsp.a(alt_remap_cached.o)
 .data          0x0000000008058a1c        0x0 ../MOD_socket_server_bsp//libucosii_bsp.a(alt_tick.o)
 .data          0x0000000008058a1c        0x0 ../MOD_socket_server_bsp//libucosii_bsp.a(alt_uncached_free.o)
 .data          0x0000000008058a1c        0x0 ../MOD_socket_server_bsp//libucosii_bsp.a(alt_uncached_malloc.o)
 .data          0x0000000008058a1c        0x0 ../MOD_socket_server_bsp//libucosii_bsp.a(alt_usleep.o)
 .data          0x0000000008058a1c        0x0 ../MOD_socket_server_bsp//libucosii_bsp.a(alt_write.o)
 .data          0x0000000008058a1c        0x0 ../MOD_socket_server_bsp//libucosii_bsp.a(altera_nios2_gen2_irq.o)
 .data          0x0000000008058a1c        0x0 ../MOD_socket_server_bsp//libucosii_bsp.a(os_cpu_a.o)
 .data          0x0000000008058a1c        0x0 ../MOD_socket_server_bsp//libucosii_bsp.a(os_cpu_c.o)
 .data          0x0000000008058a1c       0x18 ../MOD_socket_server_bsp//libucosii_bsp.a(allports.o)
                0x0000000008058a1c                icmpdu_types
 .data          0x0000000008058a34        0x0 ../MOD_socket_server_bsp//libucosii_bsp.a(timeouts.o)
 .data          0x0000000008058a34        0x0 ../MOD_socket_server_bsp//libucosii_bsp.a(tk_misc.o)
 .data          0x0000000008058a34        0x0 ../MOD_socket_server_bsp//libucosii_bsp.a(alt_iniche_fcntl.o)
 .data          0x0000000008058a34        0x0 ../MOD_socket_server_bsp//libucosii_bsp.a(et_arp.o)
 .data          0x0000000008058a34        0x0 ../MOD_socket_server_bsp//libucosii_bsp.a(iface.o)
 .data          0x0000000008058a34        0x0 ../MOD_socket_server_bsp//libucosii_bsp.a(ip.o)
 .data          0x0000000008058a34        0x0 ../MOD_socket_server_bsp//libucosii_bsp.a(ip_reasm.o)
 .data          0x0000000008058a34        0x0 ../MOD_socket_server_bsp//libucosii_bsp.a(ipdemux.o)
 .data          0x0000000008058a34        0x0 ../MOD_socket_server_bsp//libucosii_bsp.a(ipmc.o)
 .data          0x0000000008058a34        0x0 ../MOD_socket_server_bsp//libucosii_bsp.a(ipport.o)
 .data          0x0000000008058a34        0x0 ../MOD_socket_server_bsp//libucosii_bsp.a(ipraw.o)
 .data          0x0000000008058a34        0x9 ../MOD_socket_server_bsp//libucosii_bsp.a(iproute.o)
                0x0000000008058a34                rtp_priority
 .data          0x0000000008058a3d        0x0 ../MOD_socket_server_bsp//libucosii_bsp.a(udp.o)
 .data          0x0000000008058a3d        0x0 ../MOD_socket_server_bsp//libucosii_bsp.a(igmp.o)
 .data          0x0000000008058a3d        0x0 ../MOD_socket_server_bsp//libucosii_bsp.a(igmp2.o)
 .data          0x0000000008058a3d        0x0 ../MOD_socket_server_bsp//libucosii_bsp.a(ipopt.o)
 .data          0x0000000008058a3d        0x0 ../MOD_socket_server_bsp//libucosii_bsp.a(u_mctest.o)
 .data          0x0000000008058a3d        0x0 ../MOD_socket_server_bsp//libucosii_bsp.a(dhcsetup.o)
 *fill*         0x0000000008058a3d        0x3 
 .data          0x0000000008058a40       0xd4 ../MOD_socket_server_bsp//libucosii_bsp.a(memdev.o)
                0x0000000008058a40                mdio
                0x0000000008058a64                mdlist
 .data          0x0000000008058b14        0x0 ../MOD_socket_server_bsp//libucosii_bsp.a(parseip.o)
 .data          0x0000000008058b14        0x0 ../MOD_socket_server_bsp//libucosii_bsp.a(tcpcksum.o)
 .data          0x0000000008058b14        0x0 ../MOD_socket_server_bsp//libucosii_bsp.a(in_pcb.o)
 .data          0x0000000008058b14       0x80 ../MOD_socket_server_bsp//libucosii_bsp.a(vfsfiles.o)
                0x0000000008058b14                vfs_root_path
 .data          0x0000000008058b94        0x0 ../MOD_socket_server_bsp//libucosii_bsp.a(vfsport.o)
 .data          0x0000000008058b94        0x0 ../MOD_socket_server_bsp//libucosii_bsp.a(alt_exception_entry.o)
 .data          0x0000000008058b94        0x0 ../MOD_socket_server_bsp//libucosii_bsp.a(alt_fcntl.o)
 .data          0x0000000008058b94        0x0 ../MOD_socket_server_bsp//libucosii_bsp.a(alt_find_file.o)
 .data          0x0000000008058b94        0x0 ../MOD_socket_server_bsp//libucosii_bsp.a(alt_get_fd.o)
 .data          0x0000000008058b94        0x0 ../MOD_socket_server_bsp//libucosii_bsp.a(alt_instruction_exception_entry.o)
 .data          0x0000000008058b94       0x18 ../MOD_socket_server_bsp//libucosii_bsp.a(icmp.o)
 .data          0x0000000008058bac        0x0 /home/tom/intelFPGA_lite/20.1/nios2eds/bin/gnu/H-x86_64-pc-linux-gnu/bin/../lib/gcc/nios2-elf/9.2.1/../../../../../H-x86_64-pc-linux-gnu/nios2-elf/lib/libc.a(lib_a-atexit.o)
 .data          0x0000000008058bac        0x0 /home/tom/intelFPGA_lite/20.1/nios2eds/bin/gnu/H-x86_64-pc-linux-gnu/bin/../lib/gcc/nios2-elf/9.2.1/../../../../../H-x86_64-pc-linux-gnu/nios2-elf/lib/libc.a(lib_a-atoi.o)
 .data          0x0000000008058bac        0x0 /home/tom/intelFPGA_lite/20.1/nios2eds/bin/gnu/H-x86_64-pc-linux-gnu/bin/../lib/gcc/nios2-elf/9.2.1/../../../../../H-x86_64-pc-linux-gnu/nios2-elf/lib/libc.a(lib_a-exit.o)
 .data          0x0000000008058bac        0x0 /home/tom/intelFPGA_lite/20.1/nios2eds/bin/gnu/H-x86_64-pc-linux-gnu/bin/../lib/gcc/nios2-elf/9.2.1/../../../../../H-x86_64-pc-linux-gnu/nios2-elf/lib/libc.a(lib_a-malloc.o)
 .data          0x0000000008058bac        0x0 /home/tom/intelFPGA_lite/20.1/nios2eds/bin/gnu/H-x86_64-pc-linux-gnu/bin/../lib/gcc/nios2-elf/9.2.1/../../../../../H-x86_64-pc-linux-gnu/nios2-elf/lib/libc.a(lib_a-strchr.o)
 .data          0x0000000008058bac        0x0 /home/tom/intelFPGA_lite/20.1/nios2eds/bin/gnu/H-x86_64-pc-linux-gnu/bin/../lib/gcc/nios2-elf/9.2.1/../../../../../H-x86_64-pc-linux-gnu/nios2-elf/lib/libc.a(lib_a-strncmp.o)
 .data          0x0000000008058bac        0x0 /home/tom/intelFPGA_lite/20.1/nios2eds/bin/gnu/H-x86_64-pc-linux-gnu/bin/../lib/gcc/nios2-elf/9.2.1/../../../../../H-x86_64-pc-linux-gnu/nios2-elf/lib/libc.a(lib_a-strncpy.o)
 .data          0x0000000008058bac        0x0 /home/tom/intelFPGA_lite/20.1/nios2eds/bin/gnu/H-x86_64-pc-linux-gnu/bin/../lib/gcc/nios2-elf/9.2.1/../../../../../H-x86_64-pc-linux-gnu/nios2-elf/lib/libc.a(lib_a-strtol.o)
 .data          0x0000000008058bac        0x0 /home/tom/intelFPGA_lite/20.1/nios2eds/bin/gnu/H-x86_64-pc-linux-gnu/bin/../lib/gcc/nios2-elf/9.2.1/../../../../../H-x86_64-pc-linux-gnu/nios2-elf/lib/libc.a(lib_a-vprintf.o)
 .data          0x0000000008058bac        0x0 /home/tom/intelFPGA_lite/20.1/nios2eds/bin/gnu/H-x86_64-pc-linux-gnu/bin/../lib/gcc/nios2-elf/9.2.1/../../../../../H-x86_64-pc-linux-gnu/nios2-elf/lib/libc.a(lib_a-vsprintf.o)
 .data          0x0000000008058bac        0x0 /home/tom/intelFPGA_lite/20.1/nios2eds/bin/gnu/H-x86_64-pc-linux-gnu/bin/../lib/gcc/nios2-elf/9.2.1/../../../../../H-x86_64-pc-linux-gnu/nios2-elf/lib/libc.a(lib_a-__atexit.o)
 .data          0x0000000008058bac        0x0 /home/tom/intelFPGA_lite/20.1/nios2eds/bin/gnu/H-x86_64-pc-linux-gnu/bin/../lib/gcc/nios2-elf/9.2.1/../../../../../H-x86_64-pc-linux-gnu/nios2-elf/lib/libc.a(lib_a-__call_atexit.o)
 .data          0x0000000008058bac        0x0 /home/tom/intelFPGA_lite/20.1/nios2eds/bin/gnu/H-x86_64-pc-linux-gnu/bin/../lib/gcc/nios2-elf/9.2.1/../../../../../H-x86_64-pc-linux-gnu/nios2-elf/lib/libc.a(lib_a-vfprintfr_1.o)
                0x0000000008060bac                _gp = ABSOLUTE ((. + 0x8000))
                [!provide]                        PROVIDE (gp = _gp)
 *(.rwdata .rwdata.*)
 *(.sdata .sdata.* .gnu.linkonce.s.*)
 .sdata._global_impure_ptr
                0x0000000008058bac        0x4 /home/tom/intelFPGA_lite/20.1/nios2eds/bin/gnu/H-x86_64-pc-linux-gnu/bin/../lib/gcc/nios2-elf/9.2.1/../../../../../H-x86_64-pc-linux-gnu/nios2-elf/lib/libc.a(lib_a-impure.o)
                0x0000000008058bac                _global_impure_ptr
 .sdata._impure_ptr
                0x0000000008058bb0        0x4 /home/tom/intelFPGA_lite/20.1/nios2eds/bin/gnu/H-x86_64-pc-linux-gnu/bin/../lib/gcc/nios2-elf/9.2.1/../../../../../H-x86_64-pc-linux-gnu/nios2-elf/lib/libc.a(lib_a-impure.o)
                0x0000000008058bb0                _impure_ptr
 .sdata.__malloc_sbrk_base
                0x0000000008058bb4        0x4 /home/tom/intelFPGA_lite/20.1/nios2eds/bin/gnu/H-x86_64-pc-linux-gnu/bin/../lib/gcc/nios2-elf/9.2.1/../../../../../H-x86_64-pc-linux-gnu/nios2-elf/lib/libc.a(lib_a-mallocr.o)
                0x0000000008058bb4                __malloc_sbrk_base
 .sdata.__malloc_trim_threshold
                0x0000000008058bb8        0x4 /home/tom/intelFPGA_lite/20.1/nios2eds/bin/gnu/H-x86_64-pc-linux-gnu/bin/../lib/gcc/nios2-elf/9.2.1/../../../../../H-x86_64-pc-linux-gnu/nios2-elf/lib/libc.a(lib_a-mallocr.o)
                0x0000000008058bb8                __malloc_trim_threshold
 .sdata         0x0000000008058bbc        0x4 ../MOD_socket_server_bsp//libucosii_bsp.a(alt_sbrk.o)
 .sdata         0x0000000008058bc0        0x4 ../MOD_socket_server_bsp//libucosii_bsp.a(alt_env_lock.o)
 .sdata         0x0000000008058bc4        0x4 ../MOD_socket_server_bsp//libucosii_bsp.a(alt_malloc_lock.o)
 .sdata         0x0000000008058bc8       0x72 ../MOD_socket_server_bsp//libucosii_bsp.a(os_dbg.o)
                0x0000000008058bc8                OSDebugEn
                0x0000000008058bcc                OSEndiannessTest
                0x0000000008058bd0                OSEventEn
                0x0000000008058bd2                OSEventMax
                0x0000000008058bd4                OSEventNameSize
                0x0000000008058bd6                OSEventSize
                0x0000000008058bd8                OSEventTblSize
                0x0000000008058bda                OSEventMultiEn
                0x0000000008058bdc                OSFlagEn
                0x0000000008058bde                OSFlagGrpSize
                0x0000000008058be0                OSFlagNodeSize
                0x0000000008058be2                OSFlagWidth
                0x0000000008058be4                OSFlagMax
                0x0000000008058be6                OSFlagNameSize
                0x0000000008058be8                OSLowestPrio
                0x0000000008058bea                OSMboxEn
                0x0000000008058bec                OSMemEn
                0x0000000008058bee                OSMemMax
                0x0000000008058bf0                OSMemNameSize
                0x0000000008058bf2                OSMemSize
                0x0000000008058bf4                OSMemTblSize
                0x0000000008058bf6                OSMutexEn
                0x0000000008058bf8                OSPtrSize
                0x0000000008058bfa                OSQEn
                0x0000000008058bfc                OSQMax
                0x0000000008058bfe                OSQSize
                0x0000000008058c00                OSRdyTblSize
                0x0000000008058c02                OSSemEn
                0x0000000008058c04                OSStkWidth
                0x0000000008058c06                OSTaskCreateEn
                0x0000000008058c08                OSTaskCreateExtEn
                0x0000000008058c0a                OSTaskDelEn
                0x0000000008058c0c                OSTaskIdleStkSize
                0x0000000008058c0e                OSTaskProfileEn
                0x0000000008058c10                OSTaskMax
                0x0000000008058c12                OSTaskNameSize
                0x0000000008058c14                OSTaskStatEn
                0x0000000008058c16                OSTaskStatStkSize
                0x0000000008058c18                OSTaskStatStkChkEn
                0x0000000008058c1a                OSTaskSwHookEn
                0x0000000008058c1c                OSTCBPrioTblMax
                0x0000000008058c1e                OSTCBSize
                0x0000000008058c20                OSTicksPerSec
                0x0000000008058c22                OSTimeTickHookEn
                0x0000000008058c24                OSVersionNbr
                0x0000000008058c26                OSTmrEn
                0x0000000008058c28                OSTmrCfgMax
                0x0000000008058c2a                OSTmrCfgNameSize
                0x0000000008058c2c                OSTmrCfgWheelSize
                0x0000000008058c2e                OSTmrCfgTicksPerSec
                0x0000000008058c30                OSTmrSize
                0x0000000008058c32                OSTmrTblSize
                0x0000000008058c34                OSTmrWheelSize
                0x0000000008058c36                OSTmrWheelTblSize
                0x0000000008058c38                OSDataSize
 *fill*         0x0000000008058c3a        0x2 
 .sdata         0x0000000008058c3c        0x4 ../MOD_socket_server_bsp//libucosii_bsp.a(alt_sys_init.o)
                0x0000000008058c3c                eth_tse_name
 .sdata         0x0000000008058c40        0x8 ../MOD_socket_server_bsp//libucosii_bsp.a(altera_avalon_i2c.o)
                0x0000000008058c40                alt_avalon_i2c_list
 .sdata         0x0000000008058c48        0x1 ../MOD_socket_server_bsp//libucosii_bsp.a(altera_avalon_tse.o)
                0x0000000008058c48                max_mac_system
 *fill*         0x0000000008058c49        0x3 
 .sdata         0x0000000008058c4c        0x8 ../MOD_socket_server_bsp//libucosii_bsp.a(altera_msgdma.o)
                0x0000000008058c4c                alt_msgdma_list
 .sdata         0x0000000008058c54        0x8 ../MOD_socket_server_bsp//libucosii_bsp.a(alt_iniche_dev.o)
                0x0000000008058c54                alt_iniche_dev_list
 .sdata         0x0000000008058c5c        0x4 ../MOD_socket_server_bsp//libucosii_bsp.a(ipstart.o)
                0x0000000008058c5c                ipmcfail_str
 .sdata         0x0000000008058c60        0x4 ../MOD_socket_server_bsp//libucosii_bsp.a(cksum.o)
 .sdata         0x0000000008058c64        0x4 ../MOD_socket_server_bsp//libucosii_bsp.a(netmain.o)
                0x0000000008058c64                num_net_tasks
 .sdata         0x0000000008058c68        0xc ../MOD_socket_server_bsp//libucosii_bsp.a(dhcpclnt.o)
                0x0000000008058c68                xids
                0x0000000008058c6c                reqlist
                0x0000000008058c70                reqlist_len
 .sdata         0x0000000008058c74       0x10 ../MOD_socket_server_bsp//libucosii_bsp.a(pktalloc.o)
                0x0000000008058c74                lilbufs
                0x0000000008058c78                lilbufsiz
                0x0000000008058c7c                bigbufs
                0x0000000008058c80                bigbufsiz
 .sdata         0x0000000008058c84        0x4 ../MOD_socket_server_bsp//libucosii_bsp.a(brdutils.o)
                0x0000000008058c84                kb_last
 .sdata         0x0000000008058c88        0x4 ../MOD_socket_server_bsp//libucosii_bsp.a(nptcp.o)
                0x0000000008058c88                TCPTV_MSL
 .sdata         0x0000000008058c8c        0x2 ../MOD_socket_server_bsp//libucosii_bsp.a(socket.o)
                0x0000000008058c8c                socket_defaults
 .sdata         0x0000000008058c8e        0x1 ../MOD_socket_server_bsp//libucosii_bsp.a(tcp_in.o)
                0x0000000008058c8e                tcprexmtthresh
 *fill*         0x0000000008058c8f        0x1 
 .sdata         0x0000000008058c90        0x4 ../MOD_socket_server_bsp//libucosii_bsp.a(tcp_subr.o)
                0x0000000008058c90                tcp_ttl
 .sdata         0x0000000008058c94        0x8 ../MOD_socket_server_bsp//libucosii_bsp.a(tcp_timr.o)
                0x0000000008058c94                tcp_keepidle
                0x0000000008058c98                tcp_keepintvl
 .sdata         0x0000000008058c9c        0x8 ../MOD_socket_server_bsp//libucosii_bsp.a(tcp_usr.o)
                0x0000000008058c9c                tcp_sendspace
                0x0000000008058ca0                tcp_recvspace
 .sdata         0x0000000008058ca4       0x14 ../MOD_socket_server_bsp//libucosii_bsp.a(alt_dev.o)
                0x0000000008058ca4                alt_fs_list
                0x0000000008058cac                alt_dev_list
                0x0000000008058cb4                alt_max_fd
 .sdata         0x0000000008058cb8        0x4 ../MOD_socket_server_bsp//libucosii_bsp.a(alt_errno.o)
                0x0000000008058cb8                alt_errno
 .sdata         0x0000000008058cbc        0x8 ../MOD_socket_server_bsp//libucosii_bsp.a(alt_flash_dev.o)
                0x0000000008058cbc                alt_flash_dev_list
 .sdata         0x0000000008058cc4        0x4 ../MOD_socket_server_bsp//libucosii_bsp.a(alt_irq_vars.o)
                0x0000000008058cc4                alt_priority_mask
 .sdata         0x0000000008058cc8        0x8 ../MOD_socket_server_bsp//libucosii_bsp.a(alt_tick.o)
                0x0000000008058cc8                alt_alarm_list
 .sdata         0x0000000008058cd0       0x10 ../MOD_socket_server_bsp//libucosii_bsp.a(allports.o)
                0x0000000008058cd0                name
                0x0000000008058cd4                prompt
                0x0000000008058cd8                pingdelay
                0x0000000008058cdc                deflength
 .sdata         0x0000000008058ce0        0x4 ../MOD_socket_server_bsp//libucosii_bsp.a(et_arp.o)
                0x0000000008058ce0                arp_ageout
 .sdata         0x0000000008058ce4        0x8 ../MOD_socket_server_bsp//libucosii_bsp.a(ip.o)
                0x0000000008058ce8                ipRoutes
 .sdata         0x0000000008058cec        0x4 ../MOD_socket_server_bsp//libucosii_bsp.a(u_mctest.o)
 .sdata         0x0000000008058cf0        0x4 ../MOD_socket_server_bsp//libucosii_bsp.a(memdev.o)
                0x0000000008058cf0                mdlist_size
 .sdata         0x0000000008058cf4        0x4 ../MOD_socket_server_bsp//libucosii_bsp.a(parseip.o)
                0x0000000008058cf4                pton_error
 .sdata         0x0000000008058cf8        0x4 ../MOD_socket_server_bsp//libucosii_bsp.a(vfsfiles.o)
                0x0000000008058cf8                http_root_path
 *(.sdata2 .sdata2.* .gnu.linkonce.s2.*)
                0x0000000008058cfc                . = ALIGN (0x4)
                0x0000000008058cfc                _edata = ABSOLUTE (.)
                [!provide]                        PROVIDE (edata = ABSOLUTE (.))
                [!provide]                        PROVIDE (__ram_rwdata_end = ABSOLUTE (.))
                [!provide]                        PROVIDE (__flash_rwdata_start = LOADADDR (.rwdata))

.bss            0x0000000008058cfc     0x9094
                0x0000000008058cfc                __bss_start = ABSOLUTE (.)
                [!provide]                        PROVIDE (__sbss_start = ABSOLUTE (.))
                [!provide]                        PROVIDE (___sbss_start = ABSOLUTE (.))
 *(.dynsbss)
 *(.sbss .sbss.* .gnu.linkonce.sb.*)
 .sbss          0x0000000008058cfc        0x4 obj/default/DELHProtocol.o
 .sbss          0x0000000008058d00        0x1 obj/default/iniche_init.o
                0x0000000008058d00                to_ssstask
 *fill*         0x0000000008058d01        0x3 
 .sbss          0x0000000008058d04        0x8 obj/default/network_utilities.o
                0x0000000008058d04                last_flash_sector_offset
                0x0000000008058d08                last_flash_sector
 .sbss          0x0000000008058d0c        0x8 obj/default/simple_socket_server.o
                0x0000000008058d0c                SSSLEDCommandQ
                0x0000000008058d10                SSSLEDEventFlag
 .sbss          0x0000000008058d14        0x4 /home/tom/intelFPGA_lite/20.1/nios2eds/bin/gnu/H-x86_64-pc-linux-gnu/bin/../lib/gcc/nios2-elf/9.2.1/../../../../../H-x86_64-pc-linux-gnu/nios2-elf/lib/libc.a(lib_a-int_errno.o)
                0x0000000008058d14                errno
 .sbss.__malloc_max_total_mem
                0x0000000008058d18        0x4 /home/tom/intelFPGA_lite/20.1/nios2eds/bin/gnu/H-x86_64-pc-linux-gnu/bin/../lib/gcc/nios2-elf/9.2.1/../../../../../H-x86_64-pc-linux-gnu/nios2-elf/lib/libc.a(lib_a-mallocr.o)
                0x0000000008058d18                __malloc_max_total_mem
 .sbss.__malloc_max_sbrked_mem
                0x0000000008058d1c        0x4 /home/tom/intelFPGA_lite/20.1/nios2eds/bin/gnu/H-x86_64-pc-linux-gnu/bin/../lib/gcc/nios2-elf/9.2.1/../../../../../H-x86_64-pc-linux-gnu/nios2-elf/lib/libc.a(lib_a-mallocr.o)
                0x0000000008058d1c                __malloc_max_sbrked_mem
 .sbss.__malloc_top_pad
                0x0000000008058d20        0x4 /home/tom/intelFPGA_lite/20.1/nios2eds/bin/gnu/H-x86_64-pc-linux-gnu/bin/../lib/gcc/nios2-elf/9.2.1/../../../../../H-x86_64-pc-linux-gnu/nios2-elf/lib/libc.a(lib_a-mallocr.o)
                0x0000000008058d20                __malloc_top_pad
 .sbss._PathLocale
                0x0000000008058d24        0x4 /home/tom/intelFPGA_lite/20.1/nios2eds/bin/gnu/H-x86_64-pc-linux-gnu/bin/../lib/gcc/nios2-elf/9.2.1/../../../../../H-x86_64-pc-linux-gnu/nios2-elf/lib/libc.a(lib_a-locale.o)
                0x0000000008058d24                _PathLocale
 .sbss          0x0000000008058d28        0xc ../MOD_socket_server_bsp//libucosii_bsp.a(alt_main.o)
                0x0000000008058d28                alt_argc
                0x0000000008058d2c                alt_argv
                0x0000000008058d30                alt_envp
 .sbss          0x0000000008058d34        0x8 ../MOD_socket_server_bsp//libucosii_bsp.a(alt_env_lock.o)
                0x0000000008058d38                alt_envsem
 .sbss          0x0000000008058d3c        0x8 ../MOD_socket_server_bsp//libucosii_bsp.a(alt_malloc_lock.o)
                0x0000000008058d40                alt_heapsem
 .sbss          0x0000000008058d44       0x50 ../MOD_socket_server_bsp//libucosii_bsp.a(os_core.o)
                0x0000000008058d44                OSLockNesting
                0x0000000008058d45                OSRunning
                0x0000000008058d48                OSIdleCtr
                0x0000000008058d4c                OSPrioHighRdy
                0x0000000008058d4d                OSPrioCur
                0x0000000008058d50                OSTCBList
                0x0000000008058d54                OSTickStepState
                0x0000000008058d58                OSCtxSwCtr
                0x0000000008058d5c                OSIdleCtrMax
                0x0000000008058d60                OSTCBFreeList
                0x0000000008058d64                OSCPUUsage
                0x0000000008058d65                OSTaskCtr
                0x0000000008058d68                OSMemFreeList
                0x0000000008058d6c                OSTCBHighRdy
                0x0000000008058d70                OSQFreeList
                0x0000000008058d74                OSRdyGrp
                0x0000000008058d75                OSRdyTbl
                0x0000000008058d78                OSEventFreeList
                0x0000000008058d7c                OSIntNesting
                0x0000000008058d80                OSTCBCur
                0x0000000008058d84                OSTime
                0x0000000008058d88                OSFlagFreeList
                0x0000000008058d8c                OSStatRdy
                0x0000000008058d90                OSIdleCtrRun
 .sbss          0x0000000008058d94        0x4 ../MOD_socket_server_bsp//libucosii_bsp.a(altera_avalon_tse.o)
                0x0000000008058d94                phy_profile_count
                0x0000000008058d95                mac_group_count
 .sbss          0x0000000008058d98        0x1 ../MOD_socket_server_bsp//libucosii_bsp.a(ins_tse_mac.o)
                0x0000000008058d98                number_of_tse_mac
 *fill*         0x0000000008058d99        0x3 
 .sbss          0x0000000008058d9c        0xc ../MOD_socket_server_bsp//libucosii_bsp.a(ipnet.o)
                0x0000000008058d9c                MaxLnh
                0x0000000008058da0                MaxMtu
                0x0000000008058da4                NDEBUG
 .sbss          0x0000000008058da8        0x8 ../MOD_socket_server_bsp//libucosii_bsp.a(ipstart.o)
                0x0000000008058da8                ifNumber
 .sbss          0x0000000008058db0       0x10 ../MOD_socket_server_bsp//libucosii_bsp.a(igmp_cmn.o)
                0x0000000008058db0                igmp_timers_are_running
                0x0000000008058db4                igmp_cticks
                0x0000000008058db8                igmp_all_hosts_group
                0x0000000008058dbc                igmp_all_rtrs_group
 .sbss          0x0000000008058dc0        0xe ../MOD_socket_server_bsp//libucosii_bsp.a(netmain.o)
                0x0000000008058dc0                netmain_wakes
                0x0000000008058dc4                nettick_wakes
                0x0000000008058dc8                iniche_net_ready
                0x0000000008058dcc                to_netmain
                0x0000000008058dcd                to_nettick
 *fill*         0x0000000008058dce        0x2 
 .sbss          0x0000000008058dd0        0x4 ../MOD_socket_server_bsp//libucosii_bsp.a(tk_crnos.o)
                0x0000000008058dd0                tcp_sleep_timeout
 .sbss          0x0000000008058dd4       0x34 ../MOD_socket_server_bsp//libucosii_bsp.a(dhcpclnt.o)
                0x0000000008058dd4                dhc_conn
                0x0000000008058dd8                dsc_errors
                0x0000000008058ddc                dsc_discovers
                0x0000000008058de0                dsc_offers
                0x0000000008058de4                dsc_requests
                0x0000000008058de8                dsc_acks
                0x0000000008058dec                dsc_bpreplys
                0x0000000008058df0                dsc_declines
                0x0000000008058df4                dsc_releases
                0x0000000008058df8                dsc_naks
                0x0000000008058dfc                dsc_renew
                0x0000000008058e00                dsc_rebind
                0x0000000008058e04                dsc_rlyerrs
 .sbss          0x0000000008058e08        0x4 ../MOD_socket_server_bsp//libucosii_bsp.a(udp_open.o)
                0x0000000008058e08                firstudp
 .sbss          0x0000000008058e0c       0x18 ../MOD_socket_server_bsp//libucosii_bsp.a(brdutils.o)
                0x0000000008058e0c                cticks_initialized
                0x0000000008058e10                irq_level
                0x0000000008058e1c                cticks_factor
                0x0000000008058e20                OS_TPS
 .sbss          0x0000000008058e24       0x18 ../MOD_socket_server_bsp//libucosii_bsp.a(osportco.o)
                0x0000000008058e24                tcp_sleep_count
                0x0000000008058e28                tcp_wakeup_count
                0x0000000008058e2c                netq_intmask
                0x0000000008058e30                old_mode
                0x0000000008058e34                global_TCPwakeup_setIndx
                0x0000000008058e38                cticks
 .sbss          0x0000000008058e3c        0xc ../MOD_socket_server_bsp//libucosii_bsp.a(targnios.o)
                0x0000000008058e3c                memtrapsize
                0x0000000008058e40                mheap_sem_ptr
                0x0000000008058e44                rcvdq_sem_ptr
 .sbss          0x0000000008058e48       0x12 ../MOD_socket_server_bsp//libucosii_bsp.a(nptcp.o)
                0x0000000008058e48                nextslow
                0x0000000008058e50                mbstat
                0x0000000008058e58                select_wait
 *fill*         0x0000000008058e5a        0x2 
 .sbss          0x0000000008058e5c        0x8 ../MOD_socket_server_bsp//libucosii_bsp.a(tcp_in.o)
                0x0000000008058e5c                tcpprintfs
                0x0000000008058e60                dropline
 .sbss          0x0000000008058e64        0x4 ../MOD_socket_server_bsp//libucosii_bsp.a(tcp_out.o)
                0x0000000008058e64                tcp_optionbuf
 .sbss          0x0000000008058e68        0x8 ../MOD_socket_server_bsp//libucosii_bsp.a(tcp_timr.o)
                0x0000000008058e68                tcp_maxidle
                0x0000000008058e6c                tcp_iss
 .sbss          0x0000000008058e70        0x4 ../MOD_socket_server_bsp//libucosii_bsp.a(alt_dev.o)
                0x0000000008058e70                alt_fd_list_lock
 .sbss          0x0000000008058e74        0x4 ../MOD_socket_server_bsp//libucosii_bsp.a(alt_irq_vars.o)
                0x0000000008058e74                alt_irq_active
 .sbss          0x0000000008058e78        0x8 ../MOD_socket_server_bsp//libucosii_bsp.a(alt_tick.o)
                0x0000000008058e78                _alt_tick_rate
                0x0000000008058e7c                _alt_nticks
 .sbss          0x0000000008058e80        0x8 ../MOD_socket_server_bsp//libucosii_bsp.a(allports.o)
                0x0000000008058e80                activehost
 .sbss          0x0000000008058e88        0xc ../MOD_socket_server_bsp//libucosii_bsp.a(timeouts.o)
                0x0000000008058e88                nextppp
                0x0000000008058e8c                port_1s_callout
 .sbss          0x0000000008058e94       0x1c ../MOD_socket_server_bsp//libucosii_bsp.a(et_arp.o)
                0x0000000008058e98                arpcache
                0x0000000008058ea0                arpReqsIn
                0x0000000008058ea4                arpReqsOut
                0x0000000008058ea8                arpRepsIn
                0x0000000008058eac                arpRepsOut
 .sbss          0x0000000008058eb0        0x4 ../MOD_socket_server_bsp//libucosii_bsp.a(ip.o)
                0x0000000008058eb0                rt_mib
 .sbss          0x0000000008058eb4        0xc ../MOD_socket_server_bsp//libucosii_bsp.a(ip_reasm.o)
                0x0000000008058eb4                ipr_curr_mem
                0x0000000008058eb8                h_ireq
                0x0000000008058ebc                ire_cticks
 .sbss          0x0000000008058ec0       0x11 ../MOD_socket_server_bsp//libucosii_bsp.a(ipport.o)
                0x0000000008058ec0                port_prep
                0x0000000008058ec4                net_system_exit
                0x0000000008058ec8                so_evtmap_create
                0x0000000008058ecc                so_evtmap_delete
                0x0000000008058ed0                so_evtmap
 *fill*         0x0000000008058ed1        0x3 
 .sbss          0x0000000008058ed4        0x4 ../MOD_socket_server_bsp//libucosii_bsp.a(ipraw.o)
                0x0000000008058ed4                ipraw_eps
 .sbss          0x0000000008058ed8        0x4 ../MOD_socket_server_bsp//libucosii_bsp.a(iproute.o)
                0x0000000008058ed8                cachedRoute
 .sbss          0x0000000008058edc        0x2 ../MOD_socket_server_bsp//libucosii_bsp.a(udp.o)
 *fill*         0x0000000008058ede        0x2 
 .sbss          0x0000000008058ee0        0x8 ../MOD_socket_server_bsp//libucosii_bsp.a(in_pcb.o)
                0x0000000008058ee0                inpcb_cachehits
                0x0000000008058ee4                inpcb_cachemiss
 .sbss          0x0000000008058ee8       0x20 ../MOD_socket_server_bsp//libucosii_bsp.a(vfsfiles.o)
                0x0000000008058ee8                vfsystems
                0x0000000008058eec                vfiles
                0x0000000008058ef0                vfsfiles
                0x0000000008058ef4                vfopen_error
                0x0000000008058ef8                vfs_dir_stale
                0x0000000008058efc                vfs_open_files
                0x0000000008058f00                vfs_total_rw_space
                0x0000000008058f04                vfs_total_dyna_files
 .sbss          0x0000000008058f08        0x4 ../MOD_socket_server_bsp//libucosii_bsp.a(alt_instruction_exception_entry.o)
                0x0000000008058f08                alt_instruction_exception_handler
 .sbss          0x0000000008058f0c        0x4 ../MOD_socket_server_bsp//libucosii_bsp.a(icmp.o)
                0x0000000008058f0c                icmpdu_hook
 *(.sbss2 .sbss2.* .gnu.linkonce.sb2.*)
 *(.scommon)
                [!provide]                        PROVIDE (__sbss_end = ABSOLUTE (.))
                [!provide]                        PROVIDE (___sbss_end = ABSOLUTE (.))
 *(.dynbss)
 *(.bss .bss.* .gnu.linkonce.b.*)
 .bss           0x0000000008058f10        0x0 ../MOD_socket_server_bsp//obj/HAL/src/crt0.o
 .bss           0x0000000008058f10        0x0 obj/default/ClockModInit.o
 .bss           0x0000000008058f10      0x39c obj/default/DELHProtocol.o
 .bss           0x00000000080592ac        0x0 obj/default/InitializePeriph.o
 .bss           0x00000000080592ac        0x0 obj/default/alt_error_handler.o
 .bss           0x00000000080592ac        0x0 obj/default/iniche_init.o
 .bss           0x00000000080592ac        0x0 obj/default/led.o
 .bss           0x00000000080592ac        0x0 obj/default/network_utilities.o
 .bss           0x00000000080592ac        0x0 obj/default/simple_socket_server.o
 .bss           0x00000000080592ac        0x0 obj/default/tse_my_system.o
 .bss           0x00000000080592ac        0x0 /home/tom/intelFPGA_lite/20.1/nios2eds/bin/gnu/H-x86_64-pc-linux-gnu/bin/../lib/gcc/nios2-elf/9.2.1/../../../../../H-x86_64-pc-linux-gnu/nios2-elf/lib/libc.a(lib_a-ctype_.o)
 .bss           0x00000000080592ac        0x0 /home/tom/intelFPGA_lite/20.1/nios2eds/bin/gnu/H-x86_64-pc-linux-gnu/bin/../lib/gcc/nios2-elf/9.2.1/../../../../../H-x86_64-pc-linux-gnu/nios2-elf/lib/libc.a(lib_a-fprintf.o)
 .bss           0x00000000080592ac        0x0 /home/tom/intelFPGA_lite/20.1/nios2eds/bin/gnu/H-x86_64-pc-linux-gnu/bin/../lib/gcc/nios2-elf/9.2.1/../../../../../H-x86_64-pc-linux-gnu/nios2-elf/lib/libc.a(lib_a-fwrite.o)
 .bss           0x00000000080592ac        0x0 /home/tom/intelFPGA_lite/20.1/nios2eds/bin/gnu/H-x86_64-pc-linux-gnu/bin/../lib/gcc/nios2-elf/9.2.1/../../../../../H-x86_64-pc-linux-gnu/nios2-elf/lib/libc.a(lib_a-getchar.o)
 .bss           0x00000000080592ac        0x0 /home/tom/intelFPGA_lite/20.1/nios2eds/bin/gnu/H-x86_64-pc-linux-gnu/bin/../lib/gcc/nios2-elf/9.2.1/../../../../../H-x86_64-pc-linux-gnu/nios2-elf/lib/libc.a(lib_a-impure.o)
 .bss           0x00000000080592ac        0x0 /home/tom/intelFPGA_lite/20.1/nios2eds/bin/gnu/H-x86_64-pc-linux-gnu/bin/../lib/gcc/nios2-elf/9.2.1/../../../../../H-x86_64-pc-linux-gnu/nios2-elf/lib/libc.a(lib_a-memcmp.o)
 .bss           0x00000000080592ac        0x0 /home/tom/intelFPGA_lite/20.1/nios2eds/bin/gnu/H-x86_64-pc-linux-gnu/bin/../lib/gcc/nios2-elf/9.2.1/../../../../../H-x86_64-pc-linux-gnu/nios2-elf/lib/libc.a(lib_a-memcpy.o)
 .bss           0x00000000080592ac        0x0 /home/tom/intelFPGA_lite/20.1/nios2eds/bin/gnu/H-x86_64-pc-linux-gnu/bin/../lib/gcc/nios2-elf/9.2.1/../../../../../H-x86_64-pc-linux-gnu/nios2-elf/lib/libc.a(lib_a-memset.o)
 .bss           0x00000000080592ac        0x0 /home/tom/intelFPGA_lite/20.1/nios2eds/bin/gnu/H-x86_64-pc-linux-gnu/bin/../lib/gcc/nios2-elf/9.2.1/../../../../../H-x86_64-pc-linux-gnu/nios2-elf/lib/libc.a(lib_a-perror.o)
 .bss           0x00000000080592ac        0x0 /home/tom/intelFPGA_lite/20.1/nios2eds/bin/gnu/H-x86_64-pc-linux-gnu/bin/../lib/gcc/nios2-elf/9.2.1/../../../../../H-x86_64-pc-linux-gnu/nios2-elf/lib/libc.a(lib_a-printf.o)
 .bss           0x00000000080592ac        0x0 /home/tom/intelFPGA_lite/20.1/nios2eds/bin/gnu/H-x86_64-pc-linux-gnu/bin/../lib/gcc/nios2-elf/9.2.1/../../../../../H-x86_64-pc-linux-gnu/nios2-elf/lib/libc.a(lib_a-putchar.o)
 .bss           0x00000000080592ac        0x0 /home/tom/intelFPGA_lite/20.1/nios2eds/bin/gnu/H-x86_64-pc-linux-gnu/bin/../lib/gcc/nios2-elf/9.2.1/../../../../../H-x86_64-pc-linux-gnu/nios2-elf/lib/libc.a(lib_a-puts.o)
 .bss           0x00000000080592ac        0x0 /home/tom/intelFPGA_lite/20.1/nios2eds/bin/gnu/H-x86_64-pc-linux-gnu/bin/../lib/gcc/nios2-elf/9.2.1/../../../../../H-x86_64-pc-linux-gnu/nios2-elf/lib/libc.a(lib_a-sprintf.o)
 .bss           0x00000000080592ac        0x0 /home/tom/intelFPGA_lite/20.1/nios2eds/bin/gnu/H-x86_64-pc-linux-gnu/bin/../lib/gcc/nios2-elf/9.2.1/../../../../../H-x86_64-pc-linux-gnu/nios2-elf/lib/libc.a(lib_a-strcpy.o)
 .bss           0x00000000080592ac        0x0 /home/tom/intelFPGA_lite/20.1/nios2eds/bin/gnu/H-x86_64-pc-linux-gnu/bin/../lib/gcc/nios2-elf/9.2.1/../../../../../H-x86_64-pc-linux-gnu/nios2-elf/lib/libc.a(lib_a-strerror.o)
 .bss           0x00000000080592ac        0x0 /home/tom/intelFPGA_lite/20.1/nios2eds/bin/gnu/H-x86_64-pc-linux-gnu/bin/../lib/gcc/nios2-elf/9.2.1/../../../../../H-x86_64-pc-linux-gnu/nios2-elf/lib/libc.a(lib_a-strlen.o)
 .bss           0x00000000080592ac        0x0 /home/tom/intelFPGA_lite/20.1/nios2eds/bin/gnu/H-x86_64-pc-linux-gnu/bin/../lib/gcc/nios2-elf/9.2.1/../../../../../H-x86_64-pc-linux-gnu/nios2-elf/lib/libc.a(lib_a-strtok.o)
 .bss           0x00000000080592ac        0x0 /home/tom/intelFPGA_lite/20.1/nios2eds/bin/gnu/H-x86_64-pc-linux-gnu/bin/../lib/gcc/nios2-elf/9.2.1/../../../../../H-x86_64-pc-linux-gnu/nios2-elf/lib/libc.a(lib_a-strtok_r.o)
 .bss           0x00000000080592ac        0x0 /home/tom/intelFPGA_lite/20.1/nios2eds/bin/gnu/H-x86_64-pc-linux-gnu/bin/../lib/gcc/nios2-elf/9.2.1/../../../../../H-x86_64-pc-linux-gnu/nios2-elf/lib/libc.a(lib_a-strtoul.o)
 .bss           0x00000000080592ac        0x0 /home/tom/intelFPGA_lite/20.1/nios2eds/bin/gnu/H-x86_64-pc-linux-gnu/bin/../lib/gcc/nios2-elf/9.2.1/../../../../../H-x86_64-pc-linux-gnu/nios2-elf/lib/libc.a(lib_a-svfprintf.o)
 .bss           0x00000000080592ac        0x0 /home/tom/intelFPGA_lite/20.1/nios2eds/bin/gnu/H-x86_64-pc-linux-gnu/bin/../lib/gcc/nios2-elf/9.2.1/../../../../../H-x86_64-pc-linux-gnu/nios2-elf/lib/libc.a(lib_a-u_strerr.o)
 .bss           0x00000000080592ac        0x0 /home/tom/intelFPGA_lite/20.1/nios2eds/bin/gnu/H-x86_64-pc-linux-gnu/bin/../lib/gcc/nios2-elf/9.2.1/../../../../../H-x86_64-pc-linux-gnu/nios2-elf/lib/libc.a(lib_a-vfprintf.o)
 .bss           0x00000000080592ac        0x0 /home/tom/intelFPGA_lite/20.1/nios2eds/bin/gnu/H-x86_64-pc-linux-gnu/bin/../lib/gcc/nios2-elf/9.2.1/../../../../../H-x86_64-pc-linux-gnu/nios2-elf/lib/libc.a(lib_a-writer.o)
 .bss           0x00000000080592ac        0x0 /home/tom/intelFPGA_lite/20.1/nios2eds/bin/gnu/H-x86_64-pc-linux-gnu/bin/../lib/gcc/nios2-elf/9.2.1/../../../../../H-x86_64-pc-linux-gnu/nios2-elf/lib/libc.a(lib_a-wsetup.o)
 .bss           0x00000000080592ac        0x0 /home/tom/intelFPGA_lite/20.1/nios2eds/bin/gnu/H-x86_64-pc-linux-gnu/bin/../lib/gcc/nios2-elf/9.2.1/../../../../../H-x86_64-pc-linux-gnu/nios2-elf/lib/libc.a(lib_a-dtoa.o)
 .bss           0x00000000080592ac        0x0 /home/tom/intelFPGA_lite/20.1/nios2eds/bin/gnu/H-x86_64-pc-linux-gnu/bin/../lib/gcc/nios2-elf/9.2.1/../../../../../H-x86_64-pc-linux-gnu/nios2-elf/lib/libc.a(lib_a-fflush.o)
 .bss           0x00000000080592ac        0x0 /home/tom/intelFPGA_lite/20.1/nios2eds/bin/gnu/H-x86_64-pc-linux-gnu/bin/../lib/gcc/nios2-elf/9.2.1/../../../../../H-x86_64-pc-linux-gnu/nios2-elf/lib/libc.a(lib_a-fileno.o)
 .bss           0x00000000080592ac        0x0 /home/tom/intelFPGA_lite/20.1/nios2eds/bin/gnu/H-x86_64-pc-linux-gnu/bin/../lib/gcc/nios2-elf/9.2.1/../../../../../H-x86_64-pc-linux-gnu/nios2-elf/lib/libc.a(lib_a-findfp.o)
 .bss           0x00000000080592ac        0x0 /home/tom/intelFPGA_lite/20.1/nios2eds/bin/gnu/H-x86_64-pc-linux-gnu/bin/../lib/gcc/nios2-elf/9.2.1/../../../../../H-x86_64-pc-linux-gnu/nios2-elf/lib/libc.a(lib_a-freer.o)
 .bss           0x00000000080592ac        0x0 /home/tom/intelFPGA_lite/20.1/nios2eds/bin/gnu/H-x86_64-pc-linux-gnu/bin/../lib/gcc/nios2-elf/9.2.1/../../../../../H-x86_64-pc-linux-gnu/nios2-elf/lib/libc.a(lib_a-fvwrite.o)
 .bss           0x00000000080592ac        0x0 /home/tom/intelFPGA_lite/20.1/nios2eds/bin/gnu/H-x86_64-pc-linux-gnu/bin/../lib/gcc/nios2-elf/9.2.1/../../../../../H-x86_64-pc-linux-gnu/nios2-elf/lib/libc.a(lib_a-fwalk.o)
 .bss           0x00000000080592ac        0x0 /home/tom/intelFPGA_lite/20.1/nios2eds/bin/gnu/H-x86_64-pc-linux-gnu/bin/../lib/gcc/nios2-elf/9.2.1/../../../../../H-x86_64-pc-linux-gnu/nios2-elf/lib/libc.a(lib_a-getc.o)
 .bss           0x00000000080592ac        0x0 /home/tom/intelFPGA_lite/20.1/nios2eds/bin/gnu/H-x86_64-pc-linux-gnu/bin/../lib/gcc/nios2-elf/9.2.1/../../../../../H-x86_64-pc-linux-gnu/nios2-elf/lib/libc.a(lib_a-int_errno.o)
 .bss           0x00000000080592ac        0x0 /home/tom/intelFPGA_lite/20.1/nios2eds/bin/gnu/H-x86_64-pc-linux-gnu/bin/../lib/gcc/nios2-elf/9.2.1/../../../../../H-x86_64-pc-linux-gnu/nios2-elf/lib/libc.a(lib_a-localeconv.o)
 .bss           0x00000000080592ac        0x0 /home/tom/intelFPGA_lite/20.1/nios2eds/bin/gnu/H-x86_64-pc-linux-gnu/bin/../lib/gcc/nios2-elf/9.2.1/../../../../../H-x86_64-pc-linux-gnu/nios2-elf/lib/libc.a(lib_a-makebuf.o)
 .bss           0x00000000080592ac        0x0 /home/tom/intelFPGA_lite/20.1/nios2eds/bin/gnu/H-x86_64-pc-linux-gnu/bin/../lib/gcc/nios2-elf/9.2.1/../../../../../H-x86_64-pc-linux-gnu/nios2-elf/lib/libc.a(lib_a-mallocr.o)
 .bss.__malloc_current_mallinfo
                0x00000000080592ac       0x28 /home/tom/intelFPGA_lite/20.1/nios2eds/bin/gnu/H-x86_64-pc-linux-gnu/bin/../lib/gcc/nios2-elf/9.2.1/../../../../../H-x86_64-pc-linux-gnu/nios2-elf/lib/libc.a(lib_a-mallocr.o)
                0x00000000080592ac                __malloc_current_mallinfo
 .bss           0x00000000080592d4        0x0 /home/tom/intelFPGA_lite/20.1/nios2eds/bin/gnu/H-x86_64-pc-linux-gnu/bin/../lib/gcc/nios2-elf/9.2.1/../../../../../H-x86_64-pc-linux-gnu/nios2-elf/lib/libc.a(lib_a-memchr.o)
 .bss           0x00000000080592d4        0x0 /home/tom/intelFPGA_lite/20.1/nios2eds/bin/gnu/H-x86_64-pc-linux-gnu/bin/../lib/gcc/nios2-elf/9.2.1/../../../../../H-x86_64-pc-linux-gnu/nios2-elf/lib/libc.a(lib_a-memmove.o)
 .bss           0x00000000080592d4        0x0 /home/tom/intelFPGA_lite/20.1/nios2eds/bin/gnu/H-x86_64-pc-linux-gnu/bin/../lib/gcc/nios2-elf/9.2.1/../../../../../H-x86_64-pc-linux-gnu/nios2-elf/lib/libc.a(lib_a-mprec.o)
 .bss           0x00000000080592d4        0x0 /home/tom/intelFPGA_lite/20.1/nios2eds/bin/gnu/H-x86_64-pc-linux-gnu/bin/../lib/gcc/nios2-elf/9.2.1/../../../../../H-x86_64-pc-linux-gnu/nios2-elf/lib/libc.a(lib_a-putc.o)
 .bss           0x00000000080592d4        0x0 /home/tom/intelFPGA_lite/20.1/nios2eds/bin/gnu/H-x86_64-pc-linux-gnu/bin/../lib/gcc/nios2-elf/9.2.1/../../../../../H-x86_64-pc-linux-gnu/nios2-elf/lib/libc.a(lib_a-reallocr.o)
 .bss           0x00000000080592d4        0x0 /home/tom/intelFPGA_lite/20.1/nios2eds/bin/gnu/H-x86_64-pc-linux-gnu/bin/../lib/gcc/nios2-elf/9.2.1/../../../../../H-x86_64-pc-linux-gnu/nios2-elf/lib/libc.a(lib_a-rget.o)
 .bss           0x00000000080592d4        0x0 /home/tom/intelFPGA_lite/20.1/nios2eds/bin/gnu/H-x86_64-pc-linux-gnu/bin/../lib/gcc/nios2-elf/9.2.1/../../../../../H-x86_64-pc-linux-gnu/nios2-elf/lib/libc.a(lib_a-sbrkr.o)
 .bss           0x00000000080592d4        0x0 /home/tom/intelFPGA_lite/20.1/nios2eds/bin/gnu/H-x86_64-pc-linux-gnu/bin/../lib/gcc/nios2-elf/9.2.1/../../../../../H-x86_64-pc-linux-gnu/nios2-elf/lib/libc.a(lib_a-stdio.o)
 .bss           0x00000000080592d4        0x0 /home/tom/intelFPGA_lite/20.1/nios2eds/bin/gnu/H-x86_64-pc-linux-gnu/bin/../lib/gcc/nios2-elf/9.2.1/../../../../../H-x86_64-pc-linux-gnu/nios2-elf/lib/libc.a(lib_a-svfiprintf.o)
 .bss           0x00000000080592d4        0x0 /home/tom/intelFPGA_lite/20.1/nios2eds/bin/gnu/H-x86_64-pc-linux-gnu/bin/../lib/gcc/nios2-elf/9.2.1/../../../../../H-x86_64-pc-linux-gnu/nios2-elf/lib/libc.a(lib_a-vfiprintf.o)
 .bss           0x00000000080592d4        0x0 /home/tom/intelFPGA_lite/20.1/nios2eds/bin/gnu/H-x86_64-pc-linux-gnu/bin/../lib/gcc/nios2-elf/9.2.1/../../../../../H-x86_64-pc-linux-gnu/nios2-elf/lib/libc.a(lib_a-wbuf.o)
 .bss           0x00000000080592d4        0x0 /home/tom/intelFPGA_lite/20.1/nios2eds/bin/gnu/H-x86_64-pc-linux-gnu/bin/../lib/gcc/nios2-elf/9.2.1/../../../../../H-x86_64-pc-linux-gnu/nios2-elf/lib/libc.a(closer.o)
 .bss           0x00000000080592d4        0x0 /home/tom/intelFPGA_lite/20.1/nios2eds/bin/gnu/H-x86_64-pc-linux-gnu/bin/../lib/gcc/nios2-elf/9.2.1/../../../../../H-x86_64-pc-linux-gnu/nios2-elf/lib/libc.a(lib_a-assert.o)
 .bss           0x00000000080592d4        0x0 /home/tom/intelFPGA_lite/20.1/nios2eds/bin/gnu/H-x86_64-pc-linux-gnu/bin/../lib/gcc/nios2-elf/9.2.1/../../../../../H-x86_64-pc-linux-gnu/nios2-elf/lib/libc.a(lib_a-callocr.o)
 .bss           0x00000000080592d4        0x0 /home/tom/intelFPGA_lite/20.1/nios2eds/bin/gnu/H-x86_64-pc-linux-gnu/bin/../lib/gcc/nios2-elf/9.2.1/../../../../../H-x86_64-pc-linux-gnu/nios2-elf/lib/libc.a(lib_a-fclose.o)
 .bss           0x00000000080592d4        0x0 /home/tom/intelFPGA_lite/20.1/nios2eds/bin/gnu/H-x86_64-pc-linux-gnu/bin/../lib/gcc/nios2-elf/9.2.1/../../../../../H-x86_64-pc-linux-gnu/nios2-elf/lib/libc.a(lib_a-fiprintf.o)
 .bss           0x00000000080592d4        0x0 /home/tom/intelFPGA_lite/20.1/nios2eds/bin/gnu/H-x86_64-pc-linux-gnu/bin/../lib/gcc/nios2-elf/9.2.1/../../../../../H-x86_64-pc-linux-gnu/nios2-elf/lib/libc.a(lib_a-fputwc.o)
 .bss           0x00000000080592d4        0x0 /home/tom/intelFPGA_lite/20.1/nios2eds/bin/gnu/H-x86_64-pc-linux-gnu/bin/../lib/gcc/nios2-elf/9.2.1/../../../../../H-x86_64-pc-linux-gnu/nios2-elf/lib/libc.a(lib_a-fstatr.o)
 .bss           0x00000000080592d4        0x0 /home/tom/intelFPGA_lite/20.1/nios2eds/bin/gnu/H-x86_64-pc-linux-gnu/bin/../lib/gcc/nios2-elf/9.2.1/../../../../../H-x86_64-pc-linux-gnu/nios2-elf/lib/libc.a(lib_a-isattyr.o)
 .bss           0x00000000080592d4        0x0 /home/tom/intelFPGA_lite/20.1/nios2eds/bin/gnu/H-x86_64-pc-linux-gnu/bin/../lib/gcc/nios2-elf/9.2.1/../../../../../H-x86_64-pc-linux-gnu/nios2-elf/lib/libc.a(lib_a-locale.o)
 .bss           0x00000000080592d4        0x0 /home/tom/intelFPGA_lite/20.1/nios2eds/bin/gnu/H-x86_64-pc-linux-gnu/bin/../lib/gcc/nios2-elf/9.2.1/../../../../../H-x86_64-pc-linux-gnu/nios2-elf/lib/libc.a(lib_a-lseekr.o)
 .bss           0x00000000080592d4        0x0 /home/tom/intelFPGA_lite/20.1/nios2eds/bin/gnu/H-x86_64-pc-linux-gnu/bin/../lib/gcc/nios2-elf/9.2.1/../../../../../H-x86_64-pc-linux-gnu/nios2-elf/lib/libc.a(lib_a-mbtowc_r.o)
 .bss           0x00000000080592d4        0x0 /home/tom/intelFPGA_lite/20.1/nios2eds/bin/gnu/H-x86_64-pc-linux-gnu/bin/../lib/gcc/nios2-elf/9.2.1/../../../../../H-x86_64-pc-linux-gnu/nios2-elf/lib/libc.a(lib_a-readr.o)
 .bss           0x00000000080592d4        0x0 /home/tom/intelFPGA_lite/20.1/nios2eds/bin/gnu/H-x86_64-pc-linux-gnu/bin/../lib/gcc/nios2-elf/9.2.1/../../../../../H-x86_64-pc-linux-gnu/nios2-elf/lib/libc.a(lib_a-refill.o)
 .bss           0x00000000080592d4        0x0 /home/tom/intelFPGA_lite/20.1/nios2eds/bin/gnu/H-x86_64-pc-linux-gnu/bin/../lib/gcc/nios2-elf/9.2.1/../../../../../H-x86_64-pc-linux-gnu/nios2-elf/lib/libc.a(lib_a-strcmp.o)
 .bss           0x00000000080592d4        0x0 /home/tom/intelFPGA_lite/20.1/nios2eds/bin/gnu/H-x86_64-pc-linux-gnu/bin/../lib/gcc/nios2-elf/9.2.1/../../../../../H-x86_64-pc-linux-gnu/nios2-elf/lib/libc.a(lib_a-vfiprintfr_1.o)
 .bss           0x00000000080592d4        0x0 /home/tom/intelFPGA_lite/20.1/nios2eds/bin/gnu/H-x86_64-pc-linux-gnu/bin/../lib/gcc/nios2-elf/9.2.1/../../../../../H-x86_64-pc-linux-gnu/nios2-elf/lib/libc.a(lib_a-wcrtomb.o)
 .bss           0x00000000080592d4        0x0 /home/tom/intelFPGA_lite/20.1/nios2eds/bin/gnu/H-x86_64-pc-linux-gnu/bin/../lib/gcc/nios2-elf/9.2.1/../../../../../H-x86_64-pc-linux-gnu/nios2-elf/lib/libc.a(lib_a-wctomb_r.o)
 .bss           0x00000000080592d4        0x0 /home/tom/intelFPGA_lite/20.1/nios2eds/bin/gnu/H-x86_64-pc-linux-gnu/bin/../lib/gcc/nios2-elf/9.2.1/../../../../../H-x86_64-pc-linux-gnu/nios2-elf/lib/libc.a(lib_a-abort.o)
 .bss           0x00000000080592d4        0x0 /home/tom/intelFPGA_lite/20.1/nios2eds/bin/gnu/H-x86_64-pc-linux-gnu/bin/../lib/gcc/nios2-elf/9.2.1/../../../../../H-x86_64-pc-linux-gnu/nios2-elf/lib/libc.a(lib_a-signal.o)
 .bss           0x00000000080592d4        0x0 /home/tom/intelFPGA_lite/20.1/nios2eds/bin/gnu/H-x86_64-pc-linux-gnu/bin/../lib/gcc/nios2-elf/9.2.1/../../../../../H-x86_64-pc-linux-gnu/nios2-elf/lib/libc.a(lib_a-signalr.o)
 .bss           0x00000000080592d4        0x0 /home/tom/intelFPGA_lite/20.1/nios2eds/bin/gnu/H-x86_64-pc-linux-gnu/bin/../lib/gcc/nios2-elf/9.2.1/libgcc.a(_udivdi3.o)
 .bss           0x00000000080592d4        0x0 /home/tom/intelFPGA_lite/20.1/nios2eds/bin/gnu/H-x86_64-pc-linux-gnu/bin/../lib/gcc/nios2-elf/9.2.1/libgcc.a(_umoddi3.o)
 .bss           0x00000000080592d4        0x0 /home/tom/intelFPGA_lite/20.1/nios2eds/bin/gnu/H-x86_64-pc-linux-gnu/bin/../lib/gcc/nios2-elf/9.2.1/libgcc.a(lib2-divmod.o)
 .bss           0x00000000080592d4        0x0 /home/tom/intelFPGA_lite/20.1/nios2eds/bin/gnu/H-x86_64-pc-linux-gnu/bin/../lib/gcc/nios2-elf/9.2.1/libgcc.a(adddf3.o)
 .bss           0x00000000080592d4        0x0 /home/tom/intelFPGA_lite/20.1/nios2eds/bin/gnu/H-x86_64-pc-linux-gnu/bin/../lib/gcc/nios2-elf/9.2.1/libgcc.a(divdf3.o)
 .bss           0x00000000080592d4        0x0 /home/tom/intelFPGA_lite/20.1/nios2eds/bin/gnu/H-x86_64-pc-linux-gnu/bin/../lib/gcc/nios2-elf/9.2.1/libgcc.a(eqdf2.o)
 .bss           0x00000000080592d4        0x0 /home/tom/intelFPGA_lite/20.1/nios2eds/bin/gnu/H-x86_64-pc-linux-gnu/bin/../lib/gcc/nios2-elf/9.2.1/libgcc.a(gedf2.o)
 .bss           0x00000000080592d4        0x0 /home/tom/intelFPGA_lite/20.1/nios2eds/bin/gnu/H-x86_64-pc-linux-gnu/bin/../lib/gcc/nios2-elf/9.2.1/libgcc.a(ledf2.o)
 .bss           0x00000000080592d4        0x0 /home/tom/intelFPGA_lite/20.1/nios2eds/bin/gnu/H-x86_64-pc-linux-gnu/bin/../lib/gcc/nios2-elf/9.2.1/libgcc.a(muldf3.o)
 .bss           0x00000000080592d4        0x0 /home/tom/intelFPGA_lite/20.1/nios2eds/bin/gnu/H-x86_64-pc-linux-gnu/bin/../lib/gcc/nios2-elf/9.2.1/libgcc.a(subdf3.o)
 .bss           0x00000000080592d4        0x0 /home/tom/intelFPGA_lite/20.1/nios2eds/bin/gnu/H-x86_64-pc-linux-gnu/bin/../lib/gcc/nios2-elf/9.2.1/libgcc.a(unorddf2.o)
 .bss           0x00000000080592d4        0x0 /home/tom/intelFPGA_lite/20.1/nios2eds/bin/gnu/H-x86_64-pc-linux-gnu/bin/../lib/gcc/nios2-elf/9.2.1/libgcc.a(fixdfsi.o)
 .bss           0x00000000080592d4        0x0 /home/tom/intelFPGA_lite/20.1/nios2eds/bin/gnu/H-x86_64-pc-linux-gnu/bin/../lib/gcc/nios2-elf/9.2.1/libgcc.a(floatsidf.o)
 .bss           0x00000000080592d4        0x0 /home/tom/intelFPGA_lite/20.1/nios2eds/bin/gnu/H-x86_64-pc-linux-gnu/bin/../lib/gcc/nios2-elf/9.2.1/libgcc.a(floatunsidf.o)
 .bss           0x00000000080592d4        0x0 /home/tom/intelFPGA_lite/20.1/nios2eds/bin/gnu/H-x86_64-pc-linux-gnu/bin/../lib/gcc/nios2-elf/9.2.1/libgcc.a(_clz.o)
 .bss           0x00000000080592d4        0x0 /home/tom/intelFPGA_lite/20.1/nios2eds/bin/gnu/H-x86_64-pc-linux-gnu/bin/../lib/gcc/nios2-elf/9.2.1/libgcc.a(_clzsi2.o)
 .bss           0x00000000080592d4        0x0 ../MOD_socket_server_bsp//libucosii_bsp.a(alt_exit.o)
 .bss           0x00000000080592d4        0x0 ../MOD_socket_server_bsp//libucosii_bsp.a(alt_fstat.o)
 .bss           0x00000000080592d4        0x0 ../MOD_socket_server_bsp//libucosii_bsp.a(alt_getpid.o)
 .bss           0x00000000080592d4        0x0 ../MOD_socket_server_bsp//libucosii_bsp.a(alt_isatty.o)
 .bss           0x00000000080592d4        0x0 ../MOD_socket_server_bsp//libucosii_bsp.a(alt_kill.o)
 .bss           0x00000000080592d4        0x0 ../MOD_socket_server_bsp//libucosii_bsp.a(alt_lseek.o)
 .bss           0x00000000080592d4        0x0 ../MOD_socket_server_bsp//libucosii_bsp.a(alt_main.o)
 .bss           0x00000000080592d4        0x0 ../MOD_socket_server_bsp//libucosii_bsp.a(alt_sbrk.o)
 .bss           0x00000000080592d4        0x0 ../MOD_socket_server_bsp//libucosii_bsp.a(alt_env_lock.o)
 .bss           0x00000000080592d4        0x0 ../MOD_socket_server_bsp//libucosii_bsp.a(alt_malloc_lock.o)
 .bss           0x00000000080592d4        0x0 ../MOD_socket_server_bsp//libucosii_bsp.a(os_core.o)
 .bss           0x00000000080592d4        0x0 ../MOD_socket_server_bsp//libucosii_bsp.a(os_dbg.o)
 .bss           0x00000000080592d4        0x0 ../MOD_socket_server_bsp//libucosii_bsp.a(os_flag.o)
 .bss           0x00000000080592d4        0x0 ../MOD_socket_server_bsp//libucosii_bsp.a(os_mem.o)
 .bss           0x00000000080592d4        0x0 ../MOD_socket_server_bsp//libucosii_bsp.a(os_q.o)
 .bss           0x00000000080592d4        0x0 ../MOD_socket_server_bsp//libucosii_bsp.a(os_sem.o)
 .bss           0x00000000080592d4        0x0 ../MOD_socket_server_bsp//libucosii_bsp.a(os_task.o)
 .bss           0x00000000080592d4        0x0 ../MOD_socket_server_bsp//libucosii_bsp.a(os_time.o)
 .bss           0x00000000080592d4        0x0 ../MOD_socket_server_bsp//libucosii_bsp.a(alt_sys_init.o)
 .bss           0x00000000080592d4        0x0 ../MOD_socket_server_bsp//libucosii_bsp.a(altera_avalon_fifo_util.o)
 .bss           0x00000000080592d4        0x0 ../MOD_socket_server_bsp//libucosii_bsp.a(altera_avalon_i2c.o)
 .bss           0x00000000080592d4        0x0 ../MOD_socket_server_bsp//libucosii_bsp.a(altera_avalon_jtag_uart_fd.o)
 .bss           0x00000000080592d4        0x0 ../MOD_socket_server_bsp//libucosii_bsp.a(altera_avalon_jtag_uart_init.o)
 .bss           0x00000000080592d4        0x0 ../MOD_socket_server_bsp//libucosii_bsp.a(altera_avalon_jtag_uart_ioctl.o)
 .bss           0x00000000080592d4        0x0 ../MOD_socket_server_bsp//libucosii_bsp.a(altera_avalon_jtag_uart_read.o)
 .bss           0x00000000080592d4        0x0 ../MOD_socket_server_bsp//libucosii_bsp.a(altera_avalon_jtag_uart_write.o)
 .bss           0x00000000080592d4        0x0 ../MOD_socket_server_bsp//libucosii_bsp.a(altera_avalon_spi.o)
 .bss           0x00000000080592d4        0x0 ../MOD_socket_server_bsp//libucosii_bsp.a(altera_avalon_timer_sc.o)
 .bss           0x00000000080592d4        0x0 ../MOD_socket_server_bsp//libucosii_bsp.a(altera_avalon_tse.o)
 .bss           0x00000000080592d4        0x0 ../MOD_socket_server_bsp//libucosii_bsp.a(altera_generic_quad_spi_controller.o)
 .bss           0x00000000080592d4        0x0 ../MOD_socket_server_bsp//libucosii_bsp.a(altera_msgdma.o)
 .bss           0x00000000080592d4        0x0 ../MOD_socket_server_bsp//libucosii_bsp.a(ins_tse_mac.o)
 .bss           0x00000000080592d4        0x0 ../MOD_socket_server_bsp//libucosii_bsp.a(alt_iniche_close.o)
 .bss           0x00000000080592d4        0x0 ../MOD_socket_server_bsp//libucosii_bsp.a(alt_iniche_dev.o)
 .bss           0x00000000080592d4        0x0 ../MOD_socket_server_bsp//libucosii_bsp.a(alt_iniche_read.o)
 .bss           0x00000000080592d4        0x0 ../MOD_socket_server_bsp//libucosii_bsp.a(alt_iniche_write.o)
 .bss           0x00000000080592d4        0x0 ../MOD_socket_server_bsp//libucosii_bsp.a(ipnet.o)
 .bss           0x00000000080592d4       0x3c ../MOD_socket_server_bsp//libucosii_bsp.a(ipstart.o)
 .bss           0x0000000008059310        0x0 ../MOD_socket_server_bsp//libucosii_bsp.a(igmp_cmn.o)
 .bss           0x0000000008059310        0x0 ../MOD_socket_server_bsp//libucosii_bsp.a(bsdsock.o)
 .bss           0x0000000008059310        0x0 ../MOD_socket_server_bsp//libucosii_bsp.a(cksum.o)
 .bss           0x0000000008059310       0x18 ../MOD_socket_server_bsp//libucosii_bsp.a(in_utils.o)
 .bss           0x0000000008059328        0x0 ../MOD_socket_server_bsp//libucosii_bsp.a(netmain.o)
 .bss           0x0000000008059328        0x0 ../MOD_socket_server_bsp//libucosii_bsp.a(tk_crnos.o)
 .bss           0x0000000008059328        0x0 ../MOD_socket_server_bsp//libucosii_bsp.a(dhcpclnt.o)
 .bss           0x0000000008059328        0x0 ../MOD_socket_server_bsp//libucosii_bsp.a(dhcputil.o)
 .bss           0x0000000008059328        0x0 ../MOD_socket_server_bsp//libucosii_bsp.a(pktalloc.o)
 .bss           0x0000000008059328        0x0 ../MOD_socket_server_bsp//libucosii_bsp.a(q.o)
 .bss           0x0000000008059328        0x0 ../MOD_socket_server_bsp//libucosii_bsp.a(udp_open.o)
 .bss           0x0000000008059328        0x0 ../MOD_socket_server_bsp//libucosii_bsp.a(asm_cksum.o)
 .bss           0x0000000008059328        0x0 ../MOD_socket_server_bsp//libucosii_bsp.a(brdutils.o)
 .bss           0x0000000008059328        0x0 ../MOD_socket_server_bsp//libucosii_bsp.a(osportco.o)
 .bss           0x0000000008059328        0x0 ../MOD_socket_server_bsp//libucosii_bsp.a(targnios.o)
 .bss           0x0000000008059328        0x0 ../MOD_socket_server_bsp//libucosii_bsp.a(nptcp.o)
 .bss           0x0000000008059328        0x0 ../MOD_socket_server_bsp//libucosii_bsp.a(rawsock.o)
 .bss           0x0000000008059328        0x0 ../MOD_socket_server_bsp//libucosii_bsp.a(sockcall.o)
 .bss           0x0000000008059328        0x0 ../MOD_socket_server_bsp//libucosii_bsp.a(socket.o)
 .bss           0x0000000008059328        0x0 ../MOD_socket_server_bsp//libucosii_bsp.a(socket2.o)
 .bss           0x0000000008059328        0x0 ../MOD_socket_server_bsp//libucosii_bsp.a(soselect.o)
 .bss           0x0000000008059328        0x0 ../MOD_socket_server_bsp//libucosii_bsp.a(tcp_in.o)
 .bss           0x0000000008059328        0x0 ../MOD_socket_server_bsp//libucosii_bsp.a(tcp_out.o)
 .bss           0x0000000008059328        0x0 ../MOD_socket_server_bsp//libucosii_bsp.a(tcp_subr.o)
 .bss           0x0000000008059328        0x0 ../MOD_socket_server_bsp//libucosii_bsp.a(tcp_timr.o)
 .bss           0x0000000008059328        0x0 ../MOD_socket_server_bsp//libucosii_bsp.a(tcp_usr.o)
 .bss           0x0000000008059328        0x0 ../MOD_socket_server_bsp//libucosii_bsp.a(tcpport.o)
 .bss           0x0000000008059328        0x0 ../MOD_socket_server_bsp//libucosii_bsp.a(udpsock.o)
 .bss           0x0000000008059328        0x0 ../MOD_socket_server_bsp//libucosii_bsp.a(alt_alarm_start.o)
 .bss           0x0000000008059328        0x0 ../MOD_socket_server_bsp//libucosii_bsp.a(alt_busy_sleep.o)
 .bss           0x0000000008059328        0x0 ../MOD_socket_server_bsp//libucosii_bsp.a(alt_close.o)
 .bss           0x0000000008059328        0x0 ../MOD_socket_server_bsp//libucosii_bsp.a(alt_dcache_flush.o)
 .bss           0x0000000008059328        0x0 ../MOD_socket_server_bsp//libucosii_bsp.a(alt_dev.o)
 .bss           0x0000000008059328        0x0 ../MOD_socket_server_bsp//libucosii_bsp.a(alt_dev_llist_insert.o)
 .bss           0x0000000008059328        0x0 ../MOD_socket_server_bsp//libucosii_bsp.a(alt_do_ctors.o)
 .bss           0x0000000008059328        0x0 ../MOD_socket_server_bsp//libucosii_bsp.a(alt_do_dtors.o)
 .bss           0x0000000008059328        0x0 ../MOD_socket_server_bsp//libucosii_bsp.a(alt_errno.o)
 .bss           0x0000000008059328        0x0 ../MOD_socket_server_bsp//libucosii_bsp.a(alt_find_dev.o)
 .bss           0x0000000008059328        0x0 ../MOD_socket_server_bsp//libucosii_bsp.a(alt_flash_dev.o)
 .bss           0x0000000008059328        0x0 ../MOD_socket_server_bsp//libucosii_bsp.a(alt_iic.o)
 .bss           0x0000000008059328        0x0 ../MOD_socket_server_bsp//libucosii_bsp.a(alt_iic_isr_register.o)
 .bss           0x0000000008059328        0x0 ../MOD_socket_server_bsp//libucosii_bsp.a(alt_io_redirect.o)
 .bss           0x0000000008059328        0x0 ../MOD_socket_server_bsp//libucosii_bsp.a(alt_irq_entry.o)
 .bss           0x0000000008059328        0x0 ../MOD_socket_server_bsp//libucosii_bsp.a(alt_irq_handler.o)
 .bss           0x0000000008059328        0x0 ../MOD_socket_server_bsp//libucosii_bsp.a(alt_irq_vars.o)
 .bss           0x0000000008059328        0x0 ../MOD_socket_server_bsp//libucosii_bsp.a(alt_open.o)
 .bss           0x0000000008059328        0x0 ../MOD_socket_server_bsp//libucosii_bsp.a(alt_printf.o)
 .bss           0x0000000008059328        0x0 ../MOD_socket_server_bsp//libucosii_bsp.a(alt_putchar.o)
 .bss           0x0000000008059328        0x0 ../MOD_socket_server_bsp//libucosii_bsp.a(alt_read.o)
 .bss           0x0000000008059328        0x0 ../MOD_socket_server_bsp//libucosii_bsp.a(alt_release_fd.o)
 .bss           0x0000000008059328        0x0 ../MOD_socket_server_bsp//libucosii_bsp.a(alt_remap_cached.o)
 .bss           0x0000000008059328        0x0 ../MOD_socket_server_bsp//libucosii_bsp.a(alt_tick.o)
 .bss           0x0000000008059328        0x0 ../MOD_socket_server_bsp//libucosii_bsp.a(alt_uncached_free.o)
 .bss           0x0000000008059328        0x0 ../MOD_socket_server_bsp//libucosii_bsp.a(alt_uncached_malloc.o)
 .bss           0x0000000008059328        0x0 ../MOD_socket_server_bsp//libucosii_bsp.a(alt_usleep.o)
 .bss           0x0000000008059328        0x0 ../MOD_socket_server_bsp//libucosii_bsp.a(alt_write.o)
 .bss           0x0000000008059328        0x0 ../MOD_socket_server_bsp//libucosii_bsp.a(altera_nios2_gen2_irq.o)
 .bss           0x0000000008059328        0x0 ../MOD_socket_server_bsp//libucosii_bsp.a(os_cpu_a.o)
 .bss           0x0000000008059328        0x0 ../MOD_socket_server_bsp//libucosii_bsp.a(os_cpu_c.o)
 .bss           0x0000000008059328        0x0 ../MOD_socket_server_bsp//libucosii_bsp.a(allports.o)
 .bss           0x0000000008059328        0x0 ../MOD_socket_server_bsp//libucosii_bsp.a(timeouts.o)
 .bss           0x0000000008059328        0x0 ../MOD_socket_server_bsp//libucosii_bsp.a(tk_misc.o)
 .bss           0x0000000008059328        0x0 ../MOD_socket_server_bsp//libucosii_bsp.a(alt_iniche_fcntl.o)
 .bss           0x0000000008059328        0x0 ../MOD_socket_server_bsp//libucosii_bsp.a(et_arp.o)
 .bss           0x0000000008059328        0x0 ../MOD_socket_server_bsp//libucosii_bsp.a(iface.o)
 .bss           0x0000000008059328        0x0 ../MOD_socket_server_bsp//libucosii_bsp.a(ip.o)
 .bss           0x0000000008059328        0x0 ../MOD_socket_server_bsp//libucosii_bsp.a(ip_reasm.o)
 .bss           0x0000000008059328        0x0 ../MOD_socket_server_bsp//libucosii_bsp.a(ipdemux.o)
 .bss           0x0000000008059328        0x0 ../MOD_socket_server_bsp//libucosii_bsp.a(ipmc.o)
 .bss           0x0000000008059328        0x0 ../MOD_socket_server_bsp//libucosii_bsp.a(ipport.o)
 .bss           0x0000000008059328        0x0 ../MOD_socket_server_bsp//libucosii_bsp.a(ipraw.o)
 .bss           0x0000000008059328        0x0 ../MOD_socket_server_bsp//libucosii_bsp.a(iproute.o)
 .bss           0x0000000008059328        0x0 ../MOD_socket_server_bsp//libucosii_bsp.a(udp.o)
 .bss           0x0000000008059328        0x0 ../MOD_socket_server_bsp//libucosii_bsp.a(igmp.o)
 .bss           0x0000000008059328        0x0 ../MOD_socket_server_bsp//libucosii_bsp.a(igmp2.o)
 .bss           0x0000000008059328        0x0 ../MOD_socket_server_bsp//libucosii_bsp.a(ipopt.o)
 .bss           0x0000000008059328        0x0 ../MOD_socket_server_bsp//libucosii_bsp.a(u_mctest.o)
 .bss           0x0000000008059328        0x0 ../MOD_socket_server_bsp//libucosii_bsp.a(dhcsetup.o)
 .bss           0x0000000008059328        0x0 ../MOD_socket_server_bsp//libucosii_bsp.a(memdev.o)
 .bss           0x0000000008059328       0x1e ../MOD_socket_server_bsp//libucosii_bsp.a(parseip.o)
 .bss           0x0000000008059346        0x0 ../MOD_socket_server_bsp//libucosii_bsp.a(tcpcksum.o)
 .bss           0x0000000008059346        0x0 ../MOD_socket_server_bsp//libucosii_bsp.a(in_pcb.o)
 .bss           0x0000000008059346        0x0 ../MOD_socket_server_bsp//libucosii_bsp.a(vfsfiles.o)
 .bss           0x0000000008059346        0x0 ../MOD_socket_server_bsp//libucosii_bsp.a(vfsport.o)
 .bss           0x0000000008059346        0x0 ../MOD_socket_server_bsp//libucosii_bsp.a(alt_exception_entry.o)
 .bss           0x0000000008059346        0x0 ../MOD_socket_server_bsp//libucosii_bsp.a(alt_fcntl.o)
 .bss           0x0000000008059346        0x0 ../MOD_socket_server_bsp//libucosii_bsp.a(alt_find_file.o)
 .bss           0x0000000008059346        0x0 ../MOD_socket_server_bsp//libucosii_bsp.a(alt_get_fd.o)
 .bss           0x0000000008059346        0x0 ../MOD_socket_server_bsp//libucosii_bsp.a(alt_instruction_exception_entry.o)
 .bss           0x0000000008059346        0x0 ../MOD_socket_server_bsp//libucosii_bsp.a(icmp.o)
 .bss           0x0000000008059346        0x0 /home/tom/intelFPGA_lite/20.1/nios2eds/bin/gnu/H-x86_64-pc-linux-gnu/bin/../lib/gcc/nios2-elf/9.2.1/../../../../../H-x86_64-pc-linux-gnu/nios2-elf/lib/libc.a(lib_a-atexit.o)
 .bss           0x0000000008059346        0x0 /home/tom/intelFPGA_lite/20.1/nios2eds/bin/gnu/H-x86_64-pc-linux-gnu/bin/../lib/gcc/nios2-elf/9.2.1/../../../../../H-x86_64-pc-linux-gnu/nios2-elf/lib/libc.a(lib_a-atoi.o)
 .bss           0x0000000008059346        0x0 /home/tom/intelFPGA_lite/20.1/nios2eds/bin/gnu/H-x86_64-pc-linux-gnu/bin/../lib/gcc/nios2-elf/9.2.1/../../../../../H-x86_64-pc-linux-gnu/nios2-elf/lib/libc.a(lib_a-exit.o)
 .bss           0x0000000008059346        0x0 /home/tom/intelFPGA_lite/20.1/nios2eds/bin/gnu/H-x86_64-pc-linux-gnu/bin/../lib/gcc/nios2-elf/9.2.1/../../../../../H-x86_64-pc-linux-gnu/nios2-elf/lib/libc.a(lib_a-malloc.o)
 .bss           0x0000000008059346        0x0 /home/tom/intelFPGA_lite/20.1/nios2eds/bin/gnu/H-x86_64-pc-linux-gnu/bin/../lib/gcc/nios2-elf/9.2.1/../../../../../H-x86_64-pc-linux-gnu/nios2-elf/lib/libc.a(lib_a-strchr.o)
 .bss           0x0000000008059346        0x0 /home/tom/intelFPGA_lite/20.1/nios2eds/bin/gnu/H-x86_64-pc-linux-gnu/bin/../lib/gcc/nios2-elf/9.2.1/../../../../../H-x86_64-pc-linux-gnu/nios2-elf/lib/libc.a(lib_a-strncmp.o)
 .bss           0x0000000008059346        0x0 /home/tom/intelFPGA_lite/20.1/nios2eds/bin/gnu/H-x86_64-pc-linux-gnu/bin/../lib/gcc/nios2-elf/9.2.1/../../../../../H-x86_64-pc-linux-gnu/nios2-elf/lib/libc.a(lib_a-strncpy.o)
 .bss           0x0000000008059346        0x0 /home/tom/intelFPGA_lite/20.1/nios2eds/bin/gnu/H-x86_64-pc-linux-gnu/bin/../lib/gcc/nios2-elf/9.2.1/../../../../../H-x86_64-pc-linux-gnu/nios2-elf/lib/libc.a(lib_a-strtol.o)
 .bss           0x0000000008059346        0x0 /home/tom/intelFPGA_lite/20.1/nios2eds/bin/gnu/H-x86_64-pc-linux-gnu/bin/../lib/gcc/nios2-elf/9.2.1/../../../../../H-x86_64-pc-linux-gnu/nios2-elf/lib/libc.a(lib_a-vprintf.o)
 .bss           0x0000000008059346        0x0 /home/tom/intelFPGA_lite/20.1/nios2eds/bin/gnu/H-x86_64-pc-linux-gnu/bin/../lib/gcc/nios2-elf/9.2.1/../../../../../H-x86_64-pc-linux-gnu/nios2-elf/lib/libc.a(lib_a-vsprintf.o)
 .bss           0x0000000008059346        0x0 /home/tom/intelFPGA_lite/20.1/nios2eds/bin/gnu/H-x86_64-pc-linux-gnu/bin/../lib/gcc/nios2-elf/9.2.1/../../../../../H-x86_64-pc-linux-gnu/nios2-elf/lib/libc.a(lib_a-__atexit.o)
 .bss           0x0000000008059346        0x0 /home/tom/intelFPGA_lite/20.1/nios2eds/bin/gnu/H-x86_64-pc-linux-gnu/bin/../lib/gcc/nios2-elf/9.2.1/../../../../../H-x86_64-pc-linux-gnu/nios2-elf/lib/libc.a(lib_a-__call_atexit.o)
 .bss           0x0000000008059346        0x0 /home/tom/intelFPGA_lite/20.1/nios2eds/bin/gnu/H-x86_64-pc-linux-gnu/bin/../lib/gcc/nios2-elf/9.2.1/../../../../../H-x86_64-pc-linux-gnu/nios2-elf/lib/libc.a(lib_a-vfprintfr_1.o)
 *(COMMON)
 *fill*         0x0000000008059346        0x2 
 COMMON         0x0000000008059348      0x6d0 obj/default/DELHProtocol.o
                0x0000000008059348                buffer
                0x0000000008059928                ItfcTable
 COMMON         0x0000000008059a18     0x2000 obj/default/iniche_init.o
                0x0000000008059a18                SSSInitialTaskStk
 COMMON         0x000000000805ba18     0x2078 obj/default/simple_socket_server.o
                0x000000000805ba18                SSSLEDCommandQTbl
                0x000000000805ba90                LEDManagementTaskStk
 COMMON         0x000000000805da90     0x3224 ../MOD_socket_server_bsp//libucosii_bsp.a(os_core.o)
                0x000000000805da90                OSFlagTbl
                0x000000000805de00                OSMemTbl
                0x000000000805ea30                OSTaskStatStk
                0x000000000805f230                OSQTbl
                0x000000000805f410                OSTaskIdleStk
                0x000000000805fc10                OSEventTbl
                0x0000000008060750                OSTCBTbl
                0x0000000008060c60                OSTCBPrioTbl
 COMMON         0x0000000008060cb4       0xe0 ../MOD_socket_server_bsp//libucosii_bsp.a(alt_sys_init.o)
                0x0000000008060cb4                eth_tse_if
 COMMON         0x0000000008060d94       0x30 ../MOD_socket_server_bsp//libucosii_bsp.a(altera_avalon_tse.o)
                0x0000000008060d94                pmac_groups
                0x0000000008060da4                pphy_profiles
 COMMON         0x0000000008060dc4      0x2c0 ../MOD_socket_server_bsp//libucosii_bsp.a(ins_tse_mac.o)
                0x0000000008060dc4                tse_iniche_dev_driver_data
                0x0000000008060df4                tse
 COMMON         0x0000000008061084       0x14 ../MOD_socket_server_bsp//libucosii_bsp.a(ipnet.o)
                0x0000000008061084                rcvdq
 COMMON         0x0000000008061098      0x310 ../MOD_socket_server_bsp//libucosii_bsp.a(ipstart.o)
                0x0000000008061098                netstatic
                0x0000000008061398                nets
 COMMON         0x00000000080613a8       0x64 ../MOD_socket_server_bsp//libucosii_bsp.a(igmp_cmn.o)
                0x00000000080613a8                igmpstats
 COMMON         0x000000000806140c       0x24 ../MOD_socket_server_bsp//libucosii_bsp.a(in_utils.o)
                0x000000000806140c                eth_prt_buf
                0x000000000806141e                ipreturn
 COMMON         0x0000000008061430       0xf0 ../MOD_socket_server_bsp//libucosii_bsp.a(dhcpclnt.o)
                0x0000000008061430                dhc_states
 COMMON         0x0000000008061520      0x128 ../MOD_socket_server_bsp//libucosii_bsp.a(pktalloc.o)
                0x0000000008061520                lilfreeq
                0x0000000008061534                memestats
                0x0000000008061544                pktlog
                0x0000000008061634                bigfreeq
 COMMON         0x0000000008061648      0x1ec ../MOD_socket_server_bsp//libucosii_bsp.a(osportco.o)
                0x0000000008061648                global_tcb_ext
                0x0000000008061744                global_TCPwakeup_set
 COMMON         0x0000000008061834       0x58 ../MOD_socket_server_bsp//libucosii_bsp.a(targnios.o)
                0x0000000008061834                resid_semaphore
                0x0000000008061874                app_semaphore
 COMMON         0x000000000806188c       0x78 ../MOD_socket_server_bsp//libucosii_bsp.a(nptcp.o)
                0x000000000806188c                soq
                0x00000000080618a0                tcpmib
                0x00000000080618dc                mbufq
                0x00000000080618f0                mfreeq
 COMMON         0x0000000008061904       0x28 ../MOD_socket_server_bsp//libucosii_bsp.a(tcp_in.o)
                0x0000000008061904                tcp_saveti
 COMMON         0x000000000806192c      0x10c ../MOD_socket_server_bsp//libucosii_bsp.a(tcp_subr.o)
                0x000000000806192c                tcb
                0x0000000008061958                tcpstat
 COMMON         0x0000000008061a38      0x100 ../MOD_socket_server_bsp//libucosii_bsp.a(alt_irq_handler.o)
                0x0000000008061a38                alt_irq
 COMMON         0x0000000008061b38       0x64 ../MOD_socket_server_bsp//libucosii_bsp.a(timeouts.o)
                0x0000000008061b38                intimers
 COMMON         0x0000000008061b9c      0x100 ../MOD_socket_server_bsp//libucosii_bsp.a(et_arp.o)
                0x0000000008061b9c                arp_table
 COMMON         0x0000000008061c9c       0x14 ../MOD_socket_server_bsp//libucosii_bsp.a(iface.o)
                0x0000000008061c9c                netlist
 COMMON         0x0000000008061cb0       0x50 ../MOD_socket_server_bsp//libucosii_bsp.a(ip.o)
                0x0000000008061cb0                ip_mib
 COMMON         0x0000000008061d00       0x18 ../MOD_socket_server_bsp//libucosii_bsp.a(ip_reasm.o)
                0x0000000008061d00                ire_stats
 COMMON         0x0000000008061d18       0x10 ../MOD_socket_server_bsp//libucosii_bsp.a(udp.o)
                0x0000000008061d18                udp_mib
 COMMON         0x0000000008061d28       0x68 ../MOD_socket_server_bsp//libucosii_bsp.a(icmp.o)
                0x0000000008061d28                icmp_mib
                0x0000000008061d90                . = ALIGN (0x4)
                0x0000000008061d90                __bss_end = ABSOLUTE (.)

.mem_if_ddr3_emif_0
                0x0000000008061d90        0x0
                [!provide]                        PROVIDE (_alt_partition_mem_if_ddr3_emif_0_start = ABSOLUTE (.))
 *(.mem_if_ddr3_emif_0 .mem_if_ddr3_emif_0. mem_if_ddr3_emif_0.*)
                0x0000000008061d90                . = ALIGN (0x4)
                [!provide]                        PROVIDE (_alt_partition_mem_if_ddr3_emif_0_end = ABSOLUTE (.))
                0x0000000008061d90                _end = ABSOLUTE (.)
                0x0000000008061d90                end = ABSOLUTE (.)
                0x0000000008061d90                __alt_stack_base = ABSOLUTE (.)
                [!provide]                        PROVIDE (_alt_partition_mem_if_ddr3_emif_0_load_addr = LOADADDR (.mem_if_ddr3_emif_0))

.ext_flash_avl_mem
                0x0000000014430020        0x0
                [!provide]                        PROVIDE (_alt_partition_ext_flash_avl_mem_start = ABSOLUTE (.))
 *(.ext_flash_avl_mem .ext_flash_avl_mem. ext_flash_avl_mem.*)
                0x0000000014430020                . = ALIGN (0x4)
                [!provide]                        PROVIDE (_alt_partition_ext_flash_avl_mem_end = ABSOLUTE (.))
                [!provide]                        PROVIDE (_alt_partition_ext_flash_avl_mem_load_addr = LOADADDR (.ext_flash_avl_mem))

.descriptor_memory
                0x0000000018000000        0x0
                [!provide]                        PROVIDE (_alt_partition_descriptor_memory_start = ABSOLUTE (.))
 *(.descriptor_memory .descriptor_memory. descriptor_memory.*)
                0x0000000018000000                . = ALIGN (0x4)
                [!provide]                        PROVIDE (_alt_partition_descriptor_memory_end = ABSOLUTE (.))
                [!provide]                        PROVIDE (_alt_partition_descriptor_memory_load_addr = LOADADDR (.descriptor_memory))

.stab
 *(.stab)

.stabstr
 *(.stabstr)

.stab.excl
 *(.stab.excl)

.stab.exclstr
 *(.stab.exclstr)

.stab.index
 *(.stab.index)

.stab.indexstr
 *(.stab.indexstr)

.comment        0x0000000000000000       0x2c
 *(.comment)
 .comment       0x0000000000000000       0x2c obj/default/ClockModInit.o
                                         0x2d (size before relaxing)
 .comment       0x000000000000002c       0x2d obj/default/DELHProtocol.o
 .comment       0x000000000000002c       0x2d obj/default/InitializePeriph.o
 .comment       0x000000000000002c       0x2d obj/default/alt_error_handler.o
 .comment       0x000000000000002c       0x2d obj/default/iniche_init.o
 .comment       0x000000000000002c       0x2d obj/default/led.o
 .comment       0x000000000000002c       0x2d obj/default/network_utilities.o
 .comment       0x000000000000002c       0x2d obj/default/simple_socket_server.o
 .comment       0x000000000000002c       0x2d obj/default/tse_my_system.o
 .comment       0x000000000000002c       0x2d /home/tom/intelFPGA_lite/20.1/nios2eds/bin/gnu/H-x86_64-pc-linux-gnu/bin/../lib/gcc/nios2-elf/9.2.1/../../../../../H-x86_64-pc-linux-gnu/nios2-elf/lib/libc.a(lib_a-ctype_.o)
 .comment       0x000000000000002c       0x2d /home/tom/intelFPGA_lite/20.1/nios2eds/bin/gnu/H-x86_64-pc-linux-gnu/bin/../lib/gcc/nios2-elf/9.2.1/../../../../../H-x86_64-pc-linux-gnu/nios2-elf/lib/libc.a(lib_a-fprintf.o)
 .comment       0x000000000000002c       0x2d /home/tom/intelFPGA_lite/20.1/nios2eds/bin/gnu/H-x86_64-pc-linux-gnu/bin/../lib/gcc/nios2-elf/9.2.1/../../../../../H-x86_64-pc-linux-gnu/nios2-elf/lib/libc.a(lib_a-fwrite.o)
 .comment       0x000000000000002c       0x2d /home/tom/intelFPGA_lite/20.1/nios2eds/bin/gnu/H-x86_64-pc-linux-gnu/bin/../lib/gcc/nios2-elf/9.2.1/../../../../../H-x86_64-pc-linux-gnu/nios2-elf/lib/libc.a(lib_a-getchar.o)
 .comment       0x000000000000002c       0x2d /home/tom/intelFPGA_lite/20.1/nios2eds/bin/gnu/H-x86_64-pc-linux-gnu/bin/../lib/gcc/nios2-elf/9.2.1/../../../../../H-x86_64-pc-linux-gnu/nios2-elf/lib/libc.a(lib_a-impure.o)
 .comment       0x000000000000002c       0x2d /home/tom/intelFPGA_lite/20.1/nios2eds/bin/gnu/H-x86_64-pc-linux-gnu/bin/../lib/gcc/nios2-elf/9.2.1/../../../../../H-x86_64-pc-linux-gnu/nios2-elf/lib/libc.a(lib_a-memcmp.o)
 .comment       0x000000000000002c       0x2d /home/tom/intelFPGA_lite/20.1/nios2eds/bin/gnu/H-x86_64-pc-linux-gnu/bin/../lib/gcc/nios2-elf/9.2.1/../../../../../H-x86_64-pc-linux-gnu/nios2-elf/lib/libc.a(lib_a-memcpy.o)
 .comment       0x000000000000002c       0x2d /home/tom/intelFPGA_lite/20.1/nios2eds/bin/gnu/H-x86_64-pc-linux-gnu/bin/../lib/gcc/nios2-elf/9.2.1/../../../../../H-x86_64-pc-linux-gnu/nios2-elf/lib/libc.a(lib_a-memset.o)
 .comment       0x000000000000002c       0x2d /home/tom/intelFPGA_lite/20.1/nios2eds/bin/gnu/H-x86_64-pc-linux-gnu/bin/../lib/gcc/nios2-elf/9.2.1/../../../../../H-x86_64-pc-linux-gnu/nios2-elf/lib/libc.a(lib_a-perror.o)
 .comment       0x000000000000002c       0x2d /home/tom/intelFPGA_lite/20.1/nios2eds/bin/gnu/H-x86_64-pc-linux-gnu/bin/../lib/gcc/nios2-elf/9.2.1/../../../../../H-x86_64-pc-linux-gnu/nios2-elf/lib/libc.a(lib_a-printf.o)
 .comment       0x000000000000002c       0x2d /home/tom/intelFPGA_lite/20.1/nios2eds/bin/gnu/H-x86_64-pc-linux-gnu/bin/../lib/gcc/nios2-elf/9.2.1/../../../../../H-x86_64-pc-linux-gnu/nios2-elf/lib/libc.a(lib_a-putchar.o)
 .comment       0x000000000000002c       0x2d /home/tom/intelFPGA_lite/20.1/nios2eds/bin/gnu/H-x86_64-pc-linux-gnu/bin/../lib/gcc/nios2-elf/9.2.1/../../../../../H-x86_64-pc-linux-gnu/nios2-elf/lib/libc.a(lib_a-puts.o)
 .comment       0x000000000000002c       0x2d /home/tom/intelFPGA_lite/20.1/nios2eds/bin/gnu/H-x86_64-pc-linux-gnu/bin/../lib/gcc/nios2-elf/9.2.1/../../../../../H-x86_64-pc-linux-gnu/nios2-elf/lib/libc.a(lib_a-sprintf.o)
 .comment       0x000000000000002c       0x2d /home/tom/intelFPGA_lite/20.1/nios2eds/bin/gnu/H-x86_64-pc-linux-gnu/bin/../lib/gcc/nios2-elf/9.2.1/../../../../../H-x86_64-pc-linux-gnu/nios2-elf/lib/libc.a(lib_a-strcpy.o)
 .comment       0x000000000000002c       0x2d /home/tom/intelFPGA_lite/20.1/nios2eds/bin/gnu/H-x86_64-pc-linux-gnu/bin/../lib/gcc/nios2-elf/9.2.1/../../../../../H-x86_64-pc-linux-gnu/nios2-elf/lib/libc.a(lib_a-strerror.o)
 .comment       0x000000000000002c       0x2d /home/tom/intelFPGA_lite/20.1/nios2eds/bin/gnu/H-x86_64-pc-linux-gnu/bin/../lib/gcc/nios2-elf/9.2.1/../../../../../H-x86_64-pc-linux-gnu/nios2-elf/lib/libc.a(lib_a-strlen.o)
 .comment       0x000000000000002c       0x2d /home/tom/intelFPGA_lite/20.1/nios2eds/bin/gnu/H-x86_64-pc-linux-gnu/bin/../lib/gcc/nios2-elf/9.2.1/../../../../../H-x86_64-pc-linux-gnu/nios2-elf/lib/libc.a(lib_a-strtok.o)
 .comment       0x000000000000002c       0x2d /home/tom/intelFPGA_lite/20.1/nios2eds/bin/gnu/H-x86_64-pc-linux-gnu/bin/../lib/gcc/nios2-elf/9.2.1/../../../../../H-x86_64-pc-linux-gnu/nios2-elf/lib/libc.a(lib_a-strtok_r.o)
 .comment       0x000000000000002c       0x2d /home/tom/intelFPGA_lite/20.1/nios2eds/bin/gnu/H-x86_64-pc-linux-gnu/bin/../lib/gcc/nios2-elf/9.2.1/../../../../../H-x86_64-pc-linux-gnu/nios2-elf/lib/libc.a(lib_a-strtoul.o)
 .comment       0x000000000000002c       0x2d /home/tom/intelFPGA_lite/20.1/nios2eds/bin/gnu/H-x86_64-pc-linux-gnu/bin/../lib/gcc/nios2-elf/9.2.1/../../../../../H-x86_64-pc-linux-gnu/nios2-elf/lib/libc.a(lib_a-svfprintf.o)
 .comment       0x000000000000002c       0x2d /home/tom/intelFPGA_lite/20.1/nios2eds/bin/gnu/H-x86_64-pc-linux-gnu/bin/../lib/gcc/nios2-elf/9.2.1/../../../../../H-x86_64-pc-linux-gnu/nios2-elf/lib/libc.a(lib_a-u_strerr.o)
 .comment       0x000000000000002c       0x2d /home/tom/intelFPGA_lite/20.1/nios2eds/bin/gnu/H-x86_64-pc-linux-gnu/bin/../lib/gcc/nios2-elf/9.2.1/../../../../../H-x86_64-pc-linux-gnu/nios2-elf/lib/libc.a(lib_a-vfprintf.o)
 .comment       0x000000000000002c       0x2d /home/tom/intelFPGA_lite/20.1/nios2eds/bin/gnu/H-x86_64-pc-linux-gnu/bin/../lib/gcc/nios2-elf/9.2.1/../../../../../H-x86_64-pc-linux-gnu/nios2-elf/lib/libc.a(lib_a-writer.o)
 .comment       0x000000000000002c       0x2d /home/tom/intelFPGA_lite/20.1/nios2eds/bin/gnu/H-x86_64-pc-linux-gnu/bin/../lib/gcc/nios2-elf/9.2.1/../../../../../H-x86_64-pc-linux-gnu/nios2-elf/lib/libc.a(lib_a-wsetup.o)
 .comment       0x000000000000002c       0x2d /home/tom/intelFPGA_lite/20.1/nios2eds/bin/gnu/H-x86_64-pc-linux-gnu/bin/../lib/gcc/nios2-elf/9.2.1/../../../../../H-x86_64-pc-linux-gnu/nios2-elf/lib/libc.a(lib_a-dtoa.o)
 .comment       0x000000000000002c       0x2d /home/tom/intelFPGA_lite/20.1/nios2eds/bin/gnu/H-x86_64-pc-linux-gnu/bin/../lib/gcc/nios2-elf/9.2.1/../../../../../H-x86_64-pc-linux-gnu/nios2-elf/lib/libc.a(lib_a-fflush.o)
 .comment       0x000000000000002c       0x2d /home/tom/intelFPGA_lite/20.1/nios2eds/bin/gnu/H-x86_64-pc-linux-gnu/bin/../lib/gcc/nios2-elf/9.2.1/../../../../../H-x86_64-pc-linux-gnu/nios2-elf/lib/libc.a(lib_a-fileno.o)
 .comment       0x000000000000002c       0x2d /home/tom/intelFPGA_lite/20.1/nios2eds/bin/gnu/H-x86_64-pc-linux-gnu/bin/../lib/gcc/nios2-elf/9.2.1/../../../../../H-x86_64-pc-linux-gnu/nios2-elf/lib/libc.a(lib_a-findfp.o)
 .comment       0x000000000000002c       0x2d /home/tom/intelFPGA_lite/20.1/nios2eds/bin/gnu/H-x86_64-pc-linux-gnu/bin/../lib/gcc/nios2-elf/9.2.1/../../../../../H-x86_64-pc-linux-gnu/nios2-elf/lib/libc.a(lib_a-freer.o)
 .comment       0x000000000000002c       0x2d /home/tom/intelFPGA_lite/20.1/nios2eds/bin/gnu/H-x86_64-pc-linux-gnu/bin/../lib/gcc/nios2-elf/9.2.1/../../../../../H-x86_64-pc-linux-gnu/nios2-elf/lib/libc.a(lib_a-fvwrite.o)
 .comment       0x000000000000002c       0x2d /home/tom/intelFPGA_lite/20.1/nios2eds/bin/gnu/H-x86_64-pc-linux-gnu/bin/../lib/gcc/nios2-elf/9.2.1/../../../../../H-x86_64-pc-linux-gnu/nios2-elf/lib/libc.a(lib_a-fwalk.o)
 .comment       0x000000000000002c       0x2d /home/tom/intelFPGA_lite/20.1/nios2eds/bin/gnu/H-x86_64-pc-linux-gnu/bin/../lib/gcc/nios2-elf/9.2.1/../../../../../H-x86_64-pc-linux-gnu/nios2-elf/lib/libc.a(lib_a-getc.o)
 .comment       0x000000000000002c       0x2d /home/tom/intelFPGA_lite/20.1/nios2eds/bin/gnu/H-x86_64-pc-linux-gnu/bin/../lib/gcc/nios2-elf/9.2.1/../../../../../H-x86_64-pc-linux-gnu/nios2-elf/lib/libc.a(lib_a-int_errno.o)
 .comment       0x000000000000002c       0x2d /home/tom/intelFPGA_lite/20.1/nios2eds/bin/gnu/H-x86_64-pc-linux-gnu/bin/../lib/gcc/nios2-elf/9.2.1/../../../../../H-x86_64-pc-linux-gnu/nios2-elf/lib/libc.a(lib_a-localeconv.o)
 .comment       0x000000000000002c       0x2d /home/tom/intelFPGA_lite/20.1/nios2eds/bin/gnu/H-x86_64-pc-linux-gnu/bin/../lib/gcc/nios2-elf/9.2.1/../../../../../H-x86_64-pc-linux-gnu/nios2-elf/lib/libc.a(lib_a-makebuf.o)
 .comment       0x000000000000002c       0x2d /home/tom/intelFPGA_lite/20.1/nios2eds/bin/gnu/H-x86_64-pc-linux-gnu/bin/../lib/gcc/nios2-elf/9.2.1/../../../../../H-x86_64-pc-linux-gnu/nios2-elf/lib/libc.a(lib_a-mallocr.o)
 .comment       0x000000000000002c       0x2d /home/tom/intelFPGA_lite/20.1/nios2eds/bin/gnu/H-x86_64-pc-linux-gnu/bin/../lib/gcc/nios2-elf/9.2.1/../../../../../H-x86_64-pc-linux-gnu/nios2-elf/lib/libc.a(lib_a-memchr.o)
 .comment       0x000000000000002c       0x2d /home/tom/intelFPGA_lite/20.1/nios2eds/bin/gnu/H-x86_64-pc-linux-gnu/bin/../lib/gcc/nios2-elf/9.2.1/../../../../../H-x86_64-pc-linux-gnu/nios2-elf/lib/libc.a(lib_a-memmove.o)
 .comment       0x000000000000002c       0x2d /home/tom/intelFPGA_lite/20.1/nios2eds/bin/gnu/H-x86_64-pc-linux-gnu/bin/../lib/gcc/nios2-elf/9.2.1/../../../../../H-x86_64-pc-linux-gnu/nios2-elf/lib/libc.a(lib_a-mprec.o)
 .comment       0x000000000000002c       0x2d /home/tom/intelFPGA_lite/20.1/nios2eds/bin/gnu/H-x86_64-pc-linux-gnu/bin/../lib/gcc/nios2-elf/9.2.1/../../../../../H-x86_64-pc-linux-gnu/nios2-elf/lib/libc.a(lib_a-putc.o)
 .comment       0x000000000000002c       0x2d /home/tom/intelFPGA_lite/20.1/nios2eds/bin/gnu/H-x86_64-pc-linux-gnu/bin/../lib/gcc/nios2-elf/9.2.1/../../../../../H-x86_64-pc-linux-gnu/nios2-elf/lib/libc.a(lib_a-reallocr.o)
 .comment       0x000000000000002c       0x2d /home/tom/intelFPGA_lite/20.1/nios2eds/bin/gnu/H-x86_64-pc-linux-gnu/bin/../lib/gcc/nios2-elf/9.2.1/../../../../../H-x86_64-pc-linux-gnu/nios2-elf/lib/libc.a(lib_a-rget.o)
 .comment       0x000000000000002c       0x2d /home/tom/intelFPGA_lite/20.1/nios2eds/bin/gnu/H-x86_64-pc-linux-gnu/bin/../lib/gcc/nios2-elf/9.2.1/../../../../../H-x86_64-pc-linux-gnu/nios2-elf/lib/libc.a(lib_a-sbrkr.o)
 .comment       0x000000000000002c       0x2d /home/tom/intelFPGA_lite/20.1/nios2eds/bin/gnu/H-x86_64-pc-linux-gnu/bin/../lib/gcc/nios2-elf/9.2.1/../../../../../H-x86_64-pc-linux-gnu/nios2-elf/lib/libc.a(lib_a-stdio.o)
 .comment       0x000000000000002c       0x2d /home/tom/intelFPGA_lite/20.1/nios2eds/bin/gnu/H-x86_64-pc-linux-gnu/bin/../lib/gcc/nios2-elf/9.2.1/../../../../../H-x86_64-pc-linux-gnu/nios2-elf/lib/libc.a(lib_a-svfiprintf.o)
 .comment       0x000000000000002c       0x2d /home/tom/intelFPGA_lite/20.1/nios2eds/bin/gnu/H-x86_64-pc-linux-gnu/bin/../lib/gcc/nios2-elf/9.2.1/../../../../../H-x86_64-pc-linux-gnu/nios2-elf/lib/libc.a(lib_a-vfiprintf.o)
 .comment       0x000000000000002c       0x2d /home/tom/intelFPGA_lite/20.1/nios2eds/bin/gnu/H-x86_64-pc-linux-gnu/bin/../lib/gcc/nios2-elf/9.2.1/../../../../../H-x86_64-pc-linux-gnu/nios2-elf/lib/libc.a(lib_a-wbuf.o)
 .comment       0x000000000000002c       0x2d /home/tom/intelFPGA_lite/20.1/nios2eds/bin/gnu/H-x86_64-pc-linux-gnu/bin/../lib/gcc/nios2-elf/9.2.1/../../../../../H-x86_64-pc-linux-gnu/nios2-elf/lib/libc.a(closer.o)
 .comment       0x000000000000002c       0x2d /home/tom/intelFPGA_lite/20.1/nios2eds/bin/gnu/H-x86_64-pc-linux-gnu/bin/../lib/gcc/nios2-elf/9.2.1/../../../../../H-x86_64-pc-linux-gnu/nios2-elf/lib/libc.a(lib_a-assert.o)
 .comment       0x000000000000002c       0x2d /home/tom/intelFPGA_lite/20.1/nios2eds/bin/gnu/H-x86_64-pc-linux-gnu/bin/../lib/gcc/nios2-elf/9.2.1/../../../../../H-x86_64-pc-linux-gnu/nios2-elf/lib/libc.a(lib_a-callocr.o)
 .comment       0x000000000000002c       0x2d /home/tom/intelFPGA_lite/20.1/nios2eds/bin/gnu/H-x86_64-pc-linux-gnu/bin/../lib/gcc/nios2-elf/9.2.1/../../../../../H-x86_64-pc-linux-gnu/nios2-elf/lib/libc.a(lib_a-fclose.o)
 .comment       0x000000000000002c       0x2d /home/tom/intelFPGA_lite/20.1/nios2eds/bin/gnu/H-x86_64-pc-linux-gnu/bin/../lib/gcc/nios2-elf/9.2.1/../../../../../H-x86_64-pc-linux-gnu/nios2-elf/lib/libc.a(lib_a-fiprintf.o)
 .comment       0x000000000000002c       0x2d /home/tom/intelFPGA_lite/20.1/nios2eds/bin/gnu/H-x86_64-pc-linux-gnu/bin/../lib/gcc/nios2-elf/9.2.1/../../../../../H-x86_64-pc-linux-gnu/nios2-elf/lib/libc.a(lib_a-fputwc.o)
 .comment       0x000000000000002c       0x2d /home/tom/intelFPGA_lite/20.1/nios2eds/bin/gnu/H-x86_64-pc-linux-gnu/bin/../lib/gcc/nios2-elf/9.2.1/../../../../../H-x86_64-pc-linux-gnu/nios2-elf/lib/libc.a(lib_a-fstatr.o)
 .comment       0x000000000000002c       0x2d /home/tom/intelFPGA_lite/20.1/nios2eds/bin/gnu/H-x86_64-pc-linux-gnu/bin/../lib/gcc/nios2-elf/9.2.1/../../../../../H-x86_64-pc-linux-gnu/nios2-elf/lib/libc.a(lib_a-isattyr.o)
 .comment       0x000000000000002c       0x2d /home/tom/intelFPGA_lite/20.1/nios2eds/bin/gnu/H-x86_64-pc-linux-gnu/bin/../lib/gcc/nios2-elf/9.2.1/../../../../../H-x86_64-pc-linux-gnu/nios2-elf/lib/libc.a(lib_a-locale.o)
 .comment       0x000000000000002c       0x2d /home/tom/intelFPGA_lite/20.1/nios2eds/bin/gnu/H-x86_64-pc-linux-gnu/bin/../lib/gcc/nios2-elf/9.2.1/../../../../../H-x86_64-pc-linux-gnu/nios2-elf/lib/libc.a(lib_a-lseekr.o)
 .comment       0x000000000000002c       0x2d /home/tom/intelFPGA_lite/20.1/nios2eds/bin/gnu/H-x86_64-pc-linux-gnu/bin/../lib/gcc/nios2-elf/9.2.1/../../../../../H-x86_64-pc-linux-gnu/nios2-elf/lib/libc.a(lib_a-mbtowc_r.o)
 .comment       0x000000000000002c       0x2d /home/tom/intelFPGA_lite/20.1/nios2eds/bin/gnu/H-x86_64-pc-linux-gnu/bin/../lib/gcc/nios2-elf/9.2.1/../../../../../H-x86_64-pc-linux-gnu/nios2-elf/lib/libc.a(lib_a-readr.o)
 .comment       0x000000000000002c       0x2d /home/tom/intelFPGA_lite/20.1/nios2eds/bin/gnu/H-x86_64-pc-linux-gnu/bin/../lib/gcc/nios2-elf/9.2.1/../../../../../H-x86_64-pc-linux-gnu/nios2-elf/lib/libc.a(lib_a-refill.o)
 .comment       0x000000000000002c       0x2d /home/tom/intelFPGA_lite/20.1/nios2eds/bin/gnu/H-x86_64-pc-linux-gnu/bin/../lib/gcc/nios2-elf/9.2.1/../../../../../H-x86_64-pc-linux-gnu/nios2-elf/lib/libc.a(lib_a-strcmp.o)
 .comment       0x000000000000002c       0x2d /home/tom/intelFPGA_lite/20.1/nios2eds/bin/gnu/H-x86_64-pc-linux-gnu/bin/../lib/gcc/nios2-elf/9.2.1/../../../../../H-x86_64-pc-linux-gnu/nios2-elf/lib/libc.a(lib_a-vfiprintfr_1.o)
 .comment       0x000000000000002c       0x2d /home/tom/intelFPGA_lite/20.1/nios2eds/bin/gnu/H-x86_64-pc-linux-gnu/bin/../lib/gcc/nios2-elf/9.2.1/../../../../../H-x86_64-pc-linux-gnu/nios2-elf/lib/libc.a(lib_a-wcrtomb.o)
 .comment       0x000000000000002c       0x2d /home/tom/intelFPGA_lite/20.1/nios2eds/bin/gnu/H-x86_64-pc-linux-gnu/bin/../lib/gcc/nios2-elf/9.2.1/../../../../../H-x86_64-pc-linux-gnu/nios2-elf/lib/libc.a(lib_a-wctomb_r.o)
 .comment       0x000000000000002c       0x2d /home/tom/intelFPGA_lite/20.1/nios2eds/bin/gnu/H-x86_64-pc-linux-gnu/bin/../lib/gcc/nios2-elf/9.2.1/../../../../../H-x86_64-pc-linux-gnu/nios2-elf/lib/libc.a(lib_a-abort.o)
 .comment       0x000000000000002c       0x2d /home/tom/intelFPGA_lite/20.1/nios2eds/bin/gnu/H-x86_64-pc-linux-gnu/bin/../lib/gcc/nios2-elf/9.2.1/../../../../../H-x86_64-pc-linux-gnu/nios2-elf/lib/libc.a(lib_a-signal.o)
 .comment       0x000000000000002c       0x2d /home/tom/intelFPGA_lite/20.1/nios2eds/bin/gnu/H-x86_64-pc-linux-gnu/bin/../lib/gcc/nios2-elf/9.2.1/../../../../../H-x86_64-pc-linux-gnu/nios2-elf/lib/libc.a(lib_a-signalr.o)
 .comment       0x000000000000002c       0x2d /home/tom/intelFPGA_lite/20.1/nios2eds/bin/gnu/H-x86_64-pc-linux-gnu/bin/../lib/gcc/nios2-elf/9.2.1/libgcc.a(_udivdi3.o)
 .comment       0x000000000000002c       0x2d /home/tom/intelFPGA_lite/20.1/nios2eds/bin/gnu/H-x86_64-pc-linux-gnu/bin/../lib/gcc/nios2-elf/9.2.1/libgcc.a(_umoddi3.o)
 .comment       0x000000000000002c       0x2d /home/tom/intelFPGA_lite/20.1/nios2eds/bin/gnu/H-x86_64-pc-linux-gnu/bin/../lib/gcc/nios2-elf/9.2.1/libgcc.a(lib2-divmod.o)
 .comment       0x000000000000002c       0x2d /home/tom/intelFPGA_lite/20.1/nios2eds/bin/gnu/H-x86_64-pc-linux-gnu/bin/../lib/gcc/nios2-elf/9.2.1/libgcc.a(adddf3.o)
 .comment       0x000000000000002c       0x2d /home/tom/intelFPGA_lite/20.1/nios2eds/bin/gnu/H-x86_64-pc-linux-gnu/bin/../lib/gcc/nios2-elf/9.2.1/libgcc.a(divdf3.o)
 .comment       0x000000000000002c       0x2d /home/tom/intelFPGA_lite/20.1/nios2eds/bin/gnu/H-x86_64-pc-linux-gnu/bin/../lib/gcc/nios2-elf/9.2.1/libgcc.a(eqdf2.o)
 .comment       0x000000000000002c       0x2d /home/tom/intelFPGA_lite/20.1/nios2eds/bin/gnu/H-x86_64-pc-linux-gnu/bin/../lib/gcc/nios2-elf/9.2.1/libgcc.a(gedf2.o)
 .comment       0x000000000000002c       0x2d /home/tom/intelFPGA_lite/20.1/nios2eds/bin/gnu/H-x86_64-pc-linux-gnu/bin/../lib/gcc/nios2-elf/9.2.1/libgcc.a(ledf2.o)
 .comment       0x000000000000002c       0x2d /home/tom/intelFPGA_lite/20.1/nios2eds/bin/gnu/H-x86_64-pc-linux-gnu/bin/../lib/gcc/nios2-elf/9.2.1/libgcc.a(muldf3.o)
 .comment       0x000000000000002c       0x2d /home/tom/intelFPGA_lite/20.1/nios2eds/bin/gnu/H-x86_64-pc-linux-gnu/bin/../lib/gcc/nios2-elf/9.2.1/libgcc.a(subdf3.o)
 .comment       0x000000000000002c       0x2d /home/tom/intelFPGA_lite/20.1/nios2eds/bin/gnu/H-x86_64-pc-linux-gnu/bin/../lib/gcc/nios2-elf/9.2.1/libgcc.a(unorddf2.o)
 .comment       0x000000000000002c       0x2d /home/tom/intelFPGA_lite/20.1/nios2eds/bin/gnu/H-x86_64-pc-linux-gnu/bin/../lib/gcc/nios2-elf/9.2.1/libgcc.a(fixdfsi.o)
 .comment       0x000000000000002c       0x2d /home/tom/intelFPGA_lite/20.1/nios2eds/bin/gnu/H-x86_64-pc-linux-gnu/bin/../lib/gcc/nios2-elf/9.2.1/libgcc.a(floatsidf.o)
 .comment       0x000000000000002c       0x2d /home/tom/intelFPGA_lite/20.1/nios2eds/bin/gnu/H-x86_64-pc-linux-gnu/bin/../lib/gcc/nios2-elf/9.2.1/libgcc.a(floatunsidf.o)
 .comment       0x000000000000002c       0x2d /home/tom/intelFPGA_lite/20.1/nios2eds/bin/gnu/H-x86_64-pc-linux-gnu/bin/../lib/gcc/nios2-elf/9.2.1/libgcc.a(_clz.o)
 .comment       0x000000000000002c       0x2d /home/tom/intelFPGA_lite/20.1/nios2eds/bin/gnu/H-x86_64-pc-linux-gnu/bin/../lib/gcc/nios2-elf/9.2.1/libgcc.a(_clzsi2.o)
 .comment       0x000000000000002c       0x2d ../MOD_socket_server_bsp//libucosii_bsp.a(alt_exit.o)
 .comment       0x000000000000002c       0x2d ../MOD_socket_server_bsp//libucosii_bsp.a(alt_fstat.o)
 .comment       0x000000000000002c       0x2d ../MOD_socket_server_bsp//libucosii_bsp.a(alt_getpid.o)
 .comment       0x000000000000002c       0x2d ../MOD_socket_server_bsp//libucosii_bsp.a(alt_isatty.o)
 .comment       0x000000000000002c       0x2d ../MOD_socket_server_bsp//libucosii_bsp.a(alt_kill.o)
 .comment       0x000000000000002c       0x2d ../MOD_socket_server_bsp//libucosii_bsp.a(alt_lseek.o)
 .comment       0x000000000000002c       0x2d ../MOD_socket_server_bsp//libucosii_bsp.a(alt_main.o)
 .comment       0x000000000000002c       0x2d ../MOD_socket_server_bsp//libucosii_bsp.a(alt_sbrk.o)
 .comment       0x000000000000002c       0x2d ../MOD_socket_server_bsp//libucosii_bsp.a(alt_env_lock.o)
 .comment       0x000000000000002c       0x2d ../MOD_socket_server_bsp//libucosii_bsp.a(alt_malloc_lock.o)
 .comment       0x000000000000002c       0x2d ../MOD_socket_server_bsp//libucosii_bsp.a(os_core.o)
 .comment       0x000000000000002c       0x2d ../MOD_socket_server_bsp//libucosii_bsp.a(os_dbg.o)
 .comment       0x000000000000002c       0x2d ../MOD_socket_server_bsp//libucosii_bsp.a(os_flag.o)
 .comment       0x000000000000002c       0x2d ../MOD_socket_server_bsp//libucosii_bsp.a(os_mem.o)
 .comment       0x000000000000002c       0x2d ../MOD_socket_server_bsp//libucosii_bsp.a(os_q.o)
 .comment       0x000000000000002c       0x2d ../MOD_socket_server_bsp//libucosii_bsp.a(os_sem.o)
 .comment       0x000000000000002c       0x2d ../MOD_socket_server_bsp//libucosii_bsp.a(os_task.o)
 .comment       0x000000000000002c       0x2d ../MOD_socket_server_bsp//libucosii_bsp.a(os_time.o)
 .comment       0x000000000000002c       0x2d ../MOD_socket_server_bsp//libucosii_bsp.a(alt_sys_init.o)
 .comment       0x000000000000002c       0x2d ../MOD_socket_server_bsp//libucosii_bsp.a(altera_avalon_fifo_util.o)
 .comment       0x000000000000002c       0x2d ../MOD_socket_server_bsp//libucosii_bsp.a(altera_avalon_i2c.o)
 .comment       0x000000000000002c       0x2d ../MOD_socket_server_bsp//libucosii_bsp.a(altera_avalon_jtag_uart_fd.o)
 .comment       0x000000000000002c       0x2d ../MOD_socket_server_bsp//libucosii_bsp.a(altera_avalon_jtag_uart_init.o)
 .comment       0x000000000000002c       0x2d ../MOD_socket_server_bsp//libucosii_bsp.a(altera_avalon_jtag_uart_ioctl.o)
 .comment       0x000000000000002c       0x2d ../MOD_socket_server_bsp//libucosii_bsp.a(altera_avalon_jtag_uart_read.o)
 .comment       0x000000000000002c       0x2d ../MOD_socket_server_bsp//libucosii_bsp.a(altera_avalon_jtag_uart_write.o)
 .comment       0x000000000000002c       0x2d ../MOD_socket_server_bsp//libucosii_bsp.a(altera_avalon_spi.o)
 .comment       0x000000000000002c       0x2d ../MOD_socket_server_bsp//libucosii_bsp.a(altera_avalon_timer_sc.o)
 .comment       0x000000000000002c       0x2d ../MOD_socket_server_bsp//libucosii_bsp.a(altera_avalon_tse.o)
 .comment       0x000000000000002c       0x2d ../MOD_socket_server_bsp//libucosii_bsp.a(altera_generic_quad_spi_controller.o)
 .comment       0x000000000000002c       0x2d ../MOD_socket_server_bsp//libucosii_bsp.a(altera_msgdma.o)
 .comment       0x000000000000002c       0x2d ../MOD_socket_server_bsp//libucosii_bsp.a(ins_tse_mac.o)
 .comment       0x000000000000002c       0x2d ../MOD_socket_server_bsp//libucosii_bsp.a(alt_iniche_close.o)
 .comment       0x000000000000002c       0x2d ../MOD_socket_server_bsp//libucosii_bsp.a(alt_iniche_dev.o)
 .comment       0x000000000000002c       0x2d ../MOD_socket_server_bsp//libucosii_bsp.a(alt_iniche_read.o)
 .comment       0x000000000000002c       0x2d ../MOD_socket_server_bsp//libucosii_bsp.a(alt_iniche_write.o)
 .comment       0x000000000000002c       0x2d ../MOD_socket_server_bsp//libucosii_bsp.a(ipnet.o)
 .comment       0x000000000000002c       0x2d ../MOD_socket_server_bsp//libucosii_bsp.a(ipstart.o)
 .comment       0x000000000000002c       0x2d ../MOD_socket_server_bsp//libucosii_bsp.a(igmp_cmn.o)
 .comment       0x000000000000002c       0x2d ../MOD_socket_server_bsp//libucosii_bsp.a(bsdsock.o)
 .comment       0x000000000000002c       0x2d ../MOD_socket_server_bsp//libucosii_bsp.a(cksum.o)
 .comment       0x000000000000002c       0x2d ../MOD_socket_server_bsp//libucosii_bsp.a(in_utils.o)
 .comment       0x000000000000002c       0x2d ../MOD_socket_server_bsp//libucosii_bsp.a(netmain.o)
 .comment       0x000000000000002c       0x2d ../MOD_socket_server_bsp//libucosii_bsp.a(tk_crnos.o)
 .comment       0x000000000000002c       0x2d ../MOD_socket_server_bsp//libucosii_bsp.a(dhcpclnt.o)
 .comment       0x000000000000002c       0x2d ../MOD_socket_server_bsp//libucosii_bsp.a(dhcputil.o)
 .comment       0x000000000000002c       0x2d ../MOD_socket_server_bsp//libucosii_bsp.a(pktalloc.o)
 .comment       0x000000000000002c       0x2d ../MOD_socket_server_bsp//libucosii_bsp.a(q.o)
 .comment       0x000000000000002c       0x2d ../MOD_socket_server_bsp//libucosii_bsp.a(udp_open.o)
 .comment       0x000000000000002c       0x2d ../MOD_socket_server_bsp//libucosii_bsp.a(brdutils.o)
 .comment       0x000000000000002c       0x2d ../MOD_socket_server_bsp//libucosii_bsp.a(osportco.o)
 .comment       0x000000000000002c       0x2d ../MOD_socket_server_bsp//libucosii_bsp.a(targnios.o)
 .comment       0x000000000000002c       0x2d ../MOD_socket_server_bsp//libucosii_bsp.a(nptcp.o)
 .comment       0x000000000000002c       0x2d ../MOD_socket_server_bsp//libucosii_bsp.a(rawsock.o)
 .comment       0x000000000000002c       0x2d ../MOD_socket_server_bsp//libucosii_bsp.a(sockcall.o)
 .comment       0x000000000000002c       0x2d ../MOD_socket_server_bsp//libucosii_bsp.a(socket.o)
 .comment       0x000000000000002c       0x2d ../MOD_socket_server_bsp//libucosii_bsp.a(socket2.o)
 .comment       0x000000000000002c       0x2d ../MOD_socket_server_bsp//libucosii_bsp.a(soselect.o)
 .comment       0x000000000000002c       0x2d ../MOD_socket_server_bsp//libucosii_bsp.a(tcp_in.o)
 .comment       0x000000000000002c       0x2d ../MOD_socket_server_bsp//libucosii_bsp.a(tcp_out.o)
 .comment       0x000000000000002c       0x2d ../MOD_socket_server_bsp//libucosii_bsp.a(tcp_subr.o)
 .comment       0x000000000000002c       0x2d ../MOD_socket_server_bsp//libucosii_bsp.a(tcp_timr.o)
 .comment       0x000000000000002c       0x2d ../MOD_socket_server_bsp//libucosii_bsp.a(tcp_usr.o)
 .comment       0x000000000000002c       0x2d ../MOD_socket_server_bsp//libucosii_bsp.a(tcpport.o)
 .comment       0x000000000000002c       0x2d ../MOD_socket_server_bsp//libucosii_bsp.a(udpsock.o)
 .comment       0x000000000000002c       0x2d ../MOD_socket_server_bsp//libucosii_bsp.a(alt_alarm_start.o)
 .comment       0x000000000000002c       0x2d ../MOD_socket_server_bsp//libucosii_bsp.a(alt_busy_sleep.o)
 .comment       0x000000000000002c       0x2d ../MOD_socket_server_bsp//libucosii_bsp.a(alt_close.o)
 .comment       0x000000000000002c       0x2d ../MOD_socket_server_bsp//libucosii_bsp.a(alt_dcache_flush.o)
 .comment       0x000000000000002c       0x2d ../MOD_socket_server_bsp//libucosii_bsp.a(alt_dev.o)
 .comment       0x000000000000002c       0x2d ../MOD_socket_server_bsp//libucosii_bsp.a(alt_dev_llist_insert.o)
 .comment       0x000000000000002c       0x2d ../MOD_socket_server_bsp//libucosii_bsp.a(alt_do_ctors.o)
 .comment       0x000000000000002c       0x2d ../MOD_socket_server_bsp//libucosii_bsp.a(alt_do_dtors.o)
 .comment       0x000000000000002c       0x2d ../MOD_socket_server_bsp//libucosii_bsp.a(alt_errno.o)
 .comment       0x000000000000002c       0x2d ../MOD_socket_server_bsp//libucosii_bsp.a(alt_find_dev.o)
 .comment       0x000000000000002c       0x2d ../MOD_socket_server_bsp//libucosii_bsp.a(alt_flash_dev.o)
 .comment       0x000000000000002c       0x2d ../MOD_socket_server_bsp//libucosii_bsp.a(alt_iic.o)
 .comment       0x000000000000002c       0x2d ../MOD_socket_server_bsp//libucosii_bsp.a(alt_iic_isr_register.o)
 .comment       0x000000000000002c       0x2d ../MOD_socket_server_bsp//libucosii_bsp.a(alt_io_redirect.o)
 .comment       0x000000000000002c       0x2d ../MOD_socket_server_bsp//libucosii_bsp.a(alt_irq_handler.o)
 .comment       0x000000000000002c       0x2d ../MOD_socket_server_bsp//libucosii_bsp.a(alt_irq_vars.o)
 .comment       0x000000000000002c       0x2d ../MOD_socket_server_bsp//libucosii_bsp.a(alt_open.o)
 .comment       0x000000000000002c       0x2d ../MOD_socket_server_bsp//libucosii_bsp.a(alt_printf.o)
 .comment       0x000000000000002c       0x2d ../MOD_socket_server_bsp//libucosii_bsp.a(alt_putchar.o)
 .comment       0x000000000000002c       0x2d ../MOD_socket_server_bsp//libucosii_bsp.a(alt_read.o)
 .comment       0x000000000000002c       0x2d ../MOD_socket_server_bsp//libucosii_bsp.a(alt_release_fd.o)
 .comment       0x000000000000002c       0x2d ../MOD_socket_server_bsp//libucosii_bsp.a(alt_remap_cached.o)
 .comment       0x000000000000002c       0x2d ../MOD_socket_server_bsp//libucosii_bsp.a(alt_tick.o)
 .comment       0x000000000000002c       0x2d ../MOD_socket_server_bsp//libucosii_bsp.a(alt_uncached_free.o)
 .comment       0x000000000000002c       0x2d ../MOD_socket_server_bsp//libucosii_bsp.a(alt_uncached_malloc.o)
 .comment       0x000000000000002c       0x2d ../MOD_socket_server_bsp//libucosii_bsp.a(alt_usleep.o)
 .comment       0x000000000000002c       0x2d ../MOD_socket_server_bsp//libucosii_bsp.a(alt_write.o)
 .comment       0x000000000000002c       0x2d ../MOD_socket_server_bsp//libucosii_bsp.a(altera_nios2_gen2_irq.o)
 .comment       0x000000000000002c       0x2d ../MOD_socket_server_bsp//libucosii_bsp.a(os_cpu_c.o)
 .comment       0x000000000000002c       0x2d ../MOD_socket_server_bsp//libucosii_bsp.a(allports.o)
 .comment       0x000000000000002c       0x2d ../MOD_socket_server_bsp//libucosii_bsp.a(timeouts.o)
 .comment       0x000000000000002c       0x2d ../MOD_socket_server_bsp//libucosii_bsp.a(tk_misc.o)
 .comment       0x000000000000002c       0x2d ../MOD_socket_server_bsp//libucosii_bsp.a(alt_iniche_fcntl.o)
 .comment       0x000000000000002c       0x2d ../MOD_socket_server_bsp//libucosii_bsp.a(et_arp.o)
 .comment       0x000000000000002c       0x2d ../MOD_socket_server_bsp//libucosii_bsp.a(iface.o)
 .comment       0x000000000000002c       0x2d ../MOD_socket_server_bsp//libucosii_bsp.a(ip.o)
 .comment       0x000000000000002c       0x2d ../MOD_socket_server_bsp//libucosii_bsp.a(ip_reasm.o)
 .comment       0x000000000000002c       0x2d ../MOD_socket_server_bsp//libucosii_bsp.a(ipdemux.o)
 .comment       0x000000000000002c       0x2d ../MOD_socket_server_bsp//libucosii_bsp.a(ipmc.o)
 .comment       0x000000000000002c       0x2d ../MOD_socket_server_bsp//libucosii_bsp.a(ipport.o)
 .comment       0x000000000000002c       0x2d ../MOD_socket_server_bsp//libucosii_bsp.a(ipraw.o)
 .comment       0x000000000000002c       0x2d ../MOD_socket_server_bsp//libucosii_bsp.a(iproute.o)
 .comment       0x000000000000002c       0x2d ../MOD_socket_server_bsp//libucosii_bsp.a(udp.o)
 .comment       0x000000000000002c       0x2d ../MOD_socket_server_bsp//libucosii_bsp.a(igmp.o)
 .comment       0x000000000000002c       0x2d ../MOD_socket_server_bsp//libucosii_bsp.a(igmp2.o)
 .comment       0x000000000000002c       0x2d ../MOD_socket_server_bsp//libucosii_bsp.a(ipopt.o)
 .comment       0x000000000000002c       0x2d ../MOD_socket_server_bsp//libucosii_bsp.a(u_mctest.o)
 .comment       0x000000000000002c       0x2d ../MOD_socket_server_bsp//libucosii_bsp.a(dhcsetup.o)
 .comment       0x000000000000002c       0x2d ../MOD_socket_server_bsp//libucosii_bsp.a(memdev.o)
 .comment       0x000000000000002c       0x2d ../MOD_socket_server_bsp//libucosii_bsp.a(parseip.o)
 .comment       0x000000000000002c       0x2d ../MOD_socket_server_bsp//libucosii_bsp.a(tcpcksum.o)
 .comment       0x000000000000002c       0x2d ../MOD_socket_server_bsp//libucosii_bsp.a(in_pcb.o)
 .comment       0x000000000000002c       0x2d ../MOD_socket_server_bsp//libucosii_bsp.a(vfsfiles.o)
 .comment       0x000000000000002c       0x2d ../MOD_socket_server_bsp//libucosii_bsp.a(vfsport.o)
 .comment       0x000000000000002c       0x2d ../MOD_socket_server_bsp//libucosii_bsp.a(alt_fcntl.o)
 .comment       0x000000000000002c       0x2d ../MOD_socket_server_bsp//libucosii_bsp.a(alt_find_file.o)
 .comment       0x000000000000002c       0x2d ../MOD_socket_server_bsp//libucosii_bsp.a(alt_get_fd.o)
 .comment       0x000000000000002c       0x2d ../MOD_socket_server_bsp//libucosii_bsp.a(alt_instruction_exception_entry.o)
 .comment       0x000000000000002c       0x2d ../MOD_socket_server_bsp//libucosii_bsp.a(icmp.o)
 .comment       0x000000000000002c       0x2d /home/tom/intelFPGA_lite/20.1/nios2eds/bin/gnu/H-x86_64-pc-linux-gnu/bin/../lib/gcc/nios2-elf/9.2.1/../../../../../H-x86_64-pc-linux-gnu/nios2-elf/lib/libc.a(lib_a-atexit.o)
 .comment       0x000000000000002c       0x2d /home/tom/intelFPGA_lite/20.1/nios2eds/bin/gnu/H-x86_64-pc-linux-gnu/bin/../lib/gcc/nios2-elf/9.2.1/../../../../../H-x86_64-pc-linux-gnu/nios2-elf/lib/libc.a(lib_a-atoi.o)
 .comment       0x000000000000002c       0x2d /home/tom/intelFPGA_lite/20.1/nios2eds/bin/gnu/H-x86_64-pc-linux-gnu/bin/../lib/gcc/nios2-elf/9.2.1/../../../../../H-x86_64-pc-linux-gnu/nios2-elf/lib/libc.a(lib_a-exit.o)
 .comment       0x000000000000002c       0x2d /home/tom/intelFPGA_lite/20.1/nios2eds/bin/gnu/H-x86_64-pc-linux-gnu/bin/../lib/gcc/nios2-elf/9.2.1/../../../../../H-x86_64-pc-linux-gnu/nios2-elf/lib/libc.a(lib_a-malloc.o)
 .comment       0x000000000000002c       0x2d /home/tom/intelFPGA_lite/20.1/nios2eds/bin/gnu/H-x86_64-pc-linux-gnu/bin/../lib/gcc/nios2-elf/9.2.1/../../../../../H-x86_64-pc-linux-gnu/nios2-elf/lib/libc.a(lib_a-strchr.o)
 .comment       0x000000000000002c       0x2d /home/tom/intelFPGA_lite/20.1/nios2eds/bin/gnu/H-x86_64-pc-linux-gnu/bin/../lib/gcc/nios2-elf/9.2.1/../../../../../H-x86_64-pc-linux-gnu/nios2-elf/lib/libc.a(lib_a-strncmp.o)
 .comment       0x000000000000002c       0x2d /home/tom/intelFPGA_lite/20.1/nios2eds/bin/gnu/H-x86_64-pc-linux-gnu/bin/../lib/gcc/nios2-elf/9.2.1/../../../../../H-x86_64-pc-linux-gnu/nios2-elf/lib/libc.a(lib_a-strncpy.o)
 .comment       0x000000000000002c       0x2d /home/tom/intelFPGA_lite/20.1/nios2eds/bin/gnu/H-x86_64-pc-linux-gnu/bin/../lib/gcc/nios2-elf/9.2.1/../../../../../H-x86_64-pc-linux-gnu/nios2-elf/lib/libc.a(lib_a-strtol.o)
 .comment       0x000000000000002c       0x2d /home/tom/intelFPGA_lite/20.1/nios2eds/bin/gnu/H-x86_64-pc-linux-gnu/bin/../lib/gcc/nios2-elf/9.2.1/../../../../../H-x86_64-pc-linux-gnu/nios2-elf/lib/libc.a(lib_a-vprintf.o)
 .comment       0x000000000000002c       0x2d /home/tom/intelFPGA_lite/20.1/nios2eds/bin/gnu/H-x86_64-pc-linux-gnu/bin/../lib/gcc/nios2-elf/9.2.1/../../../../../H-x86_64-pc-linux-gnu/nios2-elf/lib/libc.a(lib_a-vsprintf.o)
 .comment       0x000000000000002c       0x2d /home/tom/intelFPGA_lite/20.1/nios2eds/bin/gnu/H-x86_64-pc-linux-gnu/bin/../lib/gcc/nios2-elf/9.2.1/../../../../../H-x86_64-pc-linux-gnu/nios2-elf/lib/libc.a(lib_a-__atexit.o)
 .comment       0x000000000000002c       0x2d /home/tom/intelFPGA_lite/20.1/nios2eds/bin/gnu/H-x86_64-pc-linux-gnu/bin/../lib/gcc/nios2-elf/9.2.1/../../../../../H-x86_64-pc-linux-gnu/nios2-elf/lib/libc.a(lib_a-__call_atexit.o)
 .comment       0x000000000000002c       0x2d /home/tom/intelFPGA_lite/20.1/nios2eds/bin/gnu/H-x86_64-pc-linux-gnu/bin/../lib/gcc/nios2-elf/9.2.1/../../../../../H-x86_64-pc-linux-gnu/nios2-elf/lib/libc.a(lib_a-vfprintfr_1.o)

.debug
 *(.debug)

.line
 *(.line)

.debug_srcinfo
 *(.debug_srcinfo)

.debug_sfnames
 *(.debug_sfnames)

.debug_aranges  0x0000000000000000     0x2010
 *(.debug_aranges)
 .debug_aranges
                0x0000000000000000       0x20 ../MOD_socket_server_bsp//obj/HAL/src/crt0.o
 .debug_aranges
                0x0000000000000020       0x20 obj/default/ClockModInit.o
 .debug_aranges
                0x0000000000000040       0x20 obj/default/DELHProtocol.o
 .debug_aranges
                0x0000000000000060       0x20 obj/default/InitializePeriph.o
 .debug_aranges
                0x0000000000000080       0x20 obj/default/alt_error_handler.o
 .debug_aranges
                0x00000000000000a0       0x20 obj/default/iniche_init.o
 .debug_aranges
                0x00000000000000c0       0x20 obj/default/led.o
 .debug_aranges
                0x00000000000000e0       0x20 obj/default/network_utilities.o
 .debug_aranges
                0x0000000000000100       0x20 obj/default/simple_socket_server.o
 .debug_aranges
                0x0000000000000120       0x18 obj/default/tse_my_system.o
 .debug_aranges
                0x0000000000000138       0x18 /home/tom/intelFPGA_lite/20.1/nios2eds/bin/gnu/H-x86_64-pc-linux-gnu/bin/../lib/gcc/nios2-elf/9.2.1/../../../../../H-x86_64-pc-linux-gnu/nios2-elf/lib/libc.a(lib_a-ctype_.o)
 .debug_aranges
                0x0000000000000150       0x28 /home/tom/intelFPGA_lite/20.1/nios2eds/bin/gnu/H-x86_64-pc-linux-gnu/bin/../lib/gcc/nios2-elf/9.2.1/../../../../../H-x86_64-pc-linux-gnu/nios2-elf/lib/libc.a(lib_a-fprintf.o)
 .debug_aranges
                0x0000000000000178       0x28 /home/tom/intelFPGA_lite/20.1/nios2eds/bin/gnu/H-x86_64-pc-linux-gnu/bin/../lib/gcc/nios2-elf/9.2.1/../../../../../H-x86_64-pc-linux-gnu/nios2-elf/lib/libc.a(lib_a-fwrite.o)
 .debug_aranges
                0x00000000000001a0       0x28 /home/tom/intelFPGA_lite/20.1/nios2eds/bin/gnu/H-x86_64-pc-linux-gnu/bin/../lib/gcc/nios2-elf/9.2.1/../../../../../H-x86_64-pc-linux-gnu/nios2-elf/lib/libc.a(lib_a-getchar.o)
 .debug_aranges
                0x00000000000001c8       0x18 /home/tom/intelFPGA_lite/20.1/nios2eds/bin/gnu/H-x86_64-pc-linux-gnu/bin/../lib/gcc/nios2-elf/9.2.1/../../../../../H-x86_64-pc-linux-gnu/nios2-elf/lib/libc.a(lib_a-impure.o)
 .debug_aranges
                0x00000000000001e0       0x20 /home/tom/intelFPGA_lite/20.1/nios2eds/bin/gnu/H-x86_64-pc-linux-gnu/bin/../lib/gcc/nios2-elf/9.2.1/../../../../../H-x86_64-pc-linux-gnu/nios2-elf/lib/libc.a(lib_a-memcmp.o)
 .debug_aranges
                0x0000000000000200       0x20 /home/tom/intelFPGA_lite/20.1/nios2eds/bin/gnu/H-x86_64-pc-linux-gnu/bin/../lib/gcc/nios2-elf/9.2.1/../../../../../H-x86_64-pc-linux-gnu/nios2-elf/lib/libc.a(lib_a-memcpy.o)
 .debug_aranges
                0x0000000000000220       0x20 /home/tom/intelFPGA_lite/20.1/nios2eds/bin/gnu/H-x86_64-pc-linux-gnu/bin/../lib/gcc/nios2-elf/9.2.1/../../../../../H-x86_64-pc-linux-gnu/nios2-elf/lib/libc.a(lib_a-memset.o)
 .debug_aranges
                0x0000000000000240       0x28 /home/tom/intelFPGA_lite/20.1/nios2eds/bin/gnu/H-x86_64-pc-linux-gnu/bin/../lib/gcc/nios2-elf/9.2.1/../../../../../H-x86_64-pc-linux-gnu/nios2-elf/lib/libc.a(lib_a-perror.o)
 .debug_aranges
                0x0000000000000268       0x28 /home/tom/intelFPGA_lite/20.1/nios2eds/bin/gnu/H-x86_64-pc-linux-gnu/bin/../lib/gcc/nios2-elf/9.2.1/../../../../../H-x86_64-pc-linux-gnu/nios2-elf/lib/libc.a(lib_a-printf.o)
 .debug_aranges
                0x0000000000000290       0x28 /home/tom/intelFPGA_lite/20.1/nios2eds/bin/gnu/H-x86_64-pc-linux-gnu/bin/../lib/gcc/nios2-elf/9.2.1/../../../../../H-x86_64-pc-linux-gnu/nios2-elf/lib/libc.a(lib_a-putchar.o)
 .debug_aranges
                0x00000000000002b8       0x28 /home/tom/intelFPGA_lite/20.1/nios2eds/bin/gnu/H-x86_64-pc-linux-gnu/bin/../lib/gcc/nios2-elf/9.2.1/../../../../../H-x86_64-pc-linux-gnu/nios2-elf/lib/libc.a(lib_a-puts.o)
 .debug_aranges
                0x00000000000002e0       0x28 /home/tom/intelFPGA_lite/20.1/nios2eds/bin/gnu/H-x86_64-pc-linux-gnu/bin/../lib/gcc/nios2-elf/9.2.1/../../../../../H-x86_64-pc-linux-gnu/nios2-elf/lib/libc.a(lib_a-sprintf.o)
 .debug_aranges
                0x0000000000000308       0x20 /home/tom/intelFPGA_lite/20.1/nios2eds/bin/gnu/H-x86_64-pc-linux-gnu/bin/../lib/gcc/nios2-elf/9.2.1/../../../../../H-x86_64-pc-linux-gnu/nios2-elf/lib/libc.a(lib_a-strcpy.o)
 .debug_aranges
                0x0000000000000328       0x30 /home/tom/intelFPGA_lite/20.1/nios2eds/bin/gnu/H-x86_64-pc-linux-gnu/bin/../lib/gcc/nios2-elf/9.2.1/../../../../../H-x86_64-pc-linux-gnu/nios2-elf/lib/libc.a(lib_a-strerror.o)
 .debug_aranges
                0x0000000000000358       0x20 /home/tom/intelFPGA_lite/20.1/nios2eds/bin/gnu/H-x86_64-pc-linux-gnu/bin/../lib/gcc/nios2-elf/9.2.1/../../../../../H-x86_64-pc-linux-gnu/nios2-elf/lib/libc.a(lib_a-strlen.o)
 .debug_aranges
                0x0000000000000378       0x20 /home/tom/intelFPGA_lite/20.1/nios2eds/bin/gnu/H-x86_64-pc-linux-gnu/bin/../lib/gcc/nios2-elf/9.2.1/../../../../../H-x86_64-pc-linux-gnu/nios2-elf/lib/libc.a(lib_a-strtok.o)
 .debug_aranges
                0x0000000000000398       0x28 /home/tom/intelFPGA_lite/20.1/nios2eds/bin/gnu/H-x86_64-pc-linux-gnu/bin/../lib/gcc/nios2-elf/9.2.1/../../../../../H-x86_64-pc-linux-gnu/nios2-elf/lib/libc.a(lib_a-strtok_r.o)
 .debug_aranges
                0x00000000000003c0       0x38 /home/tom/intelFPGA_lite/20.1/nios2eds/bin/gnu/H-x86_64-pc-linux-gnu/bin/../lib/gcc/nios2-elf/9.2.1/../../../../../H-x86_64-pc-linux-gnu/nios2-elf/lib/libc.a(lib_a-strtoul.o)
 .debug_aranges
                0x00000000000003f8       0x20 /home/tom/intelFPGA_lite/20.1/nios2eds/bin/gnu/H-x86_64-pc-linux-gnu/bin/../lib/gcc/nios2-elf/9.2.1/../../../../../H-x86_64-pc-linux-gnu/nios2-elf/lib/libc.a(lib_a-svfprintf.o)
 .debug_aranges
                0x0000000000000418       0x20 /home/tom/intelFPGA_lite/20.1/nios2eds/bin/gnu/H-x86_64-pc-linux-gnu/bin/../lib/gcc/nios2-elf/9.2.1/../../../../../H-x86_64-pc-linux-gnu/nios2-elf/lib/libc.a(lib_a-u_strerr.o)
 .debug_aranges
                0x0000000000000438       0x30 /home/tom/intelFPGA_lite/20.1/nios2eds/bin/gnu/H-x86_64-pc-linux-gnu/bin/../lib/gcc/nios2-elf/9.2.1/../../../../../H-x86_64-pc-linux-gnu/nios2-elf/lib/libc.a(lib_a-vfprintf.o)
 .debug_aranges
                0x0000000000000468       0x20 /home/tom/intelFPGA_lite/20.1/nios2eds/bin/gnu/H-x86_64-pc-linux-gnu/bin/../lib/gcc/nios2-elf/9.2.1/../../../../../H-x86_64-pc-linux-gnu/nios2-elf/lib/libc.a(lib_a-writer.o)
 .debug_aranges
                0x0000000000000488       0x20 /home/tom/intelFPGA_lite/20.1/nios2eds/bin/gnu/H-x86_64-pc-linux-gnu/bin/../lib/gcc/nios2-elf/9.2.1/../../../../../H-x86_64-pc-linux-gnu/nios2-elf/lib/libc.a(lib_a-wsetup.o)
 .debug_aranges
                0x00000000000004a8       0x28 /home/tom/intelFPGA_lite/20.1/nios2eds/bin/gnu/H-x86_64-pc-linux-gnu/bin/../lib/gcc/nios2-elf/9.2.1/../../../../../H-x86_64-pc-linux-gnu/nios2-elf/lib/libc.a(lib_a-dtoa.o)
 .debug_aranges
                0x00000000000004d0       0x30 /home/tom/intelFPGA_lite/20.1/nios2eds/bin/gnu/H-x86_64-pc-linux-gnu/bin/../lib/gcc/nios2-elf/9.2.1/../../../../../H-x86_64-pc-linux-gnu/nios2-elf/lib/libc.a(lib_a-fflush.o)
 .debug_aranges
                0x0000000000000500       0x20 /home/tom/intelFPGA_lite/20.1/nios2eds/bin/gnu/H-x86_64-pc-linux-gnu/bin/../lib/gcc/nios2-elf/9.2.1/../../../../../H-x86_64-pc-linux-gnu/nios2-elf/lib/libc.a(lib_a-fileno.o)
 .debug_aranges
                0x0000000000000520       0x68 /home/tom/intelFPGA_lite/20.1/nios2eds/bin/gnu/H-x86_64-pc-linux-gnu/bin/../lib/gcc/nios2-elf/9.2.1/../../../../../H-x86_64-pc-linux-gnu/nios2-elf/lib/libc.a(lib_a-findfp.o)
 .debug_aranges
                0x0000000000000588       0x28 /home/tom/intelFPGA_lite/20.1/nios2eds/bin/gnu/H-x86_64-pc-linux-gnu/bin/../lib/gcc/nios2-elf/9.2.1/../../../../../H-x86_64-pc-linux-gnu/nios2-elf/lib/libc.a(lib_a-freer.o)
 .debug_aranges
                0x00000000000005b0       0x20 /home/tom/intelFPGA_lite/20.1/nios2eds/bin/gnu/H-x86_64-pc-linux-gnu/bin/../lib/gcc/nios2-elf/9.2.1/../../../../../H-x86_64-pc-linux-gnu/nios2-elf/lib/libc.a(lib_a-fvwrite.o)
 .debug_aranges
                0x00000000000005d0       0x28 /home/tom/intelFPGA_lite/20.1/nios2eds/bin/gnu/H-x86_64-pc-linux-gnu/bin/../lib/gcc/nios2-elf/9.2.1/../../../../../H-x86_64-pc-linux-gnu/nios2-elf/lib/libc.a(lib_a-fwalk.o)
 .debug_aranges
                0x00000000000005f8       0x28 /home/tom/intelFPGA_lite/20.1/nios2eds/bin/gnu/H-x86_64-pc-linux-gnu/bin/../lib/gcc/nios2-elf/9.2.1/../../../../../H-x86_64-pc-linux-gnu/nios2-elf/lib/libc.a(lib_a-getc.o)
 .debug_aranges
                0x0000000000000620       0x18 /home/tom/intelFPGA_lite/20.1/nios2eds/bin/gnu/H-x86_64-pc-linux-gnu/bin/../lib/gcc/nios2-elf/9.2.1/../../../../../H-x86_64-pc-linux-gnu/nios2-elf/lib/libc.a(lib_a-int_errno.o)
 .debug_aranges
                0x0000000000000638       0x30 /home/tom/intelFPGA_lite/20.1/nios2eds/bin/gnu/H-x86_64-pc-linux-gnu/bin/../lib/gcc/nios2-elf/9.2.1/../../../../../H-x86_64-pc-linux-gnu/nios2-elf/lib/libc.a(lib_a-localeconv.o)
 .debug_aranges
                0x0000000000000668       0x28 /home/tom/intelFPGA_lite/20.1/nios2eds/bin/gnu/H-x86_64-pc-linux-gnu/bin/../lib/gcc/nios2-elf/9.2.1/../../../../../H-x86_64-pc-linux-gnu/nios2-elf/lib/libc.a(lib_a-makebuf.o)
 .debug_aranges
                0x0000000000000690       0x20 /home/tom/intelFPGA_lite/20.1/nios2eds/bin/gnu/H-x86_64-pc-linux-gnu/bin/../lib/gcc/nios2-elf/9.2.1/../../../../../H-x86_64-pc-linux-gnu/nios2-elf/lib/libc.a(lib_a-mallocr.o)
 .debug_aranges
                0x00000000000006b0       0x20 /home/tom/intelFPGA_lite/20.1/nios2eds/bin/gnu/H-x86_64-pc-linux-gnu/bin/../lib/gcc/nios2-elf/9.2.1/../../../../../H-x86_64-pc-linux-gnu/nios2-elf/lib/libc.a(lib_a-memchr.o)
 .debug_aranges
                0x00000000000006d0       0x20 /home/tom/intelFPGA_lite/20.1/nios2eds/bin/gnu/H-x86_64-pc-linux-gnu/bin/../lib/gcc/nios2-elf/9.2.1/../../../../../H-x86_64-pc-linux-gnu/nios2-elf/lib/libc.a(lib_a-memmove.o)
 .debug_aranges
                0x00000000000006f0       0xb0 /home/tom/intelFPGA_lite/20.1/nios2eds/bin/gnu/H-x86_64-pc-linux-gnu/bin/../lib/gcc/nios2-elf/9.2.1/../../../../../H-x86_64-pc-linux-gnu/nios2-elf/lib/libc.a(lib_a-mprec.o)
 .debug_aranges
                0x00000000000007a0       0x28 /home/tom/intelFPGA_lite/20.1/nios2eds/bin/gnu/H-x86_64-pc-linux-gnu/bin/../lib/gcc/nios2-elf/9.2.1/../../../../../H-x86_64-pc-linux-gnu/nios2-elf/lib/libc.a(lib_a-putc.o)
 .debug_aranges
                0x00000000000007c8       0x20 /home/tom/intelFPGA_lite/20.1/nios2eds/bin/gnu/H-x86_64-pc-linux-gnu/bin/../lib/gcc/nios2-elf/9.2.1/../../../../../H-x86_64-pc-linux-gnu/nios2-elf/lib/libc.a(lib_a-reallocr.o)
 .debug_aranges
                0x00000000000007e8       0x28 /home/tom/intelFPGA_lite/20.1/nios2eds/bin/gnu/H-x86_64-pc-linux-gnu/bin/../lib/gcc/nios2-elf/9.2.1/../../../../../H-x86_64-pc-linux-gnu/nios2-elf/lib/libc.a(lib_a-rget.o)
 .debug_aranges
                0x0000000000000810       0x20 /home/tom/intelFPGA_lite/20.1/nios2eds/bin/gnu/H-x86_64-pc-linux-gnu/bin/../lib/gcc/nios2-elf/9.2.1/../../../../../H-x86_64-pc-linux-gnu/nios2-elf/lib/libc.a(lib_a-sbrkr.o)
 .debug_aranges
                0x0000000000000830       0x40 /home/tom/intelFPGA_lite/20.1/nios2eds/bin/gnu/H-x86_64-pc-linux-gnu/bin/../lib/gcc/nios2-elf/9.2.1/../../../../../H-x86_64-pc-linux-gnu/nios2-elf/lib/libc.a(lib_a-stdio.o)
 .debug_aranges
                0x0000000000000870       0x28 /home/tom/intelFPGA_lite/20.1/nios2eds/bin/gnu/H-x86_64-pc-linux-gnu/bin/../lib/gcc/nios2-elf/9.2.1/../../../../../H-x86_64-pc-linux-gnu/nios2-elf/lib/libc.a(lib_a-svfiprintf.o)
 .debug_aranges
                0x0000000000000898       0x40 /home/tom/intelFPGA_lite/20.1/nios2eds/bin/gnu/H-x86_64-pc-linux-gnu/bin/../lib/gcc/nios2-elf/9.2.1/../../../../../H-x86_64-pc-linux-gnu/nios2-elf/lib/libc.a(lib_a-vfiprintf.o)
 .debug_aranges
                0x00000000000008d8       0x28 /home/tom/intelFPGA_lite/20.1/nios2eds/bin/gnu/H-x86_64-pc-linux-gnu/bin/../lib/gcc/nios2-elf/9.2.1/../../../../../H-x86_64-pc-linux-gnu/nios2-elf/lib/libc.a(lib_a-wbuf.o)
 .debug_aranges
                0x0000000000000900       0x20 /home/tom/intelFPGA_lite/20.1/nios2eds/bin/gnu/H-x86_64-pc-linux-gnu/bin/../lib/gcc/nios2-elf/9.2.1/../../../../../H-x86_64-pc-linux-gnu/nios2-elf/lib/libc.a(closer.o)
 .debug_aranges
                0x0000000000000920       0x28 /home/tom/intelFPGA_lite/20.1/nios2eds/bin/gnu/H-x86_64-pc-linux-gnu/bin/../lib/gcc/nios2-elf/9.2.1/../../../../../H-x86_64-pc-linux-gnu/nios2-elf/lib/libc.a(lib_a-assert.o)
 .debug_aranges
                0x0000000000000948       0x20 /home/tom/intelFPGA_lite/20.1/nios2eds/bin/gnu/H-x86_64-pc-linux-gnu/bin/../lib/gcc/nios2-elf/9.2.1/../../../../../H-x86_64-pc-linux-gnu/nios2-elf/lib/libc.a(lib_a-callocr.o)
 .debug_aranges
                0x0000000000000968       0x28 /home/tom/intelFPGA_lite/20.1/nios2eds/bin/gnu/H-x86_64-pc-linux-gnu/bin/../lib/gcc/nios2-elf/9.2.1/../../../../../H-x86_64-pc-linux-gnu/nios2-elf/lib/libc.a(lib_a-fclose.o)
 .debug_aranges
                0x0000000000000990       0x28 /home/tom/intelFPGA_lite/20.1/nios2eds/bin/gnu/H-x86_64-pc-linux-gnu/bin/../lib/gcc/nios2-elf/9.2.1/../../../../../H-x86_64-pc-linux-gnu/nios2-elf/lib/libc.a(lib_a-fiprintf.o)
 .debug_aranges
                0x00000000000009b8       0x30 /home/tom/intelFPGA_lite/20.1/nios2eds/bin/gnu/H-x86_64-pc-linux-gnu/bin/../lib/gcc/nios2-elf/9.2.1/../../../../../H-x86_64-pc-linux-gnu/nios2-elf/lib/libc.a(lib_a-fputwc.o)
 .debug_aranges
                0x00000000000009e8       0x20 /home/tom/intelFPGA_lite/20.1/nios2eds/bin/gnu/H-x86_64-pc-linux-gnu/bin/../lib/gcc/nios2-elf/9.2.1/../../../../../H-x86_64-pc-linux-gnu/nios2-elf/lib/libc.a(lib_a-fstatr.o)
 .debug_aranges
                0x0000000000000a08       0x20 /home/tom/intelFPGA_lite/20.1/nios2eds/bin/gnu/H-x86_64-pc-linux-gnu/bin/../lib/gcc/nios2-elf/9.2.1/../../../../../H-x86_64-pc-linux-gnu/nios2-elf/lib/libc.a(lib_a-isattyr.o)
 .debug_aranges
                0x0000000000000a28       0x30 /home/tom/intelFPGA_lite/20.1/nios2eds/bin/gnu/H-x86_64-pc-linux-gnu/bin/../lib/gcc/nios2-elf/9.2.1/../../../../../H-x86_64-pc-linux-gnu/nios2-elf/lib/libc.a(lib_a-locale.o)
 .debug_aranges
                0x0000000000000a58       0x20 /home/tom/intelFPGA_lite/20.1/nios2eds/bin/gnu/H-x86_64-pc-linux-gnu/bin/../lib/gcc/nios2-elf/9.2.1/../../../../../H-x86_64-pc-linux-gnu/nios2-elf/lib/libc.a(lib_a-lseekr.o)
 .debug_aranges
                0x0000000000000a78       0x28 /home/tom/intelFPGA_lite/20.1/nios2eds/bin/gnu/H-x86_64-pc-linux-gnu/bin/../lib/gcc/nios2-elf/9.2.1/../../../../../H-x86_64-pc-linux-gnu/nios2-elf/lib/libc.a(lib_a-mbtowc_r.o)
 .debug_aranges
                0x0000000000000aa0       0x20 /home/tom/intelFPGA_lite/20.1/nios2eds/bin/gnu/H-x86_64-pc-linux-gnu/bin/../lib/gcc/nios2-elf/9.2.1/../../../../../H-x86_64-pc-linux-gnu/nios2-elf/lib/libc.a(lib_a-readr.o)
 .debug_aranges
                0x0000000000000ac0       0x28 /home/tom/intelFPGA_lite/20.1/nios2eds/bin/gnu/H-x86_64-pc-linux-gnu/bin/../lib/gcc/nios2-elf/9.2.1/../../../../../H-x86_64-pc-linux-gnu/nios2-elf/lib/libc.a(lib_a-refill.o)
 .debug_aranges
                0x0000000000000ae8       0x20 /home/tom/intelFPGA_lite/20.1/nios2eds/bin/gnu/H-x86_64-pc-linux-gnu/bin/../lib/gcc/nios2-elf/9.2.1/../../../../../H-x86_64-pc-linux-gnu/nios2-elf/lib/libc.a(lib_a-strcmp.o)
 .debug_aranges
                0x0000000000000b08       0x20 /home/tom/intelFPGA_lite/20.1/nios2eds/bin/gnu/H-x86_64-pc-linux-gnu/bin/../lib/gcc/nios2-elf/9.2.1/../../../../../H-x86_64-pc-linux-gnu/nios2-elf/lib/libc.a(lib_a-vfiprintfr_1.o)
 .debug_aranges
                0x0000000000000b28       0x28 /home/tom/intelFPGA_lite/20.1/nios2eds/bin/gnu/H-x86_64-pc-linux-gnu/bin/../lib/gcc/nios2-elf/9.2.1/../../../../../H-x86_64-pc-linux-gnu/nios2-elf/lib/libc.a(lib_a-wcrtomb.o)
 .debug_aranges
                0x0000000000000b50       0x28 /home/tom/intelFPGA_lite/20.1/nios2eds/bin/gnu/H-x86_64-pc-linux-gnu/bin/../lib/gcc/nios2-elf/9.2.1/../../../../../H-x86_64-pc-linux-gnu/nios2-elf/lib/libc.a(lib_a-wctomb_r.o)
 .debug_aranges
                0x0000000000000b78       0x20 /home/tom/intelFPGA_lite/20.1/nios2eds/bin/gnu/H-x86_64-pc-linux-gnu/bin/../lib/gcc/nios2-elf/9.2.1/../../../../../H-x86_64-pc-linux-gnu/nios2-elf/lib/libc.a(lib_a-abort.o)
 .debug_aranges
                0x0000000000000b98       0x60 /home/tom/intelFPGA_lite/20.1/nios2eds/bin/gnu/H-x86_64-pc-linux-gnu/bin/../lib/gcc/nios2-elf/9.2.1/../../../../../H-x86_64-pc-linux-gnu/nios2-elf/lib/libc.a(lib_a-signal.o)
 .debug_aranges
                0x0000000000000bf8       0x28 /home/tom/intelFPGA_lite/20.1/nios2eds/bin/gnu/H-x86_64-pc-linux-gnu/bin/../lib/gcc/nios2-elf/9.2.1/../../../../../H-x86_64-pc-linux-gnu/nios2-elf/lib/libc.a(lib_a-signalr.o)
 .debug_aranges
                0x0000000000000c20       0x20 /home/tom/intelFPGA_lite/20.1/nios2eds/bin/gnu/H-x86_64-pc-linux-gnu/bin/../lib/gcc/nios2-elf/9.2.1/libgcc.a(_udivdi3.o)
 .debug_aranges
                0x0000000000000c40       0x20 /home/tom/intelFPGA_lite/20.1/nios2eds/bin/gnu/H-x86_64-pc-linux-gnu/bin/../lib/gcc/nios2-elf/9.2.1/libgcc.a(_umoddi3.o)
 .debug_aranges
                0x0000000000000c60       0x20 /home/tom/intelFPGA_lite/20.1/nios2eds/bin/gnu/H-x86_64-pc-linux-gnu/bin/../lib/gcc/nios2-elf/9.2.1/libgcc.a(lib2-divmod.o)
 .debug_aranges
                0x0000000000000c80       0x20 /home/tom/intelFPGA_lite/20.1/nios2eds/bin/gnu/H-x86_64-pc-linux-gnu/bin/../lib/gcc/nios2-elf/9.2.1/libgcc.a(adddf3.o)
 .debug_aranges
                0x0000000000000ca0       0x20 /home/tom/intelFPGA_lite/20.1/nios2eds/bin/gnu/H-x86_64-pc-linux-gnu/bin/../lib/gcc/nios2-elf/9.2.1/libgcc.a(divdf3.o)
 .debug_aranges
                0x0000000000000cc0       0x20 /home/tom/intelFPGA_lite/20.1/nios2eds/bin/gnu/H-x86_64-pc-linux-gnu/bin/../lib/gcc/nios2-elf/9.2.1/libgcc.a(eqdf2.o)
 .debug_aranges
                0x0000000000000ce0       0x20 /home/tom/intelFPGA_lite/20.1/nios2eds/bin/gnu/H-x86_64-pc-linux-gnu/bin/../lib/gcc/nios2-elf/9.2.1/libgcc.a(gedf2.o)
 .debug_aranges
                0x0000000000000d00       0x20 /home/tom/intelFPGA_lite/20.1/nios2eds/bin/gnu/H-x86_64-pc-linux-gnu/bin/../lib/gcc/nios2-elf/9.2.1/libgcc.a(ledf2.o)
 .debug_aranges
                0x0000000000000d20       0x20 /home/tom/intelFPGA_lite/20.1/nios2eds/bin/gnu/H-x86_64-pc-linux-gnu/bin/../lib/gcc/nios2-elf/9.2.1/libgcc.a(muldf3.o)
 .debug_aranges
                0x0000000000000d40       0x20 /home/tom/intelFPGA_lite/20.1/nios2eds/bin/gnu/H-x86_64-pc-linux-gnu/bin/../lib/gcc/nios2-elf/9.2.1/libgcc.a(subdf3.o)
 .debug_aranges
                0x0000000000000d60       0x20 /home/tom/intelFPGA_lite/20.1/nios2eds/bin/gnu/H-x86_64-pc-linux-gnu/bin/../lib/gcc/nios2-elf/9.2.1/libgcc.a(unorddf2.o)
 .debug_aranges
                0x0000000000000d80       0x20 /home/tom/intelFPGA_lite/20.1/nios2eds/bin/gnu/H-x86_64-pc-linux-gnu/bin/../lib/gcc/nios2-elf/9.2.1/libgcc.a(fixdfsi.o)
 .debug_aranges
                0x0000000000000da0       0x20 /home/tom/intelFPGA_lite/20.1/nios2eds/bin/gnu/H-x86_64-pc-linux-gnu/bin/../lib/gcc/nios2-elf/9.2.1/libgcc.a(floatsidf.o)
 .debug_aranges
                0x0000000000000dc0       0x20 /home/tom/intelFPGA_lite/20.1/nios2eds/bin/gnu/H-x86_64-pc-linux-gnu/bin/../lib/gcc/nios2-elf/9.2.1/libgcc.a(floatunsidf.o)
 .debug_aranges
                0x0000000000000de0       0x18 /home/tom/intelFPGA_lite/20.1/nios2eds/bin/gnu/H-x86_64-pc-linux-gnu/bin/../lib/gcc/nios2-elf/9.2.1/libgcc.a(_clz.o)
 .debug_aranges
                0x0000000000000df8       0x20 /home/tom/intelFPGA_lite/20.1/nios2eds/bin/gnu/H-x86_64-pc-linux-gnu/bin/../lib/gcc/nios2-elf/9.2.1/libgcc.a(_clzsi2.o)
 .debug_aranges
                0x0000000000000e18       0x20 ../MOD_socket_server_bsp//libucosii_bsp.a(alt_exit.o)
 .debug_aranges
                0x0000000000000e38       0x20 ../MOD_socket_server_bsp//libucosii_bsp.a(alt_fstat.o)
 .debug_aranges
                0x0000000000000e58       0x20 ../MOD_socket_server_bsp//libucosii_bsp.a(alt_getpid.o)
 .debug_aranges
                0x0000000000000e78       0x20 ../MOD_socket_server_bsp//libucosii_bsp.a(alt_isatty.o)
 .debug_aranges
                0x0000000000000e98       0x20 ../MOD_socket_server_bsp//libucosii_bsp.a(alt_kill.o)
 .debug_aranges
                0x0000000000000eb8       0x20 ../MOD_socket_server_bsp//libucosii_bsp.a(alt_lseek.o)
 .debug_aranges
                0x0000000000000ed8       0x20 ../MOD_socket_server_bsp//libucosii_bsp.a(alt_main.o)
 .debug_aranges
                0x0000000000000ef8       0x20 ../MOD_socket_server_bsp//libucosii_bsp.a(alt_sbrk.o)
 .debug_aranges
                0x0000000000000f18       0x20 ../MOD_socket_server_bsp//libucosii_bsp.a(alt_env_lock.o)
 .debug_aranges
                0x0000000000000f38       0x20 ../MOD_socket_server_bsp//libucosii_bsp.a(alt_malloc_lock.o)
 .debug_aranges
                0x0000000000000f58       0x20 ../MOD_socket_server_bsp//libucosii_bsp.a(os_core.o)
 .debug_aranges
                0x0000000000000f78       0x20 ../MOD_socket_server_bsp//libucosii_bsp.a(os_dbg.o)
 .debug_aranges
                0x0000000000000f98       0x20 ../MOD_socket_server_bsp//libucosii_bsp.a(os_flag.o)
 .debug_aranges
                0x0000000000000fb8       0x20 ../MOD_socket_server_bsp//libucosii_bsp.a(os_mem.o)
 .debug_aranges
                0x0000000000000fd8       0x20 ../MOD_socket_server_bsp//libucosii_bsp.a(os_q.o)
 .debug_aranges
                0x0000000000000ff8       0x20 ../MOD_socket_server_bsp//libucosii_bsp.a(os_sem.o)
 .debug_aranges
                0x0000000000001018       0x20 ../MOD_socket_server_bsp//libucosii_bsp.a(os_task.o)
 .debug_aranges
                0x0000000000001038       0x20 ../MOD_socket_server_bsp//libucosii_bsp.a(os_time.o)
 .debug_aranges
                0x0000000000001058       0x20 ../MOD_socket_server_bsp//libucosii_bsp.a(alt_sys_init.o)
 .debug_aranges
                0x0000000000001078       0x20 ../MOD_socket_server_bsp//libucosii_bsp.a(altera_avalon_fifo_util.o)
 .debug_aranges
                0x0000000000001098       0x20 ../MOD_socket_server_bsp//libucosii_bsp.a(altera_avalon_i2c.o)
 .debug_aranges
                0x00000000000010b8       0x20 ../MOD_socket_server_bsp//libucosii_bsp.a(altera_avalon_jtag_uart_fd.o)
 .debug_aranges
                0x00000000000010d8       0x20 ../MOD_socket_server_bsp//libucosii_bsp.a(altera_avalon_jtag_uart_init.o)
 .debug_aranges
                0x00000000000010f8       0x20 ../MOD_socket_server_bsp//libucosii_bsp.a(altera_avalon_jtag_uart_ioctl.o)
 .debug_aranges
                0x0000000000001118       0x20 ../MOD_socket_server_bsp//libucosii_bsp.a(altera_avalon_jtag_uart_read.o)
 .debug_aranges
                0x0000000000001138       0x20 ../MOD_socket_server_bsp//libucosii_bsp.a(altera_avalon_jtag_uart_write.o)
 .debug_aranges
                0x0000000000001158       0x20 ../MOD_socket_server_bsp//libucosii_bsp.a(altera_avalon_spi.o)
 .debug_aranges
                0x0000000000001178       0x20 ../MOD_socket_server_bsp//libucosii_bsp.a(altera_avalon_timer_sc.o)
 .debug_aranges
                0x0000000000001198       0x20 ../MOD_socket_server_bsp//libucosii_bsp.a(altera_avalon_tse.o)
 .debug_aranges
                0x00000000000011b8       0x20 ../MOD_socket_server_bsp//libucosii_bsp.a(altera_generic_quad_spi_controller.o)
 .debug_aranges
                0x00000000000011d8       0x20 ../MOD_socket_server_bsp//libucosii_bsp.a(altera_msgdma.o)
 .debug_aranges
                0x00000000000011f8       0x20 ../MOD_socket_server_bsp//libucosii_bsp.a(ins_tse_mac.o)
 .debug_aranges
                0x0000000000001218       0x20 ../MOD_socket_server_bsp//libucosii_bsp.a(alt_iniche_close.o)
 .debug_aranges
                0x0000000000001238       0x20 ../MOD_socket_server_bsp//libucosii_bsp.a(alt_iniche_dev.o)
 .debug_aranges
                0x0000000000001258       0x20 ../MOD_socket_server_bsp//libucosii_bsp.a(alt_iniche_read.o)
 .debug_aranges
                0x0000000000001278       0x20 ../MOD_socket_server_bsp//libucosii_bsp.a(alt_iniche_write.o)
 .debug_aranges
                0x0000000000001298       0x20 ../MOD_socket_server_bsp//libucosii_bsp.a(ipnet.o)
 .debug_aranges
                0x00000000000012b8       0x20 ../MOD_socket_server_bsp//libucosii_bsp.a(ipstart.o)
 .debug_aranges
                0x00000000000012d8       0x20 ../MOD_socket_server_bsp//libucosii_bsp.a(igmp_cmn.o)
 .debug_aranges
                0x00000000000012f8       0x20 ../MOD_socket_server_bsp//libucosii_bsp.a(bsdsock.o)
 .debug_aranges
                0x0000000000001318       0x20 ../MOD_socket_server_bsp//libucosii_bsp.a(cksum.o)
 .debug_aranges
                0x0000000000001338       0x20 ../MOD_socket_server_bsp//libucosii_bsp.a(in_utils.o)
 .debug_aranges
                0x0000000000001358       0x20 ../MOD_socket_server_bsp//libucosii_bsp.a(netmain.o)
 .debug_aranges
                0x0000000000001378       0x20 ../MOD_socket_server_bsp//libucosii_bsp.a(tk_crnos.o)
 .debug_aranges
                0x0000000000001398       0x20 ../MOD_socket_server_bsp//libucosii_bsp.a(dhcpclnt.o)
 .debug_aranges
                0x00000000000013b8       0x20 ../MOD_socket_server_bsp//libucosii_bsp.a(dhcputil.o)
 .debug_aranges
                0x00000000000013d8       0x20 ../MOD_socket_server_bsp//libucosii_bsp.a(pktalloc.o)
 .debug_aranges
                0x00000000000013f8       0x20 ../MOD_socket_server_bsp//libucosii_bsp.a(q.o)
 .debug_aranges
                0x0000000000001418       0x20 ../MOD_socket_server_bsp//libucosii_bsp.a(udp_open.o)
 .debug_aranges
                0x0000000000001438       0x20 ../MOD_socket_server_bsp//libucosii_bsp.a(asm_cksum.o)
 .debug_aranges
                0x0000000000001458       0x20 ../MOD_socket_server_bsp//libucosii_bsp.a(brdutils.o)
 .debug_aranges
                0x0000000000001478       0x20 ../MOD_socket_server_bsp//libucosii_bsp.a(osportco.o)
 .debug_aranges
                0x0000000000001498       0x20 ../MOD_socket_server_bsp//libucosii_bsp.a(targnios.o)
 .debug_aranges
                0x00000000000014b8       0x20 ../MOD_socket_server_bsp//libucosii_bsp.a(nptcp.o)
 .debug_aranges
                0x00000000000014d8       0x20 ../MOD_socket_server_bsp//libucosii_bsp.a(rawsock.o)
 .debug_aranges
                0x00000000000014f8       0x20 ../MOD_socket_server_bsp//libucosii_bsp.a(sockcall.o)
 .debug_aranges
                0x0000000000001518       0x20 ../MOD_socket_server_bsp//libucosii_bsp.a(socket.o)
 .debug_aranges
                0x0000000000001538       0x20 ../MOD_socket_server_bsp//libucosii_bsp.a(socket2.o)
 .debug_aranges
                0x0000000000001558       0x20 ../MOD_socket_server_bsp//libucosii_bsp.a(soselect.o)
 .debug_aranges
                0x0000000000001578       0x20 ../MOD_socket_server_bsp//libucosii_bsp.a(tcp_in.o)
 .debug_aranges
                0x0000000000001598       0x20 ../MOD_socket_server_bsp//libucosii_bsp.a(tcp_out.o)
 .debug_aranges
                0x00000000000015b8       0x20 ../MOD_socket_server_bsp//libucosii_bsp.a(tcp_subr.o)
 .debug_aranges
                0x00000000000015d8       0x20 ../MOD_socket_server_bsp//libucosii_bsp.a(tcp_timr.o)
 .debug_aranges
                0x00000000000015f8       0x20 ../MOD_socket_server_bsp//libucosii_bsp.a(tcp_usr.o)
 .debug_aranges
                0x0000000000001618       0x20 ../MOD_socket_server_bsp//libucosii_bsp.a(tcpport.o)
 .debug_aranges
                0x0000000000001638       0x20 ../MOD_socket_server_bsp//libucosii_bsp.a(udpsock.o)
 .debug_aranges
                0x0000000000001658       0x20 ../MOD_socket_server_bsp//libucosii_bsp.a(alt_alarm_start.o)
 .debug_aranges
                0x0000000000001678       0x20 ../MOD_socket_server_bsp//libucosii_bsp.a(alt_busy_sleep.o)
 .debug_aranges
                0x0000000000001698       0x20 ../MOD_socket_server_bsp//libucosii_bsp.a(alt_close.o)
 .debug_aranges
                0x00000000000016b8       0x20 ../MOD_socket_server_bsp//libucosii_bsp.a(alt_dcache_flush.o)
 .debug_aranges
                0x00000000000016d8       0x20 ../MOD_socket_server_bsp//libucosii_bsp.a(alt_dev.o)
 .debug_aranges
                0x00000000000016f8       0x20 ../MOD_socket_server_bsp//libucosii_bsp.a(alt_dev_llist_insert.o)
 .debug_aranges
                0x0000000000001718       0x20 ../MOD_socket_server_bsp//libucosii_bsp.a(alt_do_ctors.o)
 .debug_aranges
                0x0000000000001738       0x20 ../MOD_socket_server_bsp//libucosii_bsp.a(alt_do_dtors.o)
 .debug_aranges
                0x0000000000001758       0x18 ../MOD_socket_server_bsp//libucosii_bsp.a(alt_errno.o)
 .debug_aranges
                0x0000000000001770       0x20 ../MOD_socket_server_bsp//libucosii_bsp.a(alt_find_dev.o)
 .debug_aranges
                0x0000000000001790       0x20 ../MOD_socket_server_bsp//libucosii_bsp.a(alt_flash_dev.o)
 .debug_aranges
                0x00000000000017b0       0x20 ../MOD_socket_server_bsp//libucosii_bsp.a(alt_iic.o)
 .debug_aranges
                0x00000000000017d0       0x20 ../MOD_socket_server_bsp//libucosii_bsp.a(alt_iic_isr_register.o)
 .debug_aranges
                0x00000000000017f0       0x20 ../MOD_socket_server_bsp//libucosii_bsp.a(alt_io_redirect.o)
 .debug_aranges
                0x0000000000001810       0x30 ../MOD_socket_server_bsp//libucosii_bsp.a(alt_irq_entry.o)
 .debug_aranges
                0x0000000000001840       0x20 ../MOD_socket_server_bsp//libucosii_bsp.a(alt_irq_handler.o)
 .debug_aranges
                0x0000000000001860       0x18 ../MOD_socket_server_bsp//libucosii_bsp.a(alt_irq_vars.o)
 .debug_aranges
                0x0000000000001878       0x20 ../MOD_socket_server_bsp//libucosii_bsp.a(alt_open.o)
 .debug_aranges
                0x0000000000001898       0x20 ../MOD_socket_server_bsp//libucosii_bsp.a(alt_printf.o)
 .debug_aranges
                0x00000000000018b8       0x20 ../MOD_socket_server_bsp//libucosii_bsp.a(alt_putchar.o)
 .debug_aranges
                0x00000000000018d8       0x20 ../MOD_socket_server_bsp//libucosii_bsp.a(alt_read.o)
 .debug_aranges
                0x00000000000018f8       0x20 ../MOD_socket_server_bsp//libucosii_bsp.a(alt_release_fd.o)
 .debug_aranges
                0x0000000000001918       0x20 ../MOD_socket_server_bsp//libucosii_bsp.a(alt_remap_cached.o)
 .debug_aranges
                0x0000000000001938       0x20 ../MOD_socket_server_bsp//libucosii_bsp.a(alt_tick.o)
 .debug_aranges
                0x0000000000001958       0x20 ../MOD_socket_server_bsp//libucosii_bsp.a(alt_uncached_free.o)
 .debug_aranges
                0x0000000000001978       0x20 ../MOD_socket_server_bsp//libucosii_bsp.a(alt_uncached_malloc.o)
 .debug_aranges
                0x0000000000001998       0x20 ../MOD_socket_server_bsp//libucosii_bsp.a(alt_usleep.o)
 .debug_aranges
                0x00000000000019b8       0x20 ../MOD_socket_server_bsp//libucosii_bsp.a(alt_write.o)
 .debug_aranges
                0x00000000000019d8       0x20 ../MOD_socket_server_bsp//libucosii_bsp.a(altera_nios2_gen2_irq.o)
 .debug_aranges
                0x00000000000019f8       0x20 ../MOD_socket_server_bsp//libucosii_bsp.a(os_cpu_a.o)
 .debug_aranges
                0x0000000000001a18       0x20 ../MOD_socket_server_bsp//libucosii_bsp.a(os_cpu_c.o)
 .debug_aranges
                0x0000000000001a38       0x20 ../MOD_socket_server_bsp//libucosii_bsp.a(allports.o)
 .debug_aranges
                0x0000000000001a58       0x20 ../MOD_socket_server_bsp//libucosii_bsp.a(timeouts.o)
 .debug_aranges
                0x0000000000001a78       0x20 ../MOD_socket_server_bsp//libucosii_bsp.a(tk_misc.o)
 .debug_aranges
                0x0000000000001a98       0x20 ../MOD_socket_server_bsp//libucosii_bsp.a(alt_iniche_fcntl.o)
 .debug_aranges
                0x0000000000001ab8       0x20 ../MOD_socket_server_bsp//libucosii_bsp.a(et_arp.o)
 .debug_aranges
                0x0000000000001ad8       0x20 ../MOD_socket_server_bsp//libucosii_bsp.a(iface.o)
 .debug_aranges
                0x0000000000001af8       0x20 ../MOD_socket_server_bsp//libucosii_bsp.a(ip.o)
 .debug_aranges
                0x0000000000001b18       0x20 ../MOD_socket_server_bsp//libucosii_bsp.a(ip_reasm.o)
 .debug_aranges
                0x0000000000001b38       0x20 ../MOD_socket_server_bsp//libucosii_bsp.a(ipdemux.o)
 .debug_aranges
                0x0000000000001b58       0x20 ../MOD_socket_server_bsp//libucosii_bsp.a(ipmc.o)
 .debug_aranges
                0x0000000000001b78       0x20 ../MOD_socket_server_bsp//libucosii_bsp.a(ipport.o)
 .debug_aranges
                0x0000000000001b98       0x20 ../MOD_socket_server_bsp//libucosii_bsp.a(ipraw.o)
 .debug_aranges
                0x0000000000001bb8       0x20 ../MOD_socket_server_bsp//libucosii_bsp.a(iproute.o)
 .debug_aranges
                0x0000000000001bd8       0x20 ../MOD_socket_server_bsp//libucosii_bsp.a(udp.o)
 .debug_aranges
                0x0000000000001bf8       0x20 ../MOD_socket_server_bsp//libucosii_bsp.a(igmp.o)
 .debug_aranges
                0x0000000000001c18       0x20 ../MOD_socket_server_bsp//libucosii_bsp.a(igmp2.o)
 .debug_aranges
                0x0000000000001c38       0x20 ../MOD_socket_server_bsp//libucosii_bsp.a(ipopt.o)
 .debug_aranges
                0x0000000000001c58       0x20 ../MOD_socket_server_bsp//libucosii_bsp.a(u_mctest.o)
 .debug_aranges
                0x0000000000001c78       0x20 ../MOD_socket_server_bsp//libucosii_bsp.a(dhcsetup.o)
 .debug_aranges
                0x0000000000001c98       0x20 ../MOD_socket_server_bsp//libucosii_bsp.a(memdev.o)
 .debug_aranges
                0x0000000000001cb8       0x20 ../MOD_socket_server_bsp//libucosii_bsp.a(parseip.o)
 .debug_aranges
                0x0000000000001cd8       0x20 ../MOD_socket_server_bsp//libucosii_bsp.a(tcpcksum.o)
 .debug_aranges
                0x0000000000001cf8       0x20 ../MOD_socket_server_bsp//libucosii_bsp.a(in_pcb.o)
 .debug_aranges
                0x0000000000001d18       0x20 ../MOD_socket_server_bsp//libucosii_bsp.a(vfsfiles.o)
 .debug_aranges
                0x0000000000001d38       0x20 ../MOD_socket_server_bsp//libucosii_bsp.a(vfsport.o)
 .debug_aranges
                0x0000000000001d58       0x38 ../MOD_socket_server_bsp//libucosii_bsp.a(alt_exception_entry.o)
 .debug_aranges
                0x0000000000001d90       0x20 ../MOD_socket_server_bsp//libucosii_bsp.a(alt_fcntl.o)
 .debug_aranges
                0x0000000000001db0       0x20 ../MOD_socket_server_bsp//libucosii_bsp.a(alt_find_file.o)
 .debug_aranges
                0x0000000000001dd0       0x20 ../MOD_socket_server_bsp//libucosii_bsp.a(alt_get_fd.o)
 .debug_aranges
                0x0000000000001df0       0x28 ../MOD_socket_server_bsp//libucosii_bsp.a(alt_instruction_exception_entry.o)
 .debug_aranges
                0x0000000000001e18       0x20 ../MOD_socket_server_bsp//libucosii_bsp.a(icmp.o)
 .debug_aranges
                0x0000000000001e38       0x20 /home/tom/intelFPGA_lite/20.1/nios2eds/bin/gnu/H-x86_64-pc-linux-gnu/bin/../lib/gcc/nios2-elf/9.2.1/../../../../../H-x86_64-pc-linux-gnu/nios2-elf/lib/libc.a(lib_a-atexit.o)
 .debug_aranges
                0x0000000000001e58       0x28 /home/tom/intelFPGA_lite/20.1/nios2eds/bin/gnu/H-x86_64-pc-linux-gnu/bin/../lib/gcc/nios2-elf/9.2.1/../../../../../H-x86_64-pc-linux-gnu/nios2-elf/lib/libc.a(lib_a-atoi.o)
 .debug_aranges
                0x0000000000001e80       0x20 /home/tom/intelFPGA_lite/20.1/nios2eds/bin/gnu/H-x86_64-pc-linux-gnu/bin/../lib/gcc/nios2-elf/9.2.1/../../../../../H-x86_64-pc-linux-gnu/nios2-elf/lib/libc.a(lib_a-exit.o)
 .debug_aranges
                0x0000000000001ea0       0x28 /home/tom/intelFPGA_lite/20.1/nios2eds/bin/gnu/H-x86_64-pc-linux-gnu/bin/../lib/gcc/nios2-elf/9.2.1/../../../../../H-x86_64-pc-linux-gnu/nios2-elf/lib/libc.a(lib_a-malloc.o)
 .debug_aranges
                0x0000000000001ec8       0x20 /home/tom/intelFPGA_lite/20.1/nios2eds/bin/gnu/H-x86_64-pc-linux-gnu/bin/../lib/gcc/nios2-elf/9.2.1/../../../../../H-x86_64-pc-linux-gnu/nios2-elf/lib/libc.a(lib_a-strchr.o)
 .debug_aranges
                0x0000000000001ee8       0x20 /home/tom/intelFPGA_lite/20.1/nios2eds/bin/gnu/H-x86_64-pc-linux-gnu/bin/../lib/gcc/nios2-elf/9.2.1/../../../../../H-x86_64-pc-linux-gnu/nios2-elf/lib/libc.a(lib_a-strncmp.o)
 .debug_aranges
                0x0000000000001f08       0x20 /home/tom/intelFPGA_lite/20.1/nios2eds/bin/gnu/H-x86_64-pc-linux-gnu/bin/../lib/gcc/nios2-elf/9.2.1/../../../../../H-x86_64-pc-linux-gnu/nios2-elf/lib/libc.a(lib_a-strncpy.o)
 .debug_aranges
                0x0000000000001f28       0x38 /home/tom/intelFPGA_lite/20.1/nios2eds/bin/gnu/H-x86_64-pc-linux-gnu/bin/../lib/gcc/nios2-elf/9.2.1/../../../../../H-x86_64-pc-linux-gnu/nios2-elf/lib/libc.a(lib_a-strtol.o)
 .debug_aranges
                0x0000000000001f60       0x28 /home/tom/intelFPGA_lite/20.1/nios2eds/bin/gnu/H-x86_64-pc-linux-gnu/bin/../lib/gcc/nios2-elf/9.2.1/../../../../../H-x86_64-pc-linux-gnu/nios2-elf/lib/libc.a(lib_a-vprintf.o)
 .debug_aranges
                0x0000000000001f88       0x28 /home/tom/intelFPGA_lite/20.1/nios2eds/bin/gnu/H-x86_64-pc-linux-gnu/bin/../lib/gcc/nios2-elf/9.2.1/../../../../../H-x86_64-pc-linux-gnu/nios2-elf/lib/libc.a(lib_a-vsprintf.o)
 .debug_aranges
                0x0000000000001fb0       0x20 /home/tom/intelFPGA_lite/20.1/nios2eds/bin/gnu/H-x86_64-pc-linux-gnu/bin/../lib/gcc/nios2-elf/9.2.1/../../../../../H-x86_64-pc-linux-gnu/nios2-elf/lib/libc.a(lib_a-__atexit.o)
 .debug_aranges
                0x0000000000001fd0       0x20 /home/tom/intelFPGA_lite/20.1/nios2eds/bin/gnu/H-x86_64-pc-linux-gnu/bin/../lib/gcc/nios2-elf/9.2.1/../../../../../H-x86_64-pc-linux-gnu/nios2-elf/lib/libc.a(lib_a-__call_atexit.o)
 .debug_aranges
                0x0000000000001ff0       0x20 /home/tom/intelFPGA_lite/20.1/nios2eds/bin/gnu/H-x86_64-pc-linux-gnu/bin/../lib/gcc/nios2-elf/9.2.1/../../../../../H-x86_64-pc-linux-gnu/nios2-elf/lib/libc.a(lib_a-vfprintfr_1.o)

.debug_pubnames
 *(.debug_pubnames)

.debug_info     0x0000000000000000   0x1231ba
 *(.debug_info .gnu.linkonce.wi.*)
 .debug_info    0x0000000000000000       0x26 ../MOD_socket_server_bsp//obj/HAL/src/crt0.o
 .debug_info    0x0000000000000026     0x11cc obj/default/ClockModInit.o
 .debug_info    0x00000000000011f2     0x2f8c obj/default/DELHProtocol.o
 .debug_info    0x000000000000417e     0x26a9 obj/default/InitializePeriph.o
 .debug_info    0x0000000000006827     0x11e1 obj/default/alt_error_handler.o
 .debug_info    0x0000000000007a08     0x23e4 obj/default/iniche_init.o
 .debug_info    0x0000000000009dec     0x1189 obj/default/led.o
 .debug_info    0x000000000000af75     0x22fa obj/default/network_utilities.o
 .debug_info    0x000000000000d26f     0x2366 obj/default/simple_socket_server.o
 .debug_info    0x000000000000f5d5     0x19e4 obj/default/tse_my_system.o
 .debug_info    0x0000000000010fb9      0xeb7 /home/tom/intelFPGA_lite/20.1/nios2eds/bin/gnu/H-x86_64-pc-linux-gnu/bin/../lib/gcc/nios2-elf/9.2.1/../../../../../H-x86_64-pc-linux-gnu/nios2-elf/lib/libc.a(lib_a-ctype_.o)
 .debug_info    0x0000000000011e70      0xc73 /home/tom/intelFPGA_lite/20.1/nios2eds/bin/gnu/H-x86_64-pc-linux-gnu/bin/../lib/gcc/nios2-elf/9.2.1/../../../../../H-x86_64-pc-linux-gnu/nios2-elf/lib/libc.a(lib_a-fprintf.o)
 .debug_info    0x0000000000012ae3      0xd30 /home/tom/intelFPGA_lite/20.1/nios2eds/bin/gnu/H-x86_64-pc-linux-gnu/bin/../lib/gcc/nios2-elf/9.2.1/../../../../../H-x86_64-pc-linux-gnu/nios2-elf/lib/libc.a(lib_a-fwrite.o)
 .debug_info    0x0000000000013813      0xb8e /home/tom/intelFPGA_lite/20.1/nios2eds/bin/gnu/H-x86_64-pc-linux-gnu/bin/../lib/gcc/nios2-elf/9.2.1/../../../../../H-x86_64-pc-linux-gnu/nios2-elf/lib/libc.a(lib_a-getchar.o)
 .debug_info    0x00000000000143a1      0x936 /home/tom/intelFPGA_lite/20.1/nios2eds/bin/gnu/H-x86_64-pc-linux-gnu/bin/../lib/gcc/nios2-elf/9.2.1/../../../../../H-x86_64-pc-linux-gnu/nios2-elf/lib/libc.a(lib_a-impure.o)
 .debug_info    0x0000000000014cd7      0x9ce /home/tom/intelFPGA_lite/20.1/nios2eds/bin/gnu/H-x86_64-pc-linux-gnu/bin/../lib/gcc/nios2-elf/9.2.1/../../../../../H-x86_64-pc-linux-gnu/nios2-elf/lib/libc.a(lib_a-memcmp.o)
 .debug_info    0x00000000000156a5      0xf47 /home/tom/intelFPGA_lite/20.1/nios2eds/bin/gnu/H-x86_64-pc-linux-gnu/bin/../lib/gcc/nios2-elf/9.2.1/../../../../../H-x86_64-pc-linux-gnu/nios2-elf/lib/libc.a(lib_a-memcpy.o)
 .debug_info    0x00000000000165ec      0xf2d /home/tom/intelFPGA_lite/20.1/nios2eds/bin/gnu/H-x86_64-pc-linux-gnu/bin/../lib/gcc/nios2-elf/9.2.1/../../../../../H-x86_64-pc-linux-gnu/nios2-elf/lib/libc.a(lib_a-memset.o)
 .debug_info    0x0000000000017519      0xebb /home/tom/intelFPGA_lite/20.1/nios2eds/bin/gnu/H-x86_64-pc-linux-gnu/bin/../lib/gcc/nios2-elf/9.2.1/../../../../../H-x86_64-pc-linux-gnu/nios2-elf/lib/libc.a(lib_a-perror.o)
 .debug_info    0x00000000000183d4      0xc47 /home/tom/intelFPGA_lite/20.1/nios2eds/bin/gnu/H-x86_64-pc-linux-gnu/bin/../lib/gcc/nios2-elf/9.2.1/../../../../../H-x86_64-pc-linux-gnu/nios2-elf/lib/libc.a(lib_a-printf.o)
 .debug_info    0x000000000001901b      0xbc2 /home/tom/intelFPGA_lite/20.1/nios2eds/bin/gnu/H-x86_64-pc-linux-gnu/bin/../lib/gcc/nios2-elf/9.2.1/../../../../../H-x86_64-pc-linux-gnu/nios2-elf/lib/libc.a(lib_a-putchar.o)
 .debug_info    0x0000000000019bdd      0xced /home/tom/intelFPGA_lite/20.1/nios2eds/bin/gnu/H-x86_64-pc-linux-gnu/bin/../lib/gcc/nios2-elf/9.2.1/../../../../../H-x86_64-pc-linux-gnu/nios2-elf/lib/libc.a(lib_a-puts.o)
 .debug_info    0x000000000001a8ca      0xcc3 /home/tom/intelFPGA_lite/20.1/nios2eds/bin/gnu/H-x86_64-pc-linux-gnu/bin/../lib/gcc/nios2-elf/9.2.1/../../../../../H-x86_64-pc-linux-gnu/nios2-elf/lib/libc.a(lib_a-sprintf.o)
 .debug_info    0x000000000001b58d      0x9ba /home/tom/intelFPGA_lite/20.1/nios2eds/bin/gnu/H-x86_64-pc-linux-gnu/bin/../lib/gcc/nios2-elf/9.2.1/../../../../../H-x86_64-pc-linux-gnu/nios2-elf/lib/libc.a(lib_a-strcpy.o)
 .debug_info    0x000000000001bf47      0xac3 /home/tom/intelFPGA_lite/20.1/nios2eds/bin/gnu/H-x86_64-pc-linux-gnu/bin/../lib/gcc/nios2-elf/9.2.1/../../../../../H-x86_64-pc-linux-gnu/nios2-elf/lib/libc.a(lib_a-strerror.o)
 .debug_info    0x000000000001ca0a      0x97f /home/tom/intelFPGA_lite/20.1/nios2eds/bin/gnu/H-x86_64-pc-linux-gnu/bin/../lib/gcc/nios2-elf/9.2.1/../../../../../H-x86_64-pc-linux-gnu/nios2-elf/lib/libc.a(lib_a-strlen.o)
 .debug_info    0x000000000001d389      0x9a2 /home/tom/intelFPGA_lite/20.1/nios2eds/bin/gnu/H-x86_64-pc-linux-gnu/bin/../lib/gcc/nios2-elf/9.2.1/../../../../../H-x86_64-pc-linux-gnu/nios2-elf/lib/libc.a(lib_a-strtok.o)
 .debug_info    0x000000000001dd2b      0xa4a /home/tom/intelFPGA_lite/20.1/nios2eds/bin/gnu/H-x86_64-pc-linux-gnu/bin/../lib/gcc/nios2-elf/9.2.1/../../../../../H-x86_64-pc-linux-gnu/nios2-elf/lib/libc.a(lib_a-strtok_r.o)
 .debug_info    0x000000000001e775     0x11fa /home/tom/intelFPGA_lite/20.1/nios2eds/bin/gnu/H-x86_64-pc-linux-gnu/bin/../lib/gcc/nios2-elf/9.2.1/../../../../../H-x86_64-pc-linux-gnu/nios2-elf/lib/libc.a(lib_a-strtoul.o)
 .debug_info    0x000000000001f96f     0x1e34 /home/tom/intelFPGA_lite/20.1/nios2eds/bin/gnu/H-x86_64-pc-linux-gnu/bin/../lib/gcc/nios2-elf/9.2.1/../../../../../H-x86_64-pc-linux-gnu/nios2-elf/lib/libc.a(lib_a-svfprintf.o)
 .debug_info    0x00000000000217a3       0x85 /home/tom/intelFPGA_lite/20.1/nios2eds/bin/gnu/H-x86_64-pc-linux-gnu/bin/../lib/gcc/nios2-elf/9.2.1/../../../../../H-x86_64-pc-linux-gnu/nios2-elf/lib/libc.a(lib_a-u_strerr.o)
 .debug_info    0x0000000000021828     0x201c /home/tom/intelFPGA_lite/20.1/nios2eds/bin/gnu/H-x86_64-pc-linux-gnu/bin/../lib/gcc/nios2-elf/9.2.1/../../../../../H-x86_64-pc-linux-gnu/nios2-elf/lib/libc.a(lib_a-vfprintf.o)
 .debug_info    0x0000000000023844      0xa38 /home/tom/intelFPGA_lite/20.1/nios2eds/bin/gnu/H-x86_64-pc-linux-gnu/bin/../lib/gcc/nios2-elf/9.2.1/../../../../../H-x86_64-pc-linux-gnu/nios2-elf/lib/libc.a(lib_a-writer.o)
 .debug_info    0x000000000002427c      0xbff /home/tom/intelFPGA_lite/20.1/nios2eds/bin/gnu/H-x86_64-pc-linux-gnu/bin/../lib/gcc/nios2-elf/9.2.1/../../../../../H-x86_64-pc-linux-gnu/nios2-elf/lib/libc.a(lib_a-wsetup.o)
 .debug_info    0x0000000000024e7b     0x1ac5 /home/tom/intelFPGA_lite/20.1/nios2eds/bin/gnu/H-x86_64-pc-linux-gnu/bin/../lib/gcc/nios2-elf/9.2.1/../../../../../H-x86_64-pc-linux-gnu/nios2-elf/lib/libc.a(lib_a-dtoa.o)
 .debug_info    0x0000000000026940      0xd81 /home/tom/intelFPGA_lite/20.1/nios2eds/bin/gnu/H-x86_64-pc-linux-gnu/bin/../lib/gcc/nios2-elf/9.2.1/../../../../../H-x86_64-pc-linux-gnu/nios2-elf/lib/libc.a(lib_a-fflush.o)
 .debug_info    0x00000000000276c1      0xbb8 /home/tom/intelFPGA_lite/20.1/nios2eds/bin/gnu/H-x86_64-pc-linux-gnu/bin/../lib/gcc/nios2-elf/9.2.1/../../../../../H-x86_64-pc-linux-gnu/nios2-elf/lib/libc.a(lib_a-fileno.o)
 .debug_info    0x0000000000028279     0x10c6 /home/tom/intelFPGA_lite/20.1/nios2eds/bin/gnu/H-x86_64-pc-linux-gnu/bin/../lib/gcc/nios2-elf/9.2.1/../../../../../H-x86_64-pc-linux-gnu/nios2-elf/lib/libc.a(lib_a-findfp.o)
 .debug_info    0x000000000002933f      0xda6 /home/tom/intelFPGA_lite/20.1/nios2eds/bin/gnu/H-x86_64-pc-linux-gnu/bin/../lib/gcc/nios2-elf/9.2.1/../../../../../H-x86_64-pc-linux-gnu/nios2-elf/lib/libc.a(lib_a-freer.o)
 .debug_info    0x000000000002a0e5      0xed1 /home/tom/intelFPGA_lite/20.1/nios2eds/bin/gnu/H-x86_64-pc-linux-gnu/bin/../lib/gcc/nios2-elf/9.2.1/../../../../../H-x86_64-pc-linux-gnu/nios2-elf/lib/libc.a(lib_a-fvwrite.o)
 .debug_info    0x000000000002afb6      0xcb0 /home/tom/intelFPGA_lite/20.1/nios2eds/bin/gnu/H-x86_64-pc-linux-gnu/bin/../lib/gcc/nios2-elf/9.2.1/../../../../../H-x86_64-pc-linux-gnu/nios2-elf/lib/libc.a(lib_a-fwalk.o)
 .debug_info    0x000000000002bc66      0xc57 /home/tom/intelFPGA_lite/20.1/nios2eds/bin/gnu/H-x86_64-pc-linux-gnu/bin/../lib/gcc/nios2-elf/9.2.1/../../../../../H-x86_64-pc-linux-gnu/nios2-elf/lib/libc.a(lib_a-getc.o)
 .debug_info    0x000000000002c8bd      0x92c /home/tom/intelFPGA_lite/20.1/nios2eds/bin/gnu/H-x86_64-pc-linux-gnu/bin/../lib/gcc/nios2-elf/9.2.1/../../../../../H-x86_64-pc-linux-gnu/nios2-elf/lib/libc.a(lib_a-int_errno.o)
 .debug_info    0x000000000002d1e9      0xf49 /home/tom/intelFPGA_lite/20.1/nios2eds/bin/gnu/H-x86_64-pc-linux-gnu/bin/../lib/gcc/nios2-elf/9.2.1/../../../../../H-x86_64-pc-linux-gnu/nios2-elf/lib/libc.a(lib_a-localeconv.o)
 .debug_info    0x000000000002e132      0xf81 /home/tom/intelFPGA_lite/20.1/nios2eds/bin/gnu/H-x86_64-pc-linux-gnu/bin/../lib/gcc/nios2-elf/9.2.1/../../../../../H-x86_64-pc-linux-gnu/nios2-elf/lib/libc.a(lib_a-makebuf.o)
 .debug_info    0x000000000002f0b3      0xf39 /home/tom/intelFPGA_lite/20.1/nios2eds/bin/gnu/H-x86_64-pc-linux-gnu/bin/../lib/gcc/nios2-elf/9.2.1/../../../../../H-x86_64-pc-linux-gnu/nios2-elf/lib/libc.a(lib_a-mallocr.o)
 .debug_info    0x000000000002ffec      0x9ef /home/tom/intelFPGA_lite/20.1/nios2eds/bin/gnu/H-x86_64-pc-linux-gnu/bin/../lib/gcc/nios2-elf/9.2.1/../../../../../H-x86_64-pc-linux-gnu/nios2-elf/lib/libc.a(lib_a-memchr.o)
 .debug_info    0x00000000000309db      0xf3d /home/tom/intelFPGA_lite/20.1/nios2eds/bin/gnu/H-x86_64-pc-linux-gnu/bin/../lib/gcc/nios2-elf/9.2.1/../../../../../H-x86_64-pc-linux-gnu/nios2-elf/lib/libc.a(lib_a-memmove.o)
 .debug_info    0x0000000000031918     0x22a2 /home/tom/intelFPGA_lite/20.1/nios2eds/bin/gnu/H-x86_64-pc-linux-gnu/bin/../lib/gcc/nios2-elf/9.2.1/../../../../../H-x86_64-pc-linux-gnu/nios2-elf/lib/libc.a(lib_a-mprec.o)
 .debug_info    0x0000000000033bba      0xc74 /home/tom/intelFPGA_lite/20.1/nios2eds/bin/gnu/H-x86_64-pc-linux-gnu/bin/../lib/gcc/nios2-elf/9.2.1/../../../../../H-x86_64-pc-linux-gnu/nios2-elf/lib/libc.a(lib_a-putc.o)
 .debug_info    0x000000000003482e      0xf15 /home/tom/intelFPGA_lite/20.1/nios2eds/bin/gnu/H-x86_64-pc-linux-gnu/bin/../lib/gcc/nios2-elf/9.2.1/../../../../../H-x86_64-pc-linux-gnu/nios2-elf/lib/libc.a(lib_a-reallocr.o)
 .debug_info    0x0000000000035743      0xc1e /home/tom/intelFPGA_lite/20.1/nios2eds/bin/gnu/H-x86_64-pc-linux-gnu/bin/../lib/gcc/nios2-elf/9.2.1/../../../../../H-x86_64-pc-linux-gnu/nios2-elf/lib/libc.a(lib_a-rget.o)
 .debug_info    0x0000000000036361      0xa06 /home/tom/intelFPGA_lite/20.1/nios2eds/bin/gnu/H-x86_64-pc-linux-gnu/bin/../lib/gcc/nios2-elf/9.2.1/../../../../../H-x86_64-pc-linux-gnu/nios2-elf/lib/libc.a(lib_a-sbrkr.o)
 .debug_info    0x0000000000036d67      0xe6d /home/tom/intelFPGA_lite/20.1/nios2eds/bin/gnu/H-x86_64-pc-linux-gnu/bin/../lib/gcc/nios2-elf/9.2.1/../../../../../H-x86_64-pc-linux-gnu/nios2-elf/lib/libc.a(lib_a-stdio.o)
 .debug_info    0x0000000000037bd4     0x18d1 /home/tom/intelFPGA_lite/20.1/nios2eds/bin/gnu/H-x86_64-pc-linux-gnu/bin/../lib/gcc/nios2-elf/9.2.1/../../../../../H-x86_64-pc-linux-gnu/nios2-elf/lib/libc.a(lib_a-svfiprintf.o)
 .debug_info    0x00000000000394a5     0x1f60 /home/tom/intelFPGA_lite/20.1/nios2eds/bin/gnu/H-x86_64-pc-linux-gnu/bin/../lib/gcc/nios2-elf/9.2.1/../../../../../H-x86_64-pc-linux-gnu/nios2-elf/lib/libc.a(lib_a-vfiprintf.o)
 .debug_info    0x000000000003b405      0xc9c /home/tom/intelFPGA_lite/20.1/nios2eds/bin/gnu/H-x86_64-pc-linux-gnu/bin/../lib/gcc/nios2-elf/9.2.1/../../../../../H-x86_64-pc-linux-gnu/nios2-elf/lib/libc.a(lib_a-wbuf.o)
 .debug_info    0x000000000003c0a1      0x9e3 /home/tom/intelFPGA_lite/20.1/nios2eds/bin/gnu/H-x86_64-pc-linux-gnu/bin/../lib/gcc/nios2-elf/9.2.1/../../../../../H-x86_64-pc-linux-gnu/nios2-elf/lib/libc.a(closer.o)
 .debug_info    0x000000000003ca84      0xa41 /home/tom/intelFPGA_lite/20.1/nios2eds/bin/gnu/H-x86_64-pc-linux-gnu/bin/../lib/gcc/nios2-elf/9.2.1/../../../../../H-x86_64-pc-linux-gnu/nios2-elf/lib/libc.a(lib_a-assert.o)
 .debug_info    0x000000000003d4c5      0xc39 /home/tom/intelFPGA_lite/20.1/nios2eds/bin/gnu/H-x86_64-pc-linux-gnu/bin/../lib/gcc/nios2-elf/9.2.1/../../../../../H-x86_64-pc-linux-gnu/nios2-elf/lib/libc.a(lib_a-callocr.o)
 .debug_info    0x000000000003e0fe      0xce5 /home/tom/intelFPGA_lite/20.1/nios2eds/bin/gnu/H-x86_64-pc-linux-gnu/bin/../lib/gcc/nios2-elf/9.2.1/../../../../../H-x86_64-pc-linux-gnu/nios2-elf/lib/libc.a(lib_a-fclose.o)
 .debug_info    0x000000000003ede3      0xa80 /home/tom/intelFPGA_lite/20.1/nios2eds/bin/gnu/H-x86_64-pc-linux-gnu/bin/../lib/gcc/nios2-elf/9.2.1/../../../../../H-x86_64-pc-linux-gnu/nios2-elf/lib/libc.a(lib_a-fiprintf.o)
 .debug_info    0x000000000003f863      0xde7 /home/tom/intelFPGA_lite/20.1/nios2eds/bin/gnu/H-x86_64-pc-linux-gnu/bin/../lib/gcc/nios2-elf/9.2.1/../../../../../H-x86_64-pc-linux-gnu/nios2-elf/lib/libc.a(lib_a-fputwc.o)
 .debug_info    0x000000000004064a      0xc30 /home/tom/intelFPGA_lite/20.1/nios2eds/bin/gnu/H-x86_64-pc-linux-gnu/bin/../lib/gcc/nios2-elf/9.2.1/../../../../../H-x86_64-pc-linux-gnu/nios2-elf/lib/libc.a(lib_a-fstatr.o)
 .debug_info    0x000000000004127a      0x9e3 /home/tom/intelFPGA_lite/20.1/nios2eds/bin/gnu/H-x86_64-pc-linux-gnu/bin/../lib/gcc/nios2-elf/9.2.1/../../../../../H-x86_64-pc-linux-gnu/nios2-elf/lib/libc.a(lib_a-isattyr.o)
 .debug_info    0x0000000000041c5d     0x10aa /home/tom/intelFPGA_lite/20.1/nios2eds/bin/gnu/H-x86_64-pc-linux-gnu/bin/../lib/gcc/nios2-elf/9.2.1/../../../../../H-x86_64-pc-linux-gnu/nios2-elf/lib/libc.a(lib_a-locale.o)
 .debug_info    0x0000000000042d07      0xa19 /home/tom/intelFPGA_lite/20.1/nios2eds/bin/gnu/H-x86_64-pc-linux-gnu/bin/../lib/gcc/nios2-elf/9.2.1/../../../../../H-x86_64-pc-linux-gnu/nios2-elf/lib/libc.a(lib_a-lseekr.o)
 .debug_info    0x0000000000043720     0x1041 /home/tom/intelFPGA_lite/20.1/nios2eds/bin/gnu/H-x86_64-pc-linux-gnu/bin/../lib/gcc/nios2-elf/9.2.1/../../../../../H-x86_64-pc-linux-gnu/nios2-elf/lib/libc.a(lib_a-mbtowc_r.o)
 .debug_info    0x0000000000044761      0xa31 /home/tom/intelFPGA_lite/20.1/nios2eds/bin/gnu/H-x86_64-pc-linux-gnu/bin/../lib/gcc/nios2-elf/9.2.1/../../../../../H-x86_64-pc-linux-gnu/nios2-elf/lib/libc.a(lib_a-readr.o)
 .debug_info    0x0000000000045192      0xce0 /home/tom/intelFPGA_lite/20.1/nios2eds/bin/gnu/H-x86_64-pc-linux-gnu/bin/../lib/gcc/nios2-elf/9.2.1/../../../../../H-x86_64-pc-linux-gnu/nios2-elf/lib/libc.a(lib_a-refill.o)
 .debug_info    0x0000000000045e72      0x983 /home/tom/intelFPGA_lite/20.1/nios2eds/bin/gnu/H-x86_64-pc-linux-gnu/bin/../lib/gcc/nios2-elf/9.2.1/../../../../../H-x86_64-pc-linux-gnu/nios2-elf/lib/libc.a(lib_a-strcmp.o)
 .debug_info    0x00000000000467f5      0xbf2 /home/tom/intelFPGA_lite/20.1/nios2eds/bin/gnu/H-x86_64-pc-linux-gnu/bin/../lib/gcc/nios2-elf/9.2.1/../../../../../H-x86_64-pc-linux-gnu/nios2-elf/lib/libc.a(lib_a-vfiprintfr_1.o)
 .debug_info    0x00000000000473e7     0x10b5 /home/tom/intelFPGA_lite/20.1/nios2eds/bin/gnu/H-x86_64-pc-linux-gnu/bin/../lib/gcc/nios2-elf/9.2.1/../../../../../H-x86_64-pc-linux-gnu/nios2-elf/lib/libc.a(lib_a-wcrtomb.o)
 .debug_info    0x000000000004849c      0xffd /home/tom/intelFPGA_lite/20.1/nios2eds/bin/gnu/H-x86_64-pc-linux-gnu/bin/../lib/gcc/nios2-elf/9.2.1/../../../../../H-x86_64-pc-linux-gnu/nios2-elf/lib/libc.a(lib_a-wctomb_r.o)
 .debug_info    0x0000000000049499      0x9c1 /home/tom/intelFPGA_lite/20.1/nios2eds/bin/gnu/H-x86_64-pc-linux-gnu/bin/../lib/gcc/nios2-elf/9.2.1/../../../../../H-x86_64-pc-linux-gnu/nios2-elf/lib/libc.a(lib_a-abort.o)
 .debug_info    0x0000000000049e5a      0xd45 /home/tom/intelFPGA_lite/20.1/nios2eds/bin/gnu/H-x86_64-pc-linux-gnu/bin/../lib/gcc/nios2-elf/9.2.1/../../../../../H-x86_64-pc-linux-gnu/nios2-elf/lib/libc.a(lib_a-signal.o)
 .debug_info    0x000000000004ab9f      0xa4f /home/tom/intelFPGA_lite/20.1/nios2eds/bin/gnu/H-x86_64-pc-linux-gnu/bin/../lib/gcc/nios2-elf/9.2.1/../../../../../H-x86_64-pc-linux-gnu/nios2-elf/lib/libc.a(lib_a-signalr.o)
 .debug_info    0x000000000004b5ee      0x91e /home/tom/intelFPGA_lite/20.1/nios2eds/bin/gnu/H-x86_64-pc-linux-gnu/bin/../lib/gcc/nios2-elf/9.2.1/libgcc.a(_udivdi3.o)
 .debug_info    0x000000000004bf0c      0x996 /home/tom/intelFPGA_lite/20.1/nios2eds/bin/gnu/H-x86_64-pc-linux-gnu/bin/../lib/gcc/nios2-elf/9.2.1/libgcc.a(_umoddi3.o)
 .debug_info    0x000000000004c8a2      0x368 /home/tom/intelFPGA_lite/20.1/nios2eds/bin/gnu/H-x86_64-pc-linux-gnu/bin/../lib/gcc/nios2-elf/9.2.1/libgcc.a(lib2-divmod.o)
 .debug_info    0x000000000004cc0a      0x640 /home/tom/intelFPGA_lite/20.1/nios2eds/bin/gnu/H-x86_64-pc-linux-gnu/bin/../lib/gcc/nios2-elf/9.2.1/libgcc.a(adddf3.o)
 .debug_info    0x000000000004d24a      0x82f /home/tom/intelFPGA_lite/20.1/nios2eds/bin/gnu/H-x86_64-pc-linux-gnu/bin/../lib/gcc/nios2-elf/9.2.1/libgcc.a(divdf3.o)
 .debug_info    0x000000000004da79      0x2a6 /home/tom/intelFPGA_lite/20.1/nios2eds/bin/gnu/H-x86_64-pc-linux-gnu/bin/../lib/gcc/nios2-elf/9.2.1/libgcc.a(eqdf2.o)
 .debug_info    0x000000000004dd1f      0x2a7 /home/tom/intelFPGA_lite/20.1/nios2eds/bin/gnu/H-x86_64-pc-linux-gnu/bin/../lib/gcc/nios2-elf/9.2.1/libgcc.a(gedf2.o)
 .debug_info    0x000000000004dfc6      0x2a7 /home/tom/intelFPGA_lite/20.1/nios2eds/bin/gnu/H-x86_64-pc-linux-gnu/bin/../lib/gcc/nios2-elf/9.2.1/libgcc.a(ledf2.o)
 .debug_info    0x000000000004e26d      0x847 /home/tom/intelFPGA_lite/20.1/nios2eds/bin/gnu/H-x86_64-pc-linux-gnu/bin/../lib/gcc/nios2-elf/9.2.1/libgcc.a(muldf3.o)
 .debug_info    0x000000000004eab4      0x640 /home/tom/intelFPGA_lite/20.1/nios2eds/bin/gnu/H-x86_64-pc-linux-gnu/bin/../lib/gcc/nios2-elf/9.2.1/libgcc.a(subdf3.o)
 .debug_info    0x000000000004f0f4      0x27e /home/tom/intelFPGA_lite/20.1/nios2eds/bin/gnu/H-x86_64-pc-linux-gnu/bin/../lib/gcc/nios2-elf/9.2.1/libgcc.a(unorddf2.o)
 .debug_info    0x000000000004f372      0x22a /home/tom/intelFPGA_lite/20.1/nios2eds/bin/gnu/H-x86_64-pc-linux-gnu/bin/../lib/gcc/nios2-elf/9.2.1/libgcc.a(fixdfsi.o)
 .debug_info    0x000000000004f59c      0x2e4 /home/tom/intelFPGA_lite/20.1/nios2eds/bin/gnu/H-x86_64-pc-linux-gnu/bin/../lib/gcc/nios2-elf/9.2.1/libgcc.a(floatsidf.o)
 .debug_info    0x000000000004f880      0x2d7 /home/tom/intelFPGA_lite/20.1/nios2eds/bin/gnu/H-x86_64-pc-linux-gnu/bin/../lib/gcc/nios2-elf/9.2.1/libgcc.a(floatunsidf.o)
 .debug_info    0x000000000004fb57      0x179 /home/tom/intelFPGA_lite/20.1/nios2eds/bin/gnu/H-x86_64-pc-linux-gnu/bin/../lib/gcc/nios2-elf/9.2.1/libgcc.a(_clz.o)
 .debug_info    0x000000000004fcd0      0x1ea /home/tom/intelFPGA_lite/20.1/nios2eds/bin/gnu/H-x86_64-pc-linux-gnu/bin/../lib/gcc/nios2-elf/9.2.1/libgcc.a(_clzsi2.o)
 .debug_info    0x000000000004feba     0x1163 ../MOD_socket_server_bsp//libucosii_bsp.a(alt_exit.o)
 .debug_info    0x000000000005101d     0x15ab ../MOD_socket_server_bsp//libucosii_bsp.a(alt_fstat.o)
 .debug_info    0x00000000000525c8       0x43 ../MOD_socket_server_bsp//libucosii_bsp.a(alt_getpid.o)
 .debug_info    0x000000000005260b     0x15ae ../MOD_socket_server_bsp//libucosii_bsp.a(alt_isatty.o)
 .debug_info    0x0000000000053bb9      0xa18 ../MOD_socket_server_bsp//libucosii_bsp.a(alt_kill.o)
 .debug_info    0x00000000000545d1     0x1408 ../MOD_socket_server_bsp//libucosii_bsp.a(alt_lseek.o)
 .debug_info    0x00000000000559d9     0x163b ../MOD_socket_server_bsp//libucosii_bsp.a(alt_main.o)
 .debug_info    0x0000000000057014      0xa6b ../MOD_socket_server_bsp//libucosii_bsp.a(alt_sbrk.o)
 .debug_info    0x0000000000057a7f     0x11e5 ../MOD_socket_server_bsp//libucosii_bsp.a(alt_env_lock.o)
 .debug_info    0x0000000000058c64     0x130a ../MOD_socket_server_bsp//libucosii_bsp.a(alt_malloc_lock.o)
 .debug_info    0x0000000000059f6e     0x1f4a ../MOD_socket_server_bsp//libucosii_bsp.a(os_core.o)
 .debug_info    0x000000000005beb8     0x1478 ../MOD_socket_server_bsp//libucosii_bsp.a(os_dbg.o)
 .debug_info    0x000000000005d330     0x1bd1 ../MOD_socket_server_bsp//libucosii_bsp.a(os_flag.o)
 .debug_info    0x000000000005ef01     0x155a ../MOD_socket_server_bsp//libucosii_bsp.a(os_mem.o)
 .debug_info    0x000000000006045b     0x1993 ../MOD_socket_server_bsp//libucosii_bsp.a(os_q.o)
 .debug_info    0x0000000000061dee     0x169c ../MOD_socket_server_bsp//libucosii_bsp.a(os_sem.o)
 .debug_info    0x000000000006348a     0x1d68 ../MOD_socket_server_bsp//libucosii_bsp.a(os_task.o)
 .debug_info    0x00000000000651f2     0x136b ../MOD_socket_server_bsp//libucosii_bsp.a(os_time.o)
 .debug_info    0x000000000006655d     0x2c71 ../MOD_socket_server_bsp//libucosii_bsp.a(alt_sys_init.o)
 .debug_info    0x00000000000691ce      0xd64 ../MOD_socket_server_bsp//libucosii_bsp.a(altera_avalon_fifo_util.o)
 .debug_info    0x0000000000069f32     0x21fb ../MOD_socket_server_bsp//libucosii_bsp.a(altera_avalon_i2c.o)
 .debug_info    0x000000000006c12d     0x1575 ../MOD_socket_server_bsp//libucosii_bsp.a(altera_avalon_jtag_uart_fd.o)
 .debug_info    0x000000000006d6a2     0x15ca ../MOD_socket_server_bsp//libucosii_bsp.a(altera_avalon_jtag_uart_init.o)
 .debug_info    0x000000000006ec6c     0x12f0 ../MOD_socket_server_bsp//libucosii_bsp.a(altera_avalon_jtag_uart_ioctl.o)
 .debug_info    0x000000000006ff5c     0x1493 ../MOD_socket_server_bsp//libucosii_bsp.a(altera_avalon_jtag_uart_read.o)
 .debug_info    0x00000000000713ef     0x148c ../MOD_socket_server_bsp//libucosii_bsp.a(altera_avalon_jtag_uart_write.o)
 .debug_info    0x000000000007287b      0x19f ../MOD_socket_server_bsp//libucosii_bsp.a(altera_avalon_spi.o)
 .debug_info    0x0000000000072a1a      0xb0b ../MOD_socket_server_bsp//libucosii_bsp.a(altera_avalon_timer_sc.o)
 .debug_info    0x0000000000073525     0x38e7 ../MOD_socket_server_bsp//libucosii_bsp.a(altera_avalon_tse.o)
 .debug_info    0x0000000000076e0c     0x1224 ../MOD_socket_server_bsp//libucosii_bsp.a(altera_generic_quad_spi_controller.o)
 .debug_info    0x0000000000078030     0x2aea ../MOD_socket_server_bsp//libucosii_bsp.a(altera_msgdma.o)
 .debug_info    0x000000000007ab1a     0x3804 ../MOD_socket_server_bsp//libucosii_bsp.a(ins_tse_mac.o)
 .debug_info    0x000000000007e31e     0x2012 ../MOD_socket_server_bsp//libucosii_bsp.a(alt_iniche_close.o)
 .debug_info    0x0000000000080330     0x2130 ../MOD_socket_server_bsp//libucosii_bsp.a(alt_iniche_dev.o)
 .debug_info    0x0000000000082460     0x203c ../MOD_socket_server_bsp//libucosii_bsp.a(alt_iniche_read.o)
 .debug_info    0x000000000008449c     0x2043 ../MOD_socket_server_bsp//libucosii_bsp.a(alt_iniche_write.o)
 .debug_info    0x00000000000864df     0x1f1c ../MOD_socket_server_bsp//libucosii_bsp.a(ipnet.o)
 .debug_info    0x00000000000883fb     0x222f ../MOD_socket_server_bsp//libucosii_bsp.a(ipstart.o)
 .debug_info    0x000000000008a62a     0x26bc ../MOD_socket_server_bsp//libucosii_bsp.a(igmp_cmn.o)
 .debug_info    0x000000000008cce6     0x2655 ../MOD_socket_server_bsp//libucosii_bsp.a(bsdsock.o)
 .debug_info    0x000000000008f33b     0x128b ../MOD_socket_server_bsp//libucosii_bsp.a(cksum.o)
 .debug_info    0x00000000000905c6     0x2575 ../MOD_socket_server_bsp//libucosii_bsp.a(in_utils.o)
 .debug_info    0x0000000000092b3b     0x2406 ../MOD_socket_server_bsp//libucosii_bsp.a(netmain.o)
 .debug_info    0x0000000000094f41     0x2544 ../MOD_socket_server_bsp//libucosii_bsp.a(tk_crnos.o)
 .debug_info    0x0000000000097485     0x275d ../MOD_socket_server_bsp//libucosii_bsp.a(dhcpclnt.o)
 .debug_info    0x0000000000099be2     0x134b ../MOD_socket_server_bsp//libucosii_bsp.a(dhcputil.o)
 .debug_info    0x000000000009af2d     0x1ea6 ../MOD_socket_server_bsp//libucosii_bsp.a(pktalloc.o)
 .debug_info    0x000000000009cdd3     0x131c ../MOD_socket_server_bsp//libucosii_bsp.a(q.o)
 .debug_info    0x000000000009e0ef     0x1e4e ../MOD_socket_server_bsp//libucosii_bsp.a(udp_open.o)
 .debug_info    0x000000000009ff3d       0x26 ../MOD_socket_server_bsp//libucosii_bsp.a(asm_cksum.o)
 .debug_info    0x000000000009ff63     0x139c ../MOD_socket_server_bsp//libucosii_bsp.a(brdutils.o)
 .debug_info    0x00000000000a12ff     0x25ec ../MOD_socket_server_bsp//libucosii_bsp.a(osportco.o)
 .debug_info    0x00000000000a38eb     0x2c5f ../MOD_socket_server_bsp//libucosii_bsp.a(targnios.o)
 .debug_info    0x00000000000a654a     0x3298 ../MOD_socket_server_bsp//libucosii_bsp.a(nptcp.o)
 .debug_info    0x00000000000a97e2     0x2340 ../MOD_socket_server_bsp//libucosii_bsp.a(rawsock.o)
 .debug_info    0x00000000000abb22     0x31f9 ../MOD_socket_server_bsp//libucosii_bsp.a(sockcall.o)
 .debug_info    0x00000000000aed1b     0x2e46 ../MOD_socket_server_bsp//libucosii_bsp.a(socket.o)
 .debug_info    0x00000000000b1b61     0x26a5 ../MOD_socket_server_bsp//libucosii_bsp.a(socket2.o)
 .debug_info    0x00000000000b4206     0x24d0 ../MOD_socket_server_bsp//libucosii_bsp.a(soselect.o)
 .debug_info    0x00000000000b66d6     0x2de5 ../MOD_socket_server_bsp//libucosii_bsp.a(tcp_in.o)
 .debug_info    0x00000000000b94bb     0x2ab5 ../MOD_socket_server_bsp//libucosii_bsp.a(tcp_out.o)
 .debug_info    0x00000000000bbf70     0x2be2 ../MOD_socket_server_bsp//libucosii_bsp.a(tcp_subr.o)
 .debug_info    0x00000000000beb52     0x296d ../MOD_socket_server_bsp//libucosii_bsp.a(tcp_timr.o)
 .debug_info    0x00000000000c14bf     0x29e5 ../MOD_socket_server_bsp//libucosii_bsp.a(tcp_usr.o)
 .debug_info    0x00000000000c3ea4     0x2141 ../MOD_socket_server_bsp//libucosii_bsp.a(tcpport.o)
 .debug_info    0x00000000000c5fe5     0x2561 ../MOD_socket_server_bsp//libucosii_bsp.a(udpsock.o)
 .debug_info    0x00000000000c8546      0xba4 ../MOD_socket_server_bsp//libucosii_bsp.a(alt_alarm_start.o)
 .debug_info    0x00000000000c90ea      0x972 ../MOD_socket_server_bsp//libucosii_bsp.a(alt_busy_sleep.o)
 .debug_info    0x00000000000c9a5c     0x13d3 ../MOD_socket_server_bsp//libucosii_bsp.a(alt_close.o)
 .debug_info    0x00000000000cae2f      0x95f ../MOD_socket_server_bsp//libucosii_bsp.a(alt_dcache_flush.o)
 .debug_info    0x00000000000cb78e     0x1615 ../MOD_socket_server_bsp//libucosii_bsp.a(alt_dev.o)
 .debug_info    0x00000000000ccda3      0xa6e ../MOD_socket_server_bsp//libucosii_bsp.a(alt_dev_llist_insert.o)
 .debug_info    0x00000000000cd811       0x88 ../MOD_socket_server_bsp//libucosii_bsp.a(alt_do_ctors.o)
 .debug_info    0x00000000000cd899       0x88 ../MOD_socket_server_bsp//libucosii_bsp.a(alt_do_dtors.o)
 .debug_info    0x00000000000cd921      0x972 ../MOD_socket_server_bsp//libucosii_bsp.a(alt_errno.o)
 .debug_info    0x00000000000ce293     0x1352 ../MOD_socket_server_bsp//libucosii_bsp.a(alt_find_dev.o)
 .debug_info    0x00000000000cf5e5     0x161d ../MOD_socket_server_bsp//libucosii_bsp.a(alt_flash_dev.o)
 .debug_info    0x00000000000d0c02      0xbf3 ../MOD_socket_server_bsp//libucosii_bsp.a(alt_iic.o)
 .debug_info    0x00000000000d17f5      0xab7 ../MOD_socket_server_bsp//libucosii_bsp.a(alt_iic_isr_register.o)
 .debug_info    0x00000000000d22ac     0x1615 ../MOD_socket_server_bsp//libucosii_bsp.a(alt_io_redirect.o)
 .debug_info    0x00000000000d38c1       0x22 ../MOD_socket_server_bsp//libucosii_bsp.a(alt_irq_entry.o)
 .debug_info    0x00000000000d38e3     0x11e9 ../MOD_socket_server_bsp//libucosii_bsp.a(alt_irq_handler.o)
 .debug_info    0x00000000000d4acc       0x8b ../MOD_socket_server_bsp//libucosii_bsp.a(alt_irq_vars.o)
 .debug_info    0x00000000000d4b57     0x1406 ../MOD_socket_server_bsp//libucosii_bsp.a(alt_open.o)
 .debug_info    0x00000000000d5f5d      0x125 ../MOD_socket_server_bsp//libucosii_bsp.a(alt_printf.o)
 .debug_info    0x00000000000d6082      0x93a ../MOD_socket_server_bsp//libucosii_bsp.a(alt_putchar.o)
 .debug_info    0x00000000000d69bc     0x1624 ../MOD_socket_server_bsp//libucosii_bsp.a(alt_read.o)
 .debug_info    0x00000000000d7fe0     0x1320 ../MOD_socket_server_bsp//libucosii_bsp.a(alt_release_fd.o)
 .debug_info    0x00000000000d9300      0x96e ../MOD_socket_server_bsp//libucosii_bsp.a(alt_remap_cached.o)
 .debug_info    0x00000000000d9c6e     0x12ce ../MOD_socket_server_bsp//libucosii_bsp.a(alt_tick.o)
 .debug_info    0x00000000000daf3c      0x94f ../MOD_socket_server_bsp//libucosii_bsp.a(alt_uncached_free.o)
 .debug_info    0x00000000000db88b      0x95f ../MOD_socket_server_bsp//libucosii_bsp.a(alt_uncached_malloc.o)
 .debug_info    0x00000000000dc1ea     0x11ae ../MOD_socket_server_bsp//libucosii_bsp.a(alt_usleep.o)
 .debug_info    0x00000000000dd398     0x162b ../MOD_socket_server_bsp//libucosii_bsp.a(alt_write.o)
 .debug_info    0x00000000000de9c3      0x955 ../MOD_socket_server_bsp//libucosii_bsp.a(altera_nios2_gen2_irq.o)
 .debug_info    0x00000000000df318       0x26 ../MOD_socket_server_bsp//libucosii_bsp.a(os_cpu_a.o)
 .debug_info    0x00000000000df33e     0x1269 ../MOD_socket_server_bsp//libucosii_bsp.a(os_cpu_c.o)
 .debug_info    0x00000000000e05a7     0x24eb ../MOD_socket_server_bsp//libucosii_bsp.a(allports.o)
 .debug_info    0x00000000000e2a92     0x1f03 ../MOD_socket_server_bsp//libucosii_bsp.a(timeouts.o)
 .debug_info    0x00000000000e4995     0x2361 ../MOD_socket_server_bsp//libucosii_bsp.a(tk_misc.o)
 .debug_info    0x00000000000e6cf6     0x205f ../MOD_socket_server_bsp//libucosii_bsp.a(alt_iniche_fcntl.o)
 .debug_info    0x00000000000e8d55     0x24ad ../MOD_socket_server_bsp//libucosii_bsp.a(et_arp.o)
 .debug_info    0x00000000000eb202     0x2295 ../MOD_socket_server_bsp//libucosii_bsp.a(iface.o)
 .debug_info    0x00000000000ed497     0x264c ../MOD_socket_server_bsp//libucosii_bsp.a(ip.o)
 .debug_info    0x00000000000efae3     0x28a3 ../MOD_socket_server_bsp//libucosii_bsp.a(ip_reasm.o)
 .debug_info    0x00000000000f2386     0x21d4 ../MOD_socket_server_bsp//libucosii_bsp.a(ipdemux.o)
 .debug_info    0x00000000000f455a     0x1d98 ../MOD_socket_server_bsp//libucosii_bsp.a(ipmc.o)
 .debug_info    0x00000000000f62f2     0x1d28 ../MOD_socket_server_bsp//libucosii_bsp.a(ipport.o)
 .debug_info    0x00000000000f801a     0x1f27 ../MOD_socket_server_bsp//libucosii_bsp.a(ipraw.o)
 .debug_info    0x00000000000f9f41     0x1e4a ../MOD_socket_server_bsp//libucosii_bsp.a(iproute.o)
 .debug_info    0x00000000000fbd8b     0x26a6 ../MOD_socket_server_bsp//libucosii_bsp.a(udp.o)
 .debug_info    0x00000000000fe431     0x2418 ../MOD_socket_server_bsp//libucosii_bsp.a(igmp.o)
 .debug_info    0x0000000000100849     0x25b1 ../MOD_socket_server_bsp//libucosii_bsp.a(igmp2.o)
 .debug_info    0x0000000000102dfa     0x233c ../MOD_socket_server_bsp//libucosii_bsp.a(ipopt.o)
 .debug_info    0x0000000000105136     0x22c0 ../MOD_socket_server_bsp//libucosii_bsp.a(u_mctest.o)
 .debug_info    0x00000000001073f6     0x1a60 ../MOD_socket_server_bsp//libucosii_bsp.a(dhcsetup.o)
 .debug_info    0x0000000000108e56     0x1713 ../MOD_socket_server_bsp//libucosii_bsp.a(memdev.o)
 .debug_info    0x000000000010a569     0x2116 ../MOD_socket_server_bsp//libucosii_bsp.a(parseip.o)
 .debug_info    0x000000000010c67f     0x21a9 ../MOD_socket_server_bsp//libucosii_bsp.a(tcpcksum.o)
 .debug_info    0x000000000010e828     0x24d5 ../MOD_socket_server_bsp//libucosii_bsp.a(in_pcb.o)
 .debug_info    0x0000000000110cfd     0x1f64 ../MOD_socket_server_bsp//libucosii_bsp.a(vfsfiles.o)
 .debug_info    0x0000000000112c61     0x14ac ../MOD_socket_server_bsp//libucosii_bsp.a(vfsport.o)
 .debug_info    0x000000000011410d       0x22 ../MOD_socket_server_bsp//libucosii_bsp.a(alt_exception_entry.o)
 .debug_info    0x000000000011412f     0x1637 ../MOD_socket_server_bsp//libucosii_bsp.a(alt_fcntl.o)
 .debug_info    0x0000000000115766     0x1343 ../MOD_socket_server_bsp//libucosii_bsp.a(alt_find_file.o)
 .debug_info    0x0000000000116aa9     0x13ab ../MOD_socket_server_bsp//libucosii_bsp.a(alt_get_fd.o)
 .debug_info    0x0000000000117e54      0x1f1 ../MOD_socket_server_bsp//libucosii_bsp.a(alt_instruction_exception_entry.o)
 .debug_info    0x0000000000118045     0x229e ../MOD_socket_server_bsp//libucosii_bsp.a(icmp.o)
 .debug_info    0x000000000011a2e3      0x9a1 /home/tom/intelFPGA_lite/20.1/nios2eds/bin/gnu/H-x86_64-pc-linux-gnu/bin/../lib/gcc/nios2-elf/9.2.1/../../../../../H-x86_64-pc-linux-gnu/nios2-elf/lib/libc.a(lib_a-atexit.o)
 .debug_info    0x000000000011ac84      0x9e5 /home/tom/intelFPGA_lite/20.1/nios2eds/bin/gnu/H-x86_64-pc-linux-gnu/bin/../lib/gcc/nios2-elf/9.2.1/../../../../../H-x86_64-pc-linux-gnu/nios2-elf/lib/libc.a(lib_a-atoi.o)
 .debug_info    0x000000000011b669      0x9dc /home/tom/intelFPGA_lite/20.1/nios2eds/bin/gnu/H-x86_64-pc-linux-gnu/bin/../lib/gcc/nios2-elf/9.2.1/../../../../../H-x86_64-pc-linux-gnu/nios2-elf/lib/libc.a(lib_a-exit.o)
 .debug_info    0x000000000011c045      0x9c2 /home/tom/intelFPGA_lite/20.1/nios2eds/bin/gnu/H-x86_64-pc-linux-gnu/bin/../lib/gcc/nios2-elf/9.2.1/../../../../../H-x86_64-pc-linux-gnu/nios2-elf/lib/libc.a(lib_a-malloc.o)
 .debug_info    0x000000000011ca07      0x9c5 /home/tom/intelFPGA_lite/20.1/nios2eds/bin/gnu/H-x86_64-pc-linux-gnu/bin/../lib/gcc/nios2-elf/9.2.1/../../../../../H-x86_64-pc-linux-gnu/nios2-elf/lib/libc.a(lib_a-strchr.o)
 .debug_info    0x000000000011d3cc      0x9a1 /home/tom/intelFPGA_lite/20.1/nios2eds/bin/gnu/H-x86_64-pc-linux-gnu/bin/../lib/gcc/nios2-elf/9.2.1/../../../../../H-x86_64-pc-linux-gnu/nios2-elf/lib/libc.a(lib_a-strncmp.o)
 .debug_info    0x000000000011dd6d      0x9e4 /home/tom/intelFPGA_lite/20.1/nios2eds/bin/gnu/H-x86_64-pc-linux-gnu/bin/../lib/gcc/nios2-elf/9.2.1/../../../../../H-x86_64-pc-linux-gnu/nios2-elf/lib/libc.a(lib_a-strncpy.o)
 .debug_info    0x000000000011e751     0x11fa /home/tom/intelFPGA_lite/20.1/nios2eds/bin/gnu/H-x86_64-pc-linux-gnu/bin/../lib/gcc/nios2-elf/9.2.1/../../../../../H-x86_64-pc-linux-gnu/nios2-elf/lib/libc.a(lib_a-strtol.o)
 .debug_info    0x000000000011f94b      0xc1c /home/tom/intelFPGA_lite/20.1/nios2eds/bin/gnu/H-x86_64-pc-linux-gnu/bin/../lib/gcc/nios2-elf/9.2.1/../../../../../H-x86_64-pc-linux-gnu/nios2-elf/lib/libc.a(lib_a-vprintf.o)
 .debug_info    0x0000000000120567      0xc81 /home/tom/intelFPGA_lite/20.1/nios2eds/bin/gnu/H-x86_64-pc-linux-gnu/bin/../lib/gcc/nios2-elf/9.2.1/../../../../../H-x86_64-pc-linux-gnu/nios2-elf/lib/libc.a(lib_a-vsprintf.o)
 .debug_info    0x00000000001211e8      0x9db /home/tom/intelFPGA_lite/20.1/nios2eds/bin/gnu/H-x86_64-pc-linux-gnu/bin/../lib/gcc/nios2-elf/9.2.1/../../../../../H-x86_64-pc-linux-gnu/nios2-elf/lib/libc.a(lib_a-__atexit.o)
 .debug_info    0x0000000000121bc3      0xa17 /home/tom/intelFPGA_lite/20.1/nios2eds/bin/gnu/H-x86_64-pc-linux-gnu/bin/../lib/gcc/nios2-elf/9.2.1/../../../../../H-x86_64-pc-linux-gnu/nios2-elf/lib/libc.a(lib_a-__call_atexit.o)
 .debug_info    0x00000000001225da      0xbe0 /home/tom/intelFPGA_lite/20.1/nios2eds/bin/gnu/H-x86_64-pc-linux-gnu/bin/../lib/gcc/nios2-elf/9.2.1/../../../../../H-x86_64-pc-linux-gnu/nios2-elf/lib/libc.a(lib_a-vfprintfr_1.o)

.debug_abbrev   0x0000000000000000    0x24a92
 *(.debug_abbrev)
 .debug_abbrev  0x0000000000000000       0x14 ../MOD_socket_server_bsp//obj/HAL/src/crt0.o
 .debug_abbrev  0x0000000000000014      0x21d obj/default/ClockModInit.o
 .debug_abbrev  0x0000000000000231      0x390 obj/default/DELHProtocol.o
 .debug_abbrev  0x00000000000005c1      0x2f8 obj/default/InitializePeriph.o
 .debug_abbrev  0x00000000000008b9      0x28f obj/default/alt_error_handler.o
 .debug_abbrev  0x0000000000000b48      0x285 obj/default/iniche_init.o
 .debug_abbrev  0x0000000000000dcd      0x231 obj/default/led.o
 .debug_abbrev  0x0000000000000ffe      0x346 obj/default/network_utilities.o
 .debug_abbrev  0x0000000000001344      0x2d4 obj/default/simple_socket_server.o
 .debug_abbrev  0x0000000000001618      0x1ea obj/default/tse_my_system.o
 .debug_abbrev  0x0000000000001802      0x1d6 /home/tom/intelFPGA_lite/20.1/nios2eds/bin/gnu/H-x86_64-pc-linux-gnu/bin/../lib/gcc/nios2-elf/9.2.1/../../../../../H-x86_64-pc-linux-gnu/nios2-elf/lib/libc.a(lib_a-ctype_.o)
 .debug_abbrev  0x00000000000019d8      0x28e /home/tom/intelFPGA_lite/20.1/nios2eds/bin/gnu/H-x86_64-pc-linux-gnu/bin/../lib/gcc/nios2-elf/9.2.1/../../../../../H-x86_64-pc-linux-gnu/nios2-elf/lib/libc.a(lib_a-fprintf.o)
 .debug_abbrev  0x0000000000001c66      0x2d2 /home/tom/intelFPGA_lite/20.1/nios2eds/bin/gnu/H-x86_64-pc-linux-gnu/bin/../lib/gcc/nios2-elf/9.2.1/../../../../../H-x86_64-pc-linux-gnu/nios2-elf/lib/libc.a(lib_a-fwrite.o)
 .debug_abbrev  0x0000000000001f38      0x28a /home/tom/intelFPGA_lite/20.1/nios2eds/bin/gnu/H-x86_64-pc-linux-gnu/bin/../lib/gcc/nios2-elf/9.2.1/../../../../../H-x86_64-pc-linux-gnu/nios2-elf/lib/libc.a(lib_a-getchar.o)
 .debug_abbrev  0x00000000000021c2      0x1c9 /home/tom/intelFPGA_lite/20.1/nios2eds/bin/gnu/H-x86_64-pc-linux-gnu/bin/../lib/gcc/nios2-elf/9.2.1/../../../../../H-x86_64-pc-linux-gnu/nios2-elf/lib/libc.a(lib_a-impure.o)
 .debug_abbrev  0x000000000000238b      0x1fe /home/tom/intelFPGA_lite/20.1/nios2eds/bin/gnu/H-x86_64-pc-linux-gnu/bin/../lib/gcc/nios2-elf/9.2.1/../../../../../H-x86_64-pc-linux-gnu/nios2-elf/lib/libc.a(lib_a-memcmp.o)
 .debug_abbrev  0x0000000000002589      0x223 /home/tom/intelFPGA_lite/20.1/nios2eds/bin/gnu/H-x86_64-pc-linux-gnu/bin/../lib/gcc/nios2-elf/9.2.1/../../../../../H-x86_64-pc-linux-gnu/nios2-elf/lib/libc.a(lib_a-memcpy.o)
 .debug_abbrev  0x00000000000027ac      0x228 /home/tom/intelFPGA_lite/20.1/nios2eds/bin/gnu/H-x86_64-pc-linux-gnu/bin/../lib/gcc/nios2-elf/9.2.1/../../../../../H-x86_64-pc-linux-gnu/nios2-elf/lib/libc.a(lib_a-memset.o)
 .debug_abbrev  0x00000000000029d4      0x2d4 /home/tom/intelFPGA_lite/20.1/nios2eds/bin/gnu/H-x86_64-pc-linux-gnu/bin/../lib/gcc/nios2-elf/9.2.1/../../../../../H-x86_64-pc-linux-gnu/nios2-elf/lib/libc.a(lib_a-perror.o)
 .debug_abbrev  0x0000000000002ca8      0x29d /home/tom/intelFPGA_lite/20.1/nios2eds/bin/gnu/H-x86_64-pc-linux-gnu/bin/../lib/gcc/nios2-elf/9.2.1/../../../../../H-x86_64-pc-linux-gnu/nios2-elf/lib/libc.a(lib_a-printf.o)
 .debug_abbrev  0x0000000000002f45      0x25e /home/tom/intelFPGA_lite/20.1/nios2eds/bin/gnu/H-x86_64-pc-linux-gnu/bin/../lib/gcc/nios2-elf/9.2.1/../../../../../H-x86_64-pc-linux-gnu/nios2-elf/lib/libc.a(lib_a-putchar.o)
 .debug_abbrev  0x00000000000031a3      0x2ba /home/tom/intelFPGA_lite/20.1/nios2eds/bin/gnu/H-x86_64-pc-linux-gnu/bin/../lib/gcc/nios2-elf/9.2.1/../../../../../H-x86_64-pc-linux-gnu/nios2-elf/lib/libc.a(lib_a-puts.o)
 .debug_abbrev  0x000000000000345d      0x296 /home/tom/intelFPGA_lite/20.1/nios2eds/bin/gnu/H-x86_64-pc-linux-gnu/bin/../lib/gcc/nios2-elf/9.2.1/../../../../../H-x86_64-pc-linux-gnu/nios2-elf/lib/libc.a(lib_a-sprintf.o)
 .debug_abbrev  0x00000000000036f3      0x20d /home/tom/intelFPGA_lite/20.1/nios2eds/bin/gnu/H-x86_64-pc-linux-gnu/bin/../lib/gcc/nios2-elf/9.2.1/../../../../../H-x86_64-pc-linux-gnu/nios2-elf/lib/libc.a(lib_a-strcpy.o)
 .debug_abbrev  0x0000000000003900      0x274 /home/tom/intelFPGA_lite/20.1/nios2eds/bin/gnu/H-x86_64-pc-linux-gnu/bin/../lib/gcc/nios2-elf/9.2.1/../../../../../H-x86_64-pc-linux-gnu/nios2-elf/lib/libc.a(lib_a-strerror.o)
 .debug_abbrev  0x0000000000003b74      0x1f9 /home/tom/intelFPGA_lite/20.1/nios2eds/bin/gnu/H-x86_64-pc-linux-gnu/bin/../lib/gcc/nios2-elf/9.2.1/../../../../../H-x86_64-pc-linux-gnu/nios2-elf/lib/libc.a(lib_a-strlen.o)
 .debug_abbrev  0x0000000000003d6d      0x24f /home/tom/intelFPGA_lite/20.1/nios2eds/bin/gnu/H-x86_64-pc-linux-gnu/bin/../lib/gcc/nios2-elf/9.2.1/../../../../../H-x86_64-pc-linux-gnu/nios2-elf/lib/libc.a(lib_a-strtok.o)
 .debug_abbrev  0x0000000000003fbc      0x28b /home/tom/intelFPGA_lite/20.1/nios2eds/bin/gnu/H-x86_64-pc-linux-gnu/bin/../lib/gcc/nios2-elf/9.2.1/../../../../../H-x86_64-pc-linux-gnu/nios2-elf/lib/libc.a(lib_a-strtok_r.o)
 .debug_abbrev  0x0000000000004247      0x2db /home/tom/intelFPGA_lite/20.1/nios2eds/bin/gnu/H-x86_64-pc-linux-gnu/bin/../lib/gcc/nios2-elf/9.2.1/../../../../../H-x86_64-pc-linux-gnu/nios2-elf/lib/libc.a(lib_a-strtoul.o)
 .debug_abbrev  0x0000000000004522      0x413 /home/tom/intelFPGA_lite/20.1/nios2eds/bin/gnu/H-x86_64-pc-linux-gnu/bin/../lib/gcc/nios2-elf/9.2.1/../../../../../H-x86_64-pc-linux-gnu/nios2-elf/lib/libc.a(lib_a-svfprintf.o)
 .debug_abbrev  0x0000000000004935       0x62 /home/tom/intelFPGA_lite/20.1/nios2eds/bin/gnu/H-x86_64-pc-linux-gnu/bin/../lib/gcc/nios2-elf/9.2.1/../../../../../H-x86_64-pc-linux-gnu/nios2-elf/lib/libc.a(lib_a-u_strerr.o)
 .debug_abbrev  0x0000000000004997      0x464 /home/tom/intelFPGA_lite/20.1/nios2eds/bin/gnu/H-x86_64-pc-linux-gnu/bin/../lib/gcc/nios2-elf/9.2.1/../../../../../H-x86_64-pc-linux-gnu/nios2-elf/lib/libc.a(lib_a-vfprintf.o)
 .debug_abbrev  0x0000000000004dfb      0x23b /home/tom/intelFPGA_lite/20.1/nios2eds/bin/gnu/H-x86_64-pc-linux-gnu/bin/../lib/gcc/nios2-elf/9.2.1/../../../../../H-x86_64-pc-linux-gnu/nios2-elf/lib/libc.a(lib_a-writer.o)
 .debug_abbrev  0x0000000000005036      0x294 /home/tom/intelFPGA_lite/20.1/nios2eds/bin/gnu/H-x86_64-pc-linux-gnu/bin/../lib/gcc/nios2-elf/9.2.1/../../../../../H-x86_64-pc-linux-gnu/nios2-elf/lib/libc.a(lib_a-wsetup.o)
 .debug_abbrev  0x00000000000052ca      0x372 /home/tom/intelFPGA_lite/20.1/nios2eds/bin/gnu/H-x86_64-pc-linux-gnu/bin/../lib/gcc/nios2-elf/9.2.1/../../../../../H-x86_64-pc-linux-gnu/nios2-elf/lib/libc.a(lib_a-dtoa.o)
 .debug_abbrev  0x000000000000563c      0x322 /home/tom/intelFPGA_lite/20.1/nios2eds/bin/gnu/H-x86_64-pc-linux-gnu/bin/../lib/gcc/nios2-elf/9.2.1/../../../../../H-x86_64-pc-linux-gnu/nios2-elf/lib/libc.a(lib_a-fflush.o)
 .debug_abbrev  0x000000000000595e      0x25b /home/tom/intelFPGA_lite/20.1/nios2eds/bin/gnu/H-x86_64-pc-linux-gnu/bin/../lib/gcc/nios2-elf/9.2.1/../../../../../H-x86_64-pc-linux-gnu/nios2-elf/lib/libc.a(lib_a-fileno.o)
 .debug_abbrev  0x0000000000005bb9      0x457 /home/tom/intelFPGA_lite/20.1/nios2eds/bin/gnu/H-x86_64-pc-linux-gnu/bin/../lib/gcc/nios2-elf/9.2.1/../../../../../H-x86_64-pc-linux-gnu/nios2-elf/lib/libc.a(lib_a-findfp.o)
 .debug_abbrev  0x0000000000006010      0x2c9 /home/tom/intelFPGA_lite/20.1/nios2eds/bin/gnu/H-x86_64-pc-linux-gnu/bin/../lib/gcc/nios2-elf/9.2.1/../../../../../H-x86_64-pc-linux-gnu/nios2-elf/lib/libc.a(lib_a-freer.o)
 .debug_abbrev  0x00000000000062d9      0x2cd /home/tom/intelFPGA_lite/20.1/nios2eds/bin/gnu/H-x86_64-pc-linux-gnu/bin/../lib/gcc/nios2-elf/9.2.1/../../../../../H-x86_64-pc-linux-gnu/nios2-elf/lib/libc.a(lib_a-fvwrite.o)
 .debug_abbrev  0x00000000000065a6      0x25f /home/tom/intelFPGA_lite/20.1/nios2eds/bin/gnu/H-x86_64-pc-linux-gnu/bin/../lib/gcc/nios2-elf/9.2.1/../../../../../H-x86_64-pc-linux-gnu/nios2-elf/lib/libc.a(lib_a-fwalk.o)
 .debug_abbrev  0x0000000000006805      0x2ae /home/tom/intelFPGA_lite/20.1/nios2eds/bin/gnu/H-x86_64-pc-linux-gnu/bin/../lib/gcc/nios2-elf/9.2.1/../../../../../H-x86_64-pc-linux-gnu/nios2-elf/lib/libc.a(lib_a-getc.o)
 .debug_abbrev  0x0000000000006ab3      0x1d5 /home/tom/intelFPGA_lite/20.1/nios2eds/bin/gnu/H-x86_64-pc-linux-gnu/bin/../lib/gcc/nios2-elf/9.2.1/../../../../../H-x86_64-pc-linux-gnu/nios2-elf/lib/libc.a(lib_a-int_errno.o)
 .debug_abbrev  0x0000000000006c88      0x288 /home/tom/intelFPGA_lite/20.1/nios2eds/bin/gnu/H-x86_64-pc-linux-gnu/bin/../lib/gcc/nios2-elf/9.2.1/../../../../../H-x86_64-pc-linux-gnu/nios2-elf/lib/libc.a(lib_a-localeconv.o)
 .debug_abbrev  0x0000000000006f10      0x340 /home/tom/intelFPGA_lite/20.1/nios2eds/bin/gnu/H-x86_64-pc-linux-gnu/bin/../lib/gcc/nios2-elf/9.2.1/../../../../../H-x86_64-pc-linux-gnu/nios2-elf/lib/libc.a(lib_a-makebuf.o)
 .debug_abbrev  0x0000000000007250      0x321 /home/tom/intelFPGA_lite/20.1/nios2eds/bin/gnu/H-x86_64-pc-linux-gnu/bin/../lib/gcc/nios2-elf/9.2.1/../../../../../H-x86_64-pc-linux-gnu/nios2-elf/lib/libc.a(lib_a-mallocr.o)
 .debug_abbrev  0x0000000000007571      0x226 /home/tom/intelFPGA_lite/20.1/nios2eds/bin/gnu/H-x86_64-pc-linux-gnu/bin/../lib/gcc/nios2-elf/9.2.1/../../../../../H-x86_64-pc-linux-gnu/nios2-elf/lib/libc.a(lib_a-memchr.o)
 .debug_abbrev  0x0000000000007797      0x21c /home/tom/intelFPGA_lite/20.1/nios2eds/bin/gnu/H-x86_64-pc-linux-gnu/bin/../lib/gcc/nios2-elf/9.2.1/../../../../../H-x86_64-pc-linux-gnu/nios2-elf/lib/libc.a(lib_a-memmove.o)
 .debug_abbrev  0x00000000000079b3      0x4f4 /home/tom/intelFPGA_lite/20.1/nios2eds/bin/gnu/H-x86_64-pc-linux-gnu/bin/../lib/gcc/nios2-elf/9.2.1/../../../../../H-x86_64-pc-linux-gnu/nios2-elf/lib/libc.a(lib_a-mprec.o)
 .debug_abbrev  0x0000000000007ea7      0x29e /home/tom/intelFPGA_lite/20.1/nios2eds/bin/gnu/H-x86_64-pc-linux-gnu/bin/../lib/gcc/nios2-elf/9.2.1/../../../../../H-x86_64-pc-linux-gnu/nios2-elf/lib/libc.a(lib_a-putc.o)
 .debug_abbrev  0x0000000000008145      0x2a1 /home/tom/intelFPGA_lite/20.1/nios2eds/bin/gnu/H-x86_64-pc-linux-gnu/bin/../lib/gcc/nios2-elf/9.2.1/../../../../../H-x86_64-pc-linux-gnu/nios2-elf/lib/libc.a(lib_a-reallocr.o)
 .debug_abbrev  0x00000000000083e6      0x2a0 /home/tom/intelFPGA_lite/20.1/nios2eds/bin/gnu/H-x86_64-pc-linux-gnu/bin/../lib/gcc/nios2-elf/9.2.1/../../../../../H-x86_64-pc-linux-gnu/nios2-elf/lib/libc.a(lib_a-rget.o)
 .debug_abbrev  0x0000000000008686      0x261 /home/tom/intelFPGA_lite/20.1/nios2eds/bin/gnu/H-x86_64-pc-linux-gnu/bin/../lib/gcc/nios2-elf/9.2.1/../../../../../H-x86_64-pc-linux-gnu/nios2-elf/lib/libc.a(lib_a-sbrkr.o)
 .debug_abbrev  0x00000000000088e7      0x2be /home/tom/intelFPGA_lite/20.1/nios2eds/bin/gnu/H-x86_64-pc-linux-gnu/bin/../lib/gcc/nios2-elf/9.2.1/../../../../../H-x86_64-pc-linux-gnu/nios2-elf/lib/libc.a(lib_a-stdio.o)
 .debug_abbrev  0x0000000000008ba5      0x361 /home/tom/intelFPGA_lite/20.1/nios2eds/bin/gnu/H-x86_64-pc-linux-gnu/bin/../lib/gcc/nios2-elf/9.2.1/../../../../../H-x86_64-pc-linux-gnu/nios2-elf/lib/libc.a(lib_a-svfiprintf.o)
 .debug_abbrev  0x0000000000008f06      0x481 /home/tom/intelFPGA_lite/20.1/nios2eds/bin/gnu/H-x86_64-pc-linux-gnu/bin/../lib/gcc/nios2-elf/9.2.1/../../../../../H-x86_64-pc-linux-gnu/nios2-elf/lib/libc.a(lib_a-vfiprintf.o)
 .debug_abbrev  0x0000000000009387      0x2d4 /home/tom/intelFPGA_lite/20.1/nios2eds/bin/gnu/H-x86_64-pc-linux-gnu/bin/../lib/gcc/nios2-elf/9.2.1/../../../../../H-x86_64-pc-linux-gnu/nios2-elf/lib/libc.a(lib_a-wbuf.o)
 .debug_abbrev  0x000000000000965b      0x236 /home/tom/intelFPGA_lite/20.1/nios2eds/bin/gnu/H-x86_64-pc-linux-gnu/bin/../lib/gcc/nios2-elf/9.2.1/../../../../../H-x86_64-pc-linux-gnu/nios2-elf/lib/libc.a(closer.o)
 .debug_abbrev  0x0000000000009891      0x24e /home/tom/intelFPGA_lite/20.1/nios2eds/bin/gnu/H-x86_64-pc-linux-gnu/bin/../lib/gcc/nios2-elf/9.2.1/../../../../../H-x86_64-pc-linux-gnu/nios2-elf/lib/libc.a(lib_a-assert.o)
 .debug_abbrev  0x0000000000009adf      0x286 /home/tom/intelFPGA_lite/20.1/nios2eds/bin/gnu/H-x86_64-pc-linux-gnu/bin/../lib/gcc/nios2-elf/9.2.1/../../../../../H-x86_64-pc-linux-gnu/nios2-elf/lib/libc.a(lib_a-callocr.o)
 .debug_abbrev  0x0000000000009d65      0x33a /home/tom/intelFPGA_lite/20.1/nios2eds/bin/gnu/H-x86_64-pc-linux-gnu/bin/../lib/gcc/nios2-elf/9.2.1/../../../../../H-x86_64-pc-linux-gnu/nios2-elf/lib/libc.a(lib_a-fclose.o)
 .debug_abbrev  0x000000000000a09f      0x231 /home/tom/intelFPGA_lite/20.1/nios2eds/bin/gnu/H-x86_64-pc-linux-gnu/bin/../lib/gcc/nios2-elf/9.2.1/../../../../../H-x86_64-pc-linux-gnu/nios2-elf/lib/libc.a(lib_a-fiprintf.o)
 .debug_abbrev  0x000000000000a2d0      0x33c /home/tom/intelFPGA_lite/20.1/nios2eds/bin/gnu/H-x86_64-pc-linux-gnu/bin/../lib/gcc/nios2-elf/9.2.1/../../../../../H-x86_64-pc-linux-gnu/nios2-elf/lib/libc.a(lib_a-fputwc.o)
 .debug_abbrev  0x000000000000a60c      0x24a /home/tom/intelFPGA_lite/20.1/nios2eds/bin/gnu/H-x86_64-pc-linux-gnu/bin/../lib/gcc/nios2-elf/9.2.1/../../../../../H-x86_64-pc-linux-gnu/nios2-elf/lib/libc.a(lib_a-fstatr.o)
 .debug_abbrev  0x000000000000a856      0x236 /home/tom/intelFPGA_lite/20.1/nios2eds/bin/gnu/H-x86_64-pc-linux-gnu/bin/../lib/gcc/nios2-elf/9.2.1/../../../../../H-x86_64-pc-linux-gnu/nios2-elf/lib/libc.a(lib_a-isattyr.o)
 .debug_abbrev  0x000000000000aa8c      0x2ea /home/tom/intelFPGA_lite/20.1/nios2eds/bin/gnu/H-x86_64-pc-linux-gnu/bin/../lib/gcc/nios2-elf/9.2.1/../../../../../H-x86_64-pc-linux-gnu/nios2-elf/lib/libc.a(lib_a-locale.o)
 .debug_abbrev  0x000000000000ad76      0x24a /home/tom/intelFPGA_lite/20.1/nios2eds/bin/gnu/H-x86_64-pc-linux-gnu/bin/../lib/gcc/nios2-elf/9.2.1/../../../../../H-x86_64-pc-linux-gnu/nios2-elf/lib/libc.a(lib_a-lseekr.o)
 .debug_abbrev  0x000000000000afc0      0x292 /home/tom/intelFPGA_lite/20.1/nios2eds/bin/gnu/H-x86_64-pc-linux-gnu/bin/../lib/gcc/nios2-elf/9.2.1/../../../../../H-x86_64-pc-linux-gnu/nios2-elf/lib/libc.a(lib_a-mbtowc_r.o)
 .debug_abbrev  0x000000000000b252      0x236 /home/tom/intelFPGA_lite/20.1/nios2eds/bin/gnu/H-x86_64-pc-linux-gnu/bin/../lib/gcc/nios2-elf/9.2.1/../../../../../H-x86_64-pc-linux-gnu/nios2-elf/lib/libc.a(lib_a-readr.o)
 .debug_abbrev  0x000000000000b488      0x2d4 /home/tom/intelFPGA_lite/20.1/nios2eds/bin/gnu/H-x86_64-pc-linux-gnu/bin/../lib/gcc/nios2-elf/9.2.1/../../../../../H-x86_64-pc-linux-gnu/nios2-elf/lib/libc.a(lib_a-refill.o)
 .debug_abbrev  0x000000000000b75c      0x1f9 /home/tom/intelFPGA_lite/20.1/nios2eds/bin/gnu/H-x86_64-pc-linux-gnu/bin/../lib/gcc/nios2-elf/9.2.1/../../../../../H-x86_64-pc-linux-gnu/nios2-elf/lib/libc.a(lib_a-strcmp.o)
 .debug_abbrev  0x000000000000b955      0x290 /home/tom/intelFPGA_lite/20.1/nios2eds/bin/gnu/H-x86_64-pc-linux-gnu/bin/../lib/gcc/nios2-elf/9.2.1/../../../../../H-x86_64-pc-linux-gnu/nios2-elf/lib/libc.a(lib_a-vfiprintfr_1.o)
 .debug_abbrev  0x000000000000bbe5      0x264 /home/tom/intelFPGA_lite/20.1/nios2eds/bin/gnu/H-x86_64-pc-linux-gnu/bin/../lib/gcc/nios2-elf/9.2.1/../../../../../H-x86_64-pc-linux-gnu/nios2-elf/lib/libc.a(lib_a-wcrtomb.o)
 .debug_abbrev  0x000000000000be49      0x27a /home/tom/intelFPGA_lite/20.1/nios2eds/bin/gnu/H-x86_64-pc-linux-gnu/bin/../lib/gcc/nios2-elf/9.2.1/../../../../../H-x86_64-pc-linux-gnu/nios2-elf/lib/libc.a(lib_a-wctomb_r.o)
 .debug_abbrev  0x000000000000c0c3      0x21c /home/tom/intelFPGA_lite/20.1/nios2eds/bin/gnu/H-x86_64-pc-linux-gnu/bin/../lib/gcc/nios2-elf/9.2.1/../../../../../H-x86_64-pc-linux-gnu/nios2-elf/lib/libc.a(lib_a-abort.o)
 .debug_abbrev  0x000000000000c2df      0x379 /home/tom/intelFPGA_lite/20.1/nios2eds/bin/gnu/H-x86_64-pc-linux-gnu/bin/../lib/gcc/nios2-elf/9.2.1/../../../../../H-x86_64-pc-linux-gnu/nios2-elf/lib/libc.a(lib_a-signal.o)
 .debug_abbrev  0x000000000000c658      0x253 /home/tom/intelFPGA_lite/20.1/nios2eds/bin/gnu/H-x86_64-pc-linux-gnu/bin/../lib/gcc/nios2-elf/9.2.1/../../../../../H-x86_64-pc-linux-gnu/nios2-elf/lib/libc.a(lib_a-signalr.o)
 .debug_abbrev  0x000000000000c8ab      0x1cb /home/tom/intelFPGA_lite/20.1/nios2eds/bin/gnu/H-x86_64-pc-linux-gnu/bin/../lib/gcc/nios2-elf/9.2.1/libgcc.a(_udivdi3.o)
 .debug_abbrev  0x000000000000ca76      0x1f7 /home/tom/intelFPGA_lite/20.1/nios2eds/bin/gnu/H-x86_64-pc-linux-gnu/bin/../lib/gcc/nios2-elf/9.2.1/libgcc.a(_umoddi3.o)
 .debug_abbrev  0x000000000000cc6d      0x103 /home/tom/intelFPGA_lite/20.1/nios2eds/bin/gnu/H-x86_64-pc-linux-gnu/bin/../lib/gcc/nios2-elf/9.2.1/libgcc.a(lib2-divmod.o)
 .debug_abbrev  0x000000000000cd70      0x197 /home/tom/intelFPGA_lite/20.1/nios2eds/bin/gnu/H-x86_64-pc-linux-gnu/bin/../lib/gcc/nios2-elf/9.2.1/libgcc.a(adddf3.o)
 .debug_abbrev  0x000000000000cf07      0x188 /home/tom/intelFPGA_lite/20.1/nios2eds/bin/gnu/H-x86_64-pc-linux-gnu/bin/../lib/gcc/nios2-elf/9.2.1/libgcc.a(divdf3.o)
 .debug_abbrev  0x000000000000d08f      0x16a /home/tom/intelFPGA_lite/20.1/nios2eds/bin/gnu/H-x86_64-pc-linux-gnu/bin/../lib/gcc/nios2-elf/9.2.1/libgcc.a(eqdf2.o)
 .debug_abbrev  0x000000000000d1f9      0x18e /home/tom/intelFPGA_lite/20.1/nios2eds/bin/gnu/H-x86_64-pc-linux-gnu/bin/../lib/gcc/nios2-elf/9.2.1/libgcc.a(gedf2.o)
 .debug_abbrev  0x000000000000d387      0x18e /home/tom/intelFPGA_lite/20.1/nios2eds/bin/gnu/H-x86_64-pc-linux-gnu/bin/../lib/gcc/nios2-elf/9.2.1/libgcc.a(ledf2.o)
 .debug_abbrev  0x000000000000d515      0x18f /home/tom/intelFPGA_lite/20.1/nios2eds/bin/gnu/H-x86_64-pc-linux-gnu/bin/../lib/gcc/nios2-elf/9.2.1/libgcc.a(muldf3.o)
 .debug_abbrev  0x000000000000d6a4      0x197 /home/tom/intelFPGA_lite/20.1/nios2eds/bin/gnu/H-x86_64-pc-linux-gnu/bin/../lib/gcc/nios2-elf/9.2.1/libgcc.a(subdf3.o)
 .debug_abbrev  0x000000000000d83b      0x16a /home/tom/intelFPGA_lite/20.1/nios2eds/bin/gnu/H-x86_64-pc-linux-gnu/bin/../lib/gcc/nios2-elf/9.2.1/libgcc.a(unorddf2.o)
 .debug_abbrev  0x000000000000d9a5      0x171 /home/tom/intelFPGA_lite/20.1/nios2eds/bin/gnu/H-x86_64-pc-linux-gnu/bin/../lib/gcc/nios2-elf/9.2.1/libgcc.a(fixdfsi.o)
 .debug_abbrev  0x000000000000db16      0x18a /home/tom/intelFPGA_lite/20.1/nios2eds/bin/gnu/H-x86_64-pc-linux-gnu/bin/../lib/gcc/nios2-elf/9.2.1/libgcc.a(floatsidf.o)
 .debug_abbrev  0x000000000000dca0      0x18a /home/tom/intelFPGA_lite/20.1/nios2eds/bin/gnu/H-x86_64-pc-linux-gnu/bin/../lib/gcc/nios2-elf/9.2.1/libgcc.a(floatunsidf.o)
 .debug_abbrev  0x000000000000de2a       0xa8 /home/tom/intelFPGA_lite/20.1/nios2eds/bin/gnu/H-x86_64-pc-linux-gnu/bin/../lib/gcc/nios2-elf/9.2.1/libgcc.a(_clz.o)
 .debug_abbrev  0x000000000000ded2       0xf7 /home/tom/intelFPGA_lite/20.1/nios2eds/bin/gnu/H-x86_64-pc-linux-gnu/bin/../lib/gcc/nios2-elf/9.2.1/libgcc.a(_clzsi2.o)
 .debug_abbrev  0x000000000000dfc9      0x25d ../MOD_socket_server_bsp//libucosii_bsp.a(alt_exit.o)
 .debug_abbrev  0x000000000000e226      0x24f ../MOD_socket_server_bsp//libucosii_bsp.a(alt_fstat.o)
 .debug_abbrev  0x000000000000e475       0x3b ../MOD_socket_server_bsp//libucosii_bsp.a(alt_getpid.o)
 .debug_abbrev  0x000000000000e4b0      0x24f ../MOD_socket_server_bsp//libucosii_bsp.a(alt_isatty.o)
 .debug_abbrev  0x000000000000e6ff      0x22e ../MOD_socket_server_bsp//libucosii_bsp.a(alt_kill.o)
 .debug_abbrev  0x000000000000e92d      0x24f ../MOD_socket_server_bsp//libucosii_bsp.a(alt_lseek.o)
 .debug_abbrev  0x000000000000eb7c      0x266 ../MOD_socket_server_bsp//libucosii_bsp.a(alt_main.o)
 .debug_abbrev  0x000000000000ede2      0x285 ../MOD_socket_server_bsp//libucosii_bsp.a(alt_sbrk.o)
 .debug_abbrev  0x000000000000f067      0x257 ../MOD_socket_server_bsp//libucosii_bsp.a(alt_env_lock.o)
 .debug_abbrev  0x000000000000f2be      0x2b7 ../MOD_socket_server_bsp//libucosii_bsp.a(alt_malloc_lock.o)
 .debug_abbrev  0x000000000000f575      0x45c ../MOD_socket_server_bsp//libucosii_bsp.a(os_core.o)
 .debug_abbrev  0x000000000000f9d1      0x219 ../MOD_socket_server_bsp//libucosii_bsp.a(os_dbg.o)
 .debug_abbrev  0x000000000000fbea      0x3a7 ../MOD_socket_server_bsp//libucosii_bsp.a(os_flag.o)
 .debug_abbrev  0x000000000000ff91      0x371 ../MOD_socket_server_bsp//libucosii_bsp.a(os_mem.o)
 .debug_abbrev  0x0000000000010302      0x395 ../MOD_socket_server_bsp//libucosii_bsp.a(os_q.o)
 .debug_abbrev  0x0000000000010697      0x3b1 ../MOD_socket_server_bsp//libucosii_bsp.a(os_sem.o)
 .debug_abbrev  0x0000000000010a48      0x382 ../MOD_socket_server_bsp//libucosii_bsp.a(os_task.o)
 .debug_abbrev  0x0000000000010dca      0x353 ../MOD_socket_server_bsp//libucosii_bsp.a(os_time.o)
 .debug_abbrev  0x000000000001111d      0x34b ../MOD_socket_server_bsp//libucosii_bsp.a(alt_sys_init.o)
 .debug_abbrev  0x0000000000011468      0x24e ../MOD_socket_server_bsp//libucosii_bsp.a(altera_avalon_fifo_util.o)
 .debug_abbrev  0x00000000000116b6      0x44a ../MOD_socket_server_bsp//libucosii_bsp.a(altera_avalon_i2c.o)
 .debug_abbrev  0x0000000000011b00      0x248 ../MOD_socket_server_bsp//libucosii_bsp.a(altera_avalon_jtag_uart_fd.o)
 .debug_abbrev  0x0000000000011d48      0x346 ../MOD_socket_server_bsp//libucosii_bsp.a(altera_avalon_jtag_uart_init.o)
 .debug_abbrev  0x000000000001208e      0x235 ../MOD_socket_server_bsp//libucosii_bsp.a(altera_avalon_jtag_uart_ioctl.o)
 .debug_abbrev  0x00000000000122c3      0x30b ../MOD_socket_server_bsp//libucosii_bsp.a(altera_avalon_jtag_uart_read.o)
 .debug_abbrev  0x00000000000125ce      0x2f1 ../MOD_socket_server_bsp//libucosii_bsp.a(altera_avalon_jtag_uart_write.o)
 .debug_abbrev  0x00000000000128bf       0x92 ../MOD_socket_server_bsp//libucosii_bsp.a(altera_avalon_spi.o)
 .debug_abbrev  0x0000000000012951      0x2ca ../MOD_socket_server_bsp//libucosii_bsp.a(altera_avalon_timer_sc.o)
 .debug_abbrev  0x0000000000012c1b      0x39a ../MOD_socket_server_bsp//libucosii_bsp.a(altera_avalon_tse.o)
 .debug_abbrev  0x0000000000012fb5      0x2f2 ../MOD_socket_server_bsp//libucosii_bsp.a(altera_generic_quad_spi_controller.o)
 .debug_abbrev  0x00000000000132a7      0x493 ../MOD_socket_server_bsp//libucosii_bsp.a(altera_msgdma.o)
 .debug_abbrev  0x000000000001373a      0x447 ../MOD_socket_server_bsp//libucosii_bsp.a(ins_tse_mac.o)
 .debug_abbrev  0x0000000000013b81      0x24a ../MOD_socket_server_bsp//libucosii_bsp.a(alt_iniche_close.o)
 .debug_abbrev  0x0000000000013dcb      0x27b ../MOD_socket_server_bsp//libucosii_bsp.a(alt_iniche_dev.o)
 .debug_abbrev  0x0000000000014046      0x24a ../MOD_socket_server_bsp//libucosii_bsp.a(alt_iniche_read.o)
 .debug_abbrev  0x0000000000014290      0x24f ../MOD_socket_server_bsp//libucosii_bsp.a(alt_iniche_write.o)
 .debug_abbrev  0x00000000000144df      0x320 ../MOD_socket_server_bsp//libucosii_bsp.a(ipnet.o)
 .debug_abbrev  0x00000000000147ff      0x30e ../MOD_socket_server_bsp//libucosii_bsp.a(ipstart.o)
 .debug_abbrev  0x0000000000014b0d      0x355 ../MOD_socket_server_bsp//libucosii_bsp.a(igmp_cmn.o)
 .debug_abbrev  0x0000000000014e62      0x341 ../MOD_socket_server_bsp//libucosii_bsp.a(bsdsock.o)
 .debug_abbrev  0x00000000000151a3      0x25b ../MOD_socket_server_bsp//libucosii_bsp.a(cksum.o)
 .debug_abbrev  0x00000000000153fe      0x374 ../MOD_socket_server_bsp//libucosii_bsp.a(in_utils.o)
 .debug_abbrev  0x0000000000015772      0x2ae ../MOD_socket_server_bsp//libucosii_bsp.a(netmain.o)
 .debug_abbrev  0x0000000000015a20      0x2c3 ../MOD_socket_server_bsp//libucosii_bsp.a(tk_crnos.o)
 .debug_abbrev  0x0000000000015ce3      0x3a0 ../MOD_socket_server_bsp//libucosii_bsp.a(dhcpclnt.o)
 .debug_abbrev  0x0000000000016083      0x21b ../MOD_socket_server_bsp//libucosii_bsp.a(dhcputil.o)
 .debug_abbrev  0x000000000001629e      0x312 ../MOD_socket_server_bsp//libucosii_bsp.a(pktalloc.o)
 .debug_abbrev  0x00000000000165b0      0x262 ../MOD_socket_server_bsp//libucosii_bsp.a(q.o)
 .debug_abbrev  0x0000000000016812      0x2a3 ../MOD_socket_server_bsp//libucosii_bsp.a(udp_open.o)
 .debug_abbrev  0x0000000000016ab5       0x14 ../MOD_socket_server_bsp//libucosii_bsp.a(asm_cksum.o)
 .debug_abbrev  0x0000000000016ac9      0x2e5 ../MOD_socket_server_bsp//libucosii_bsp.a(brdutils.o)
 .debug_abbrev  0x0000000000016dae      0x308 ../MOD_socket_server_bsp//libucosii_bsp.a(osportco.o)
 .debug_abbrev  0x00000000000170b6      0x34a ../MOD_socket_server_bsp//libucosii_bsp.a(targnios.o)
 .debug_abbrev  0x0000000000017400      0x3b3 ../MOD_socket_server_bsp//libucosii_bsp.a(nptcp.o)
 .debug_abbrev  0x00000000000177b3      0x2a4 ../MOD_socket_server_bsp//libucosii_bsp.a(rawsock.o)
 .debug_abbrev  0x0000000000017a57      0x34a ../MOD_socket_server_bsp//libucosii_bsp.a(sockcall.o)
 .debug_abbrev  0x0000000000017da1      0x398 ../MOD_socket_server_bsp//libucosii_bsp.a(socket.o)
 .debug_abbrev  0x0000000000018139      0x3a9 ../MOD_socket_server_bsp//libucosii_bsp.a(socket2.o)
 .debug_abbrev  0x00000000000184e2      0x331 ../MOD_socket_server_bsp//libucosii_bsp.a(soselect.o)
 .debug_abbrev  0x0000000000018813      0x38c ../MOD_socket_server_bsp//libucosii_bsp.a(tcp_in.o)
 .debug_abbrev  0x0000000000018b9f      0x352 ../MOD_socket_server_bsp//libucosii_bsp.a(tcp_out.o)
 .debug_abbrev  0x0000000000018ef1      0x376 ../MOD_socket_server_bsp//libucosii_bsp.a(tcp_subr.o)
 .debug_abbrev  0x0000000000019267      0x342 ../MOD_socket_server_bsp//libucosii_bsp.a(tcp_timr.o)
 .debug_abbrev  0x00000000000195a9      0x2ea ../MOD_socket_server_bsp//libucosii_bsp.a(tcp_usr.o)
 .debug_abbrev  0x0000000000019893      0x24a ../MOD_socket_server_bsp//libucosii_bsp.a(tcpport.o)
 .debug_abbrev  0x0000000000019add      0x2fa ../MOD_socket_server_bsp//libucosii_bsp.a(udpsock.o)
 .debug_abbrev  0x0000000000019dd7      0x2c3 ../MOD_socket_server_bsp//libucosii_bsp.a(alt_alarm_start.o)
 .debug_abbrev  0x000000000001a09a      0x202 ../MOD_socket_server_bsp//libucosii_bsp.a(alt_busy_sleep.o)
 .debug_abbrev  0x000000000001a29c      0x24f ../MOD_socket_server_bsp//libucosii_bsp.a(alt_close.o)
 .debug_abbrev  0x000000000001a4eb      0x202 ../MOD_socket_server_bsp//libucosii_bsp.a(alt_dcache_flush.o)
 .debug_abbrev  0x000000000001a6ed      0x22f ../MOD_socket_server_bsp//libucosii_bsp.a(alt_dev.o)
 .debug_abbrev  0x000000000001a91c      0x268 ../MOD_socket_server_bsp//libucosii_bsp.a(alt_dev_llist_insert.o)
 .debug_abbrev  0x000000000001ab84       0x81 ../MOD_socket_server_bsp//libucosii_bsp.a(alt_do_ctors.o)
 .debug_abbrev  0x000000000001ac05       0x81 ../MOD_socket_server_bsp//libucosii_bsp.a(alt_do_dtors.o)
 .debug_abbrev  0x000000000001ac86      0x1df ../MOD_socket_server_bsp//libucosii_bsp.a(alt_errno.o)
 .debug_abbrev  0x000000000001ae65      0x22a ../MOD_socket_server_bsp//libucosii_bsp.a(alt_find_dev.o)
 .debug_abbrev  0x000000000001b08f      0x25e ../MOD_socket_server_bsp//libucosii_bsp.a(alt_flash_dev.o)
 .debug_abbrev  0x000000000001b2ed      0x2e8 ../MOD_socket_server_bsp//libucosii_bsp.a(alt_iic.o)
 .debug_abbrev  0x000000000001b5d5      0x2a7 ../MOD_socket_server_bsp//libucosii_bsp.a(alt_iic_isr_register.o)
 .debug_abbrev  0x000000000001b87c      0x242 ../MOD_socket_server_bsp//libucosii_bsp.a(alt_io_redirect.o)
 .debug_abbrev  0x000000000001babe       0x12 ../MOD_socket_server_bsp//libucosii_bsp.a(alt_irq_entry.o)
 .debug_abbrev  0x000000000001bad0      0x27b ../MOD_socket_server_bsp//libucosii_bsp.a(alt_irq_handler.o)
 .debug_abbrev  0x000000000001bd4b       0x44 ../MOD_socket_server_bsp//libucosii_bsp.a(alt_irq_vars.o)
 .debug_abbrev  0x000000000001bd8f      0x27c ../MOD_socket_server_bsp//libucosii_bsp.a(alt_open.o)
 .debug_abbrev  0x000000000001c00b       0xba ../MOD_socket_server_bsp//libucosii_bsp.a(alt_printf.o)
 .debug_abbrev  0x000000000001c0c5      0x1e0 ../MOD_socket_server_bsp//libucosii_bsp.a(alt_putchar.o)
 .debug_abbrev  0x000000000001c2a5      0x260 ../MOD_socket_server_bsp//libucosii_bsp.a(alt_read.o)
 .debug_abbrev  0x000000000001c505      0x206 ../MOD_socket_server_bsp//libucosii_bsp.a(alt_release_fd.o)
 .debug_abbrev  0x000000000001c70b      0x1fa ../MOD_socket_server_bsp//libucosii_bsp.a(alt_remap_cached.o)
 .debug_abbrev  0x000000000001c905      0x2be ../MOD_socket_server_bsp//libucosii_bsp.a(alt_tick.o)
 .debug_abbrev  0x000000000001cbc3      0x1f8 ../MOD_socket_server_bsp//libucosii_bsp.a(alt_uncached_free.o)
 .debug_abbrev  0x000000000001cdbb      0x1fa ../MOD_socket_server_bsp//libucosii_bsp.a(alt_uncached_malloc.o)
 .debug_abbrev  0x000000000001cfb5      0x23f ../MOD_socket_server_bsp//libucosii_bsp.a(alt_usleep.o)
 .debug_abbrev  0x000000000001d1f4      0x265 ../MOD_socket_server_bsp//libucosii_bsp.a(alt_write.o)
 .debug_abbrev  0x000000000001d459      0x1e5 ../MOD_socket_server_bsp//libucosii_bsp.a(altera_nios2_gen2_irq.o)
 .debug_abbrev  0x000000000001d63e       0x14 ../MOD_socket_server_bsp//libucosii_bsp.a(os_cpu_a.o)
 .debug_abbrev  0x000000000001d652      0x28d ../MOD_socket_server_bsp//libucosii_bsp.a(os_cpu_c.o)
 .debug_abbrev  0x000000000001d8df      0x339 ../MOD_socket_server_bsp//libucosii_bsp.a(allports.o)
 .debug_abbrev  0x000000000001dc18      0x2b1 ../MOD_socket_server_bsp//libucosii_bsp.a(timeouts.o)
 .debug_abbrev  0x000000000001dec9      0x272 ../MOD_socket_server_bsp//libucosii_bsp.a(tk_misc.o)
 .debug_abbrev  0x000000000001e13b      0x27a ../MOD_socket_server_bsp//libucosii_bsp.a(alt_iniche_fcntl.o)
 .debug_abbrev  0x000000000001e3b5      0x35c ../MOD_socket_server_bsp//libucosii_bsp.a(et_arp.o)
 .debug_abbrev  0x000000000001e711      0x2e4 ../MOD_socket_server_bsp//libucosii_bsp.a(iface.o)
 .debug_abbrev  0x000000000001e9f5      0x349 ../MOD_socket_server_bsp//libucosii_bsp.a(ip.o)
 .debug_abbrev  0x000000000001ed3e      0x339 ../MOD_socket_server_bsp//libucosii_bsp.a(ip_reasm.o)
 .debug_abbrev  0x000000000001f077      0x2d9 ../MOD_socket_server_bsp//libucosii_bsp.a(ipdemux.o)
 .debug_abbrev  0x000000000001f350      0x2a6 ../MOD_socket_server_bsp//libucosii_bsp.a(ipmc.o)
 .debug_abbrev  0x000000000001f5f6      0x2a0 ../MOD_socket_server_bsp//libucosii_bsp.a(ipport.o)
 .debug_abbrev  0x000000000001f896      0x347 ../MOD_socket_server_bsp//libucosii_bsp.a(ipraw.o)
 .debug_abbrev  0x000000000001fbdd      0x2ea ../MOD_socket_server_bsp//libucosii_bsp.a(iproute.o)
 .debug_abbrev  0x000000000001fec7      0x373 ../MOD_socket_server_bsp//libucosii_bsp.a(udp.o)
 .debug_abbrev  0x000000000002023a      0x26e ../MOD_socket_server_bsp//libucosii_bsp.a(igmp.o)
 .debug_abbrev  0x00000000000204a8      0x2f7 ../MOD_socket_server_bsp//libucosii_bsp.a(igmp2.o)
 .debug_abbrev  0x000000000002079f      0x319 ../MOD_socket_server_bsp//libucosii_bsp.a(ipopt.o)
 .debug_abbrev  0x0000000000020ab8      0x29e ../MOD_socket_server_bsp//libucosii_bsp.a(u_mctest.o)
 .debug_abbrev  0x0000000000020d56      0x27e ../MOD_socket_server_bsp//libucosii_bsp.a(dhcsetup.o)
 .debug_abbrev  0x0000000000020fd4      0x2e6 ../MOD_socket_server_bsp//libucosii_bsp.a(memdev.o)
 .debug_abbrev  0x00000000000212ba      0x35d ../MOD_socket_server_bsp//libucosii_bsp.a(parseip.o)
 .debug_abbrev  0x0000000000021617      0x26e ../MOD_socket_server_bsp//libucosii_bsp.a(tcpcksum.o)
 .debug_abbrev  0x0000000000021885      0x360 ../MOD_socket_server_bsp//libucosii_bsp.a(in_pcb.o)
 .debug_abbrev  0x0000000000021be5      0x350 ../MOD_socket_server_bsp//libucosii_bsp.a(vfsfiles.o)
 .debug_abbrev  0x0000000000021f35      0x208 ../MOD_socket_server_bsp//libucosii_bsp.a(vfsport.o)
 .debug_abbrev  0x000000000002213d       0x12 ../MOD_socket_server_bsp//libucosii_bsp.a(alt_exception_entry.o)
 .debug_abbrev  0x000000000002214f      0x26e ../MOD_socket_server_bsp//libucosii_bsp.a(alt_fcntl.o)
 .debug_abbrev  0x00000000000223bd      0x22a ../MOD_socket_server_bsp//libucosii_bsp.a(alt_find_file.o)
 .debug_abbrev  0x00000000000225e7      0x28d ../MOD_socket_server_bsp//libucosii_bsp.a(alt_get_fd.o)
 .debug_abbrev  0x0000000000022874       0xea ../MOD_socket_server_bsp//libucosii_bsp.a(alt_instruction_exception_entry.o)
 .debug_abbrev  0x000000000002295e      0x2d3 ../MOD_socket_server_bsp//libucosii_bsp.a(icmp.o)
 .debug_abbrev  0x0000000000022c31      0x243 /home/tom/intelFPGA_lite/20.1/nios2eds/bin/gnu/H-x86_64-pc-linux-gnu/bin/../lib/gcc/nios2-elf/9.2.1/../../../../../H-x86_64-pc-linux-gnu/nios2-elf/lib/libc.a(lib_a-atexit.o)
 .debug_abbrev  0x0000000000022e74      0x225 /home/tom/intelFPGA_lite/20.1/nios2eds/bin/gnu/H-x86_64-pc-linux-gnu/bin/../lib/gcc/nios2-elf/9.2.1/../../../../../H-x86_64-pc-linux-gnu/nios2-elf/lib/libc.a(lib_a-atoi.o)
 .debug_abbrev  0x0000000000023099      0x230 /home/tom/intelFPGA_lite/20.1/nios2eds/bin/gnu/H-x86_64-pc-linux-gnu/bin/../lib/gcc/nios2-elf/9.2.1/../../../../../H-x86_64-pc-linux-gnu/nios2-elf/lib/libc.a(lib_a-exit.o)
 .debug_abbrev  0x00000000000232c9      0x241 /home/tom/intelFPGA_lite/20.1/nios2eds/bin/gnu/H-x86_64-pc-linux-gnu/bin/../lib/gcc/nios2-elf/9.2.1/../../../../../H-x86_64-pc-linux-gnu/nios2-elf/lib/libc.a(lib_a-malloc.o)
 .debug_abbrev  0x000000000002350a      0x20d /home/tom/intelFPGA_lite/20.1/nios2eds/bin/gnu/H-x86_64-pc-linux-gnu/bin/../lib/gcc/nios2-elf/9.2.1/../../../../../H-x86_64-pc-linux-gnu/nios2-elf/lib/libc.a(lib_a-strchr.o)
 .debug_abbrev  0x0000000000023717      0x1f9 /home/tom/intelFPGA_lite/20.1/nios2eds/bin/gnu/H-x86_64-pc-linux-gnu/bin/../lib/gcc/nios2-elf/9.2.1/../../../../../H-x86_64-pc-linux-gnu/nios2-elf/lib/libc.a(lib_a-strncmp.o)
 .debug_abbrev  0x0000000000023910      0x214 /home/tom/intelFPGA_lite/20.1/nios2eds/bin/gnu/H-x86_64-pc-linux-gnu/bin/../lib/gcc/nios2-elf/9.2.1/../../../../../H-x86_64-pc-linux-gnu/nios2-elf/lib/libc.a(lib_a-strncpy.o)
 .debug_abbrev  0x0000000000023b24      0x2db /home/tom/intelFPGA_lite/20.1/nios2eds/bin/gnu/H-x86_64-pc-linux-gnu/bin/../lib/gcc/nios2-elf/9.2.1/../../../../../H-x86_64-pc-linux-gnu/nios2-elf/lib/libc.a(lib_a-strtol.o)
 .debug_abbrev  0x0000000000023dff      0x28c /home/tom/intelFPGA_lite/20.1/nios2eds/bin/gnu/H-x86_64-pc-linux-gnu/bin/../lib/gcc/nios2-elf/9.2.1/../../../../../H-x86_64-pc-linux-gnu/nios2-elf/lib/libc.a(lib_a-vprintf.o)
 .debug_abbrev  0x000000000002408b      0x2c2 /home/tom/intelFPGA_lite/20.1/nios2eds/bin/gnu/H-x86_64-pc-linux-gnu/bin/../lib/gcc/nios2-elf/9.2.1/../../../../../H-x86_64-pc-linux-gnu/nios2-elf/lib/libc.a(lib_a-vsprintf.o)
 .debug_abbrev  0x000000000002434d      0x263 /home/tom/intelFPGA_lite/20.1/nios2eds/bin/gnu/H-x86_64-pc-linux-gnu/bin/../lib/gcc/nios2-elf/9.2.1/../../../../../H-x86_64-pc-linux-gnu/nios2-elf/lib/libc.a(lib_a-__atexit.o)
 .debug_abbrev  0x00000000000245b0      0x26c /home/tom/intelFPGA_lite/20.1/nios2eds/bin/gnu/H-x86_64-pc-linux-gnu/bin/../lib/gcc/nios2-elf/9.2.1/../../../../../H-x86_64-pc-linux-gnu/nios2-elf/lib/libc.a(lib_a-__call_atexit.o)
 .debug_abbrev  0x000000000002481c      0x276 /home/tom/intelFPGA_lite/20.1/nios2eds/bin/gnu/H-x86_64-pc-linux-gnu/bin/../lib/gcc/nios2-elf/9.2.1/../../../../../H-x86_64-pc-linux-gnu/nios2-elf/lib/libc.a(lib_a-vfprintfr_1.o)

.debug_line     0x0000000000000000    0x445f1
 *(.debug_line)
 .debug_line    0x0000000000000000       0x51 ../MOD_socket_server_bsp//obj/HAL/src/crt0.o
 .debug_line    0x0000000000000051      0x263 obj/default/ClockModInit.o
 .debug_line    0x00000000000002b4      0xc65 obj/default/DELHProtocol.o
 .debug_line    0x0000000000000f19      0x696 obj/default/InitializePeriph.o
 .debug_line    0x00000000000015af      0x4b1 obj/default/alt_error_handler.o
 .debug_line    0x0000000000001a60      0x42d obj/default/iniche_init.o
 .debug_line    0x0000000000001e8d      0x2ee obj/default/led.o
 .debug_line    0x000000000000217b      0x53b obj/default/network_utilities.o
 .debug_line    0x00000000000026b6      0x490 obj/default/simple_socket_server.o
 .debug_line    0x0000000000002b46      0x358 obj/default/tse_my_system.o
 .debug_line    0x0000000000002e9e      0x24b /home/tom/intelFPGA_lite/20.1/nios2eds/bin/gnu/H-x86_64-pc-linux-gnu/bin/../lib/gcc/nios2-elf/9.2.1/../../../../../H-x86_64-pc-linux-gnu/nios2-elf/lib/libc.a(lib_a-ctype_.o)
 .debug_line    0x00000000000030e9      0x25f /home/tom/intelFPGA_lite/20.1/nios2eds/bin/gnu/H-x86_64-pc-linux-gnu/bin/../lib/gcc/nios2-elf/9.2.1/../../../../../H-x86_64-pc-linux-gnu/nios2-elf/lib/libc.a(lib_a-fprintf.o)
 .debug_line    0x0000000000003348      0x313 /home/tom/intelFPGA_lite/20.1/nios2eds/bin/gnu/H-x86_64-pc-linux-gnu/bin/../lib/gcc/nios2-elf/9.2.1/../../../../../H-x86_64-pc-linux-gnu/nios2-elf/lib/libc.a(lib_a-fwrite.o)
 .debug_line    0x000000000000365b      0x243 /home/tom/intelFPGA_lite/20.1/nios2eds/bin/gnu/H-x86_64-pc-linux-gnu/bin/../lib/gcc/nios2-elf/9.2.1/../../../../../H-x86_64-pc-linux-gnu/nios2-elf/lib/libc.a(lib_a-getchar.o)
 .debug_line    0x000000000000389e      0x163 /home/tom/intelFPGA_lite/20.1/nios2eds/bin/gnu/H-x86_64-pc-linux-gnu/bin/../lib/gcc/nios2-elf/9.2.1/../../../../../H-x86_64-pc-linux-gnu/nios2-elf/lib/libc.a(lib_a-impure.o)
 .debug_line    0x0000000000003a01      0x26a /home/tom/intelFPGA_lite/20.1/nios2eds/bin/gnu/H-x86_64-pc-linux-gnu/bin/../lib/gcc/nios2-elf/9.2.1/../../../../../H-x86_64-pc-linux-gnu/nios2-elf/lib/libc.a(lib_a-memcmp.o)
 .debug_line    0x0000000000003c6b      0x322 /home/tom/intelFPGA_lite/20.1/nios2eds/bin/gnu/H-x86_64-pc-linux-gnu/bin/../lib/gcc/nios2-elf/9.2.1/../../../../../H-x86_64-pc-linux-gnu/nios2-elf/lib/libc.a(lib_a-memcpy.o)
 .debug_line    0x0000000000003f8d      0x34a /home/tom/intelFPGA_lite/20.1/nios2eds/bin/gnu/H-x86_64-pc-linux-gnu/bin/../lib/gcc/nios2-elf/9.2.1/../../../../../H-x86_64-pc-linux-gnu/nios2-elf/lib/libc.a(lib_a-memset.o)
 .debug_line    0x00000000000042d7      0x3dc /home/tom/intelFPGA_lite/20.1/nios2eds/bin/gnu/H-x86_64-pc-linux-gnu/bin/../lib/gcc/nios2-elf/9.2.1/../../../../../H-x86_64-pc-linux-gnu/nios2-elf/lib/libc.a(lib_a-perror.o)
 .debug_line    0x00000000000046b3      0x268 /home/tom/intelFPGA_lite/20.1/nios2eds/bin/gnu/H-x86_64-pc-linux-gnu/bin/../lib/gcc/nios2-elf/9.2.1/../../../../../H-x86_64-pc-linux-gnu/nios2-elf/lib/libc.a(lib_a-printf.o)
 .debug_line    0x000000000000491b      0x243 /home/tom/intelFPGA_lite/20.1/nios2eds/bin/gnu/H-x86_64-pc-linux-gnu/bin/../lib/gcc/nios2-elf/9.2.1/../../../../../H-x86_64-pc-linux-gnu/nios2-elf/lib/libc.a(lib_a-putchar.o)
 .debug_line    0x0000000000004b5e      0x32f /home/tom/intelFPGA_lite/20.1/nios2eds/bin/gnu/H-x86_64-pc-linux-gnu/bin/../lib/gcc/nios2-elf/9.2.1/../../../../../H-x86_64-pc-linux-gnu/nios2-elf/lib/libc.a(lib_a-puts.o)
 .debug_line    0x0000000000004e8d      0x2dd /home/tom/intelFPGA_lite/20.1/nios2eds/bin/gnu/H-x86_64-pc-linux-gnu/bin/../lib/gcc/nios2-elf/9.2.1/../../../../../H-x86_64-pc-linux-gnu/nios2-elf/lib/libc.a(lib_a-sprintf.o)
 .debug_line    0x000000000000516a      0x26f /home/tom/intelFPGA_lite/20.1/nios2eds/bin/gnu/H-x86_64-pc-linux-gnu/bin/../lib/gcc/nios2-elf/9.2.1/../../../../../H-x86_64-pc-linux-gnu/nios2-elf/lib/libc.a(lib_a-strcpy.o)
 .debug_line    0x00000000000053d9      0x6bc /home/tom/intelFPGA_lite/20.1/nios2eds/bin/gnu/H-x86_64-pc-linux-gnu/bin/../lib/gcc/nios2-elf/9.2.1/../../../../../H-x86_64-pc-linux-gnu/nios2-elf/lib/libc.a(lib_a-strerror.o)
 .debug_line    0x0000000000005a95      0x25f /home/tom/intelFPGA_lite/20.1/nios2eds/bin/gnu/H-x86_64-pc-linux-gnu/bin/../lib/gcc/nios2-elf/9.2.1/../../../../../H-x86_64-pc-linux-gnu/nios2-elf/lib/libc.a(lib_a-strlen.o)
 .debug_line    0x0000000000005cf4      0x205 /home/tom/intelFPGA_lite/20.1/nios2eds/bin/gnu/H-x86_64-pc-linux-gnu/bin/../lib/gcc/nios2-elf/9.2.1/../../../../../H-x86_64-pc-linux-gnu/nios2-elf/lib/libc.a(lib_a-strtok.o)
 .debug_line    0x0000000000005ef9      0x30b /home/tom/intelFPGA_lite/20.1/nios2eds/bin/gnu/H-x86_64-pc-linux-gnu/bin/../lib/gcc/nios2-elf/9.2.1/../../../../../H-x86_64-pc-linux-gnu/nios2-elf/lib/libc.a(lib_a-strtok_r.o)
 .debug_line    0x0000000000006204      0x48a /home/tom/intelFPGA_lite/20.1/nios2eds/bin/gnu/H-x86_64-pc-linux-gnu/bin/../lib/gcc/nios2-elf/9.2.1/../../../../../H-x86_64-pc-linux-gnu/nios2-elf/lib/libc.a(lib_a-strtoul.o)
 .debug_line    0x000000000000668e     0x197d /home/tom/intelFPGA_lite/20.1/nios2eds/bin/gnu/H-x86_64-pc-linux-gnu/bin/../lib/gcc/nios2-elf/9.2.1/../../../../../H-x86_64-pc-linux-gnu/nios2-elf/lib/libc.a(lib_a-svfprintf.o)
 .debug_line    0x000000000000800b       0x77 /home/tom/intelFPGA_lite/20.1/nios2eds/bin/gnu/H-x86_64-pc-linux-gnu/bin/../lib/gcc/nios2-elf/9.2.1/../../../../../H-x86_64-pc-linux-gnu/nios2-elf/lib/libc.a(lib_a-u_strerr.o)
 .debug_line    0x0000000000008082     0x1acb /home/tom/intelFPGA_lite/20.1/nios2eds/bin/gnu/H-x86_64-pc-linux-gnu/bin/../lib/gcc/nios2-elf/9.2.1/../../../../../H-x86_64-pc-linux-gnu/nios2-elf/lib/libc.a(lib_a-vfprintf.o)
 .debug_line    0x0000000000009b4d      0x234 /home/tom/intelFPGA_lite/20.1/nios2eds/bin/gnu/H-x86_64-pc-linux-gnu/bin/../lib/gcc/nios2-elf/9.2.1/../../../../../H-x86_64-pc-linux-gnu/nios2-elf/lib/libc.a(lib_a-writer.o)
 .debug_line    0x0000000000009d81      0x39d /home/tom/intelFPGA_lite/20.1/nios2eds/bin/gnu/H-x86_64-pc-linux-gnu/bin/../lib/gcc/nios2-elf/9.2.1/../../../../../H-x86_64-pc-linux-gnu/nios2-elf/lib/libc.a(lib_a-wsetup.o)
 .debug_line    0x000000000000a11e     0x1626 /home/tom/intelFPGA_lite/20.1/nios2eds/bin/gnu/H-x86_64-pc-linux-gnu/bin/../lib/gcc/nios2-elf/9.2.1/../../../../../H-x86_64-pc-linux-gnu/nios2-elf/lib/libc.a(lib_a-dtoa.o)
 .debug_line    0x000000000000b744      0x504 /home/tom/intelFPGA_lite/20.1/nios2eds/bin/gnu/H-x86_64-pc-linux-gnu/bin/../lib/gcc/nios2-elf/9.2.1/../../../../../H-x86_64-pc-linux-gnu/nios2-elf/lib/libc.a(lib_a-fflush.o)
 .debug_line    0x000000000000bc48      0x28a /home/tom/intelFPGA_lite/20.1/nios2eds/bin/gnu/H-x86_64-pc-linux-gnu/bin/../lib/gcc/nios2-elf/9.2.1/../../../../../H-x86_64-pc-linux-gnu/nios2-elf/lib/libc.a(lib_a-fileno.o)
 .debug_line    0x000000000000bed2      0x681 /home/tom/intelFPGA_lite/20.1/nios2eds/bin/gnu/H-x86_64-pc-linux-gnu/bin/../lib/gcc/nios2-elf/9.2.1/../../../../../H-x86_64-pc-linux-gnu/nios2-elf/lib/libc.a(lib_a-findfp.o)
 .debug_line    0x000000000000c553      0x5c2 /home/tom/intelFPGA_lite/20.1/nios2eds/bin/gnu/H-x86_64-pc-linux-gnu/bin/../lib/gcc/nios2-elf/9.2.1/../../../../../H-x86_64-pc-linux-gnu/nios2-elf/lib/libc.a(lib_a-freer.o)
 .debug_line    0x000000000000cb15      0x6f3 /home/tom/intelFPGA_lite/20.1/nios2eds/bin/gnu/H-x86_64-pc-linux-gnu/bin/../lib/gcc/nios2-elf/9.2.1/../../../../../H-x86_64-pc-linux-gnu/nios2-elf/lib/libc.a(lib_a-fvwrite.o)
 .debug_line    0x000000000000d208      0x393 /home/tom/intelFPGA_lite/20.1/nios2eds/bin/gnu/H-x86_64-pc-linux-gnu/bin/../lib/gcc/nios2-elf/9.2.1/../../../../../H-x86_64-pc-linux-gnu/nios2-elf/lib/libc.a(lib_a-fwalk.o)
 .debug_line    0x000000000000d59b      0x38f /home/tom/intelFPGA_lite/20.1/nios2eds/bin/gnu/H-x86_64-pc-linux-gnu/bin/../lib/gcc/nios2-elf/9.2.1/../../../../../H-x86_64-pc-linux-gnu/nios2-elf/lib/libc.a(lib_a-getc.o)
 .debug_line    0x000000000000d92a      0x1d5 /home/tom/intelFPGA_lite/20.1/nios2eds/bin/gnu/H-x86_64-pc-linux-gnu/bin/../lib/gcc/nios2-elf/9.2.1/../../../../../H-x86_64-pc-linux-gnu/nios2-elf/lib/libc.a(lib_a-int_errno.o)
 .debug_line    0x000000000000daff      0x295 /home/tom/intelFPGA_lite/20.1/nios2eds/bin/gnu/H-x86_64-pc-linux-gnu/bin/../lib/gcc/nios2-elf/9.2.1/../../../../../H-x86_64-pc-linux-gnu/nios2-elf/lib/libc.a(lib_a-localeconv.o)
 .debug_line    0x000000000000dd94      0x47d /home/tom/intelFPGA_lite/20.1/nios2eds/bin/gnu/H-x86_64-pc-linux-gnu/bin/../lib/gcc/nios2-elf/9.2.1/../../../../../H-x86_64-pc-linux-gnu/nios2-elf/lib/libc.a(lib_a-makebuf.o)
 .debug_line    0x000000000000e211      0x924 /home/tom/intelFPGA_lite/20.1/nios2eds/bin/gnu/H-x86_64-pc-linux-gnu/bin/../lib/gcc/nios2-elf/9.2.1/../../../../../H-x86_64-pc-linux-gnu/nios2-elf/lib/libc.a(lib_a-mallocr.o)
 .debug_line    0x000000000000eb35      0x2b3 /home/tom/intelFPGA_lite/20.1/nios2eds/bin/gnu/H-x86_64-pc-linux-gnu/bin/../lib/gcc/nios2-elf/9.2.1/../../../../../H-x86_64-pc-linux-gnu/nios2-elf/lib/libc.a(lib_a-memchr.o)
 .debug_line    0x000000000000ede8      0x35b /home/tom/intelFPGA_lite/20.1/nios2eds/bin/gnu/H-x86_64-pc-linux-gnu/bin/../lib/gcc/nios2-elf/9.2.1/../../../../../H-x86_64-pc-linux-gnu/nios2-elf/lib/libc.a(lib_a-memmove.o)
 .debug_line    0x000000000000f143     0x1798 /home/tom/intelFPGA_lite/20.1/nios2eds/bin/gnu/H-x86_64-pc-linux-gnu/bin/../lib/gcc/nios2-elf/9.2.1/../../../../../H-x86_64-pc-linux-gnu/nios2-elf/lib/libc.a(lib_a-mprec.o)
 .debug_line    0x00000000000108db      0x3bd /home/tom/intelFPGA_lite/20.1/nios2eds/bin/gnu/H-x86_64-pc-linux-gnu/bin/../lib/gcc/nios2-elf/9.2.1/../../../../../H-x86_64-pc-linux-gnu/nios2-elf/lib/libc.a(lib_a-putc.o)
 .debug_line    0x0000000000010c98      0x756 /home/tom/intelFPGA_lite/20.1/nios2eds/bin/gnu/H-x86_64-pc-linux-gnu/bin/../lib/gcc/nios2-elf/9.2.1/../../../../../H-x86_64-pc-linux-gnu/nios2-elf/lib/libc.a(lib_a-reallocr.o)
 .debug_line    0x00000000000113ee      0x2a4 /home/tom/intelFPGA_lite/20.1/nios2eds/bin/gnu/H-x86_64-pc-linux-gnu/bin/../lib/gcc/nios2-elf/9.2.1/../../../../../H-x86_64-pc-linux-gnu/nios2-elf/lib/libc.a(lib_a-rget.o)
 .debug_line    0x0000000000011692      0x233 /home/tom/intelFPGA_lite/20.1/nios2eds/bin/gnu/H-x86_64-pc-linux-gnu/bin/../lib/gcc/nios2-elf/9.2.1/../../../../../H-x86_64-pc-linux-gnu/nios2-elf/lib/libc.a(lib_a-sbrkr.o)
 .debug_line    0x00000000000118c5      0x358 /home/tom/intelFPGA_lite/20.1/nios2eds/bin/gnu/H-x86_64-pc-linux-gnu/bin/../lib/gcc/nios2-elf/9.2.1/../../../../../H-x86_64-pc-linux-gnu/nios2-elf/lib/libc.a(lib_a-stdio.o)
 .debug_line    0x0000000000011c1d     0x110f /home/tom/intelFPGA_lite/20.1/nios2eds/bin/gnu/H-x86_64-pc-linux-gnu/bin/../lib/gcc/nios2-elf/9.2.1/../../../../../H-x86_64-pc-linux-gnu/nios2-elf/lib/libc.a(lib_a-svfiprintf.o)
 .debug_line    0x0000000000012d2c     0x14af /home/tom/intelFPGA_lite/20.1/nios2eds/bin/gnu/H-x86_64-pc-linux-gnu/bin/../lib/gcc/nios2-elf/9.2.1/../../../../../H-x86_64-pc-linux-gnu/nios2-elf/lib/libc.a(lib_a-vfiprintf.o)
 .debug_line    0x00000000000141db      0x39e /home/tom/intelFPGA_lite/20.1/nios2eds/bin/gnu/H-x86_64-pc-linux-gnu/bin/../lib/gcc/nios2-elf/9.2.1/../../../../../H-x86_64-pc-linux-gnu/nios2-elf/lib/libc.a(lib_a-wbuf.o)
 .debug_line    0x0000000000014579      0x233 /home/tom/intelFPGA_lite/20.1/nios2eds/bin/gnu/H-x86_64-pc-linux-gnu/bin/../lib/gcc/nios2-elf/9.2.1/../../../../../H-x86_64-pc-linux-gnu/nios2-elf/lib/libc.a(closer.o)
 .debug_line    0x00000000000147ac      0x24c /home/tom/intelFPGA_lite/20.1/nios2eds/bin/gnu/H-x86_64-pc-linux-gnu/bin/../lib/gcc/nios2-elf/9.2.1/../../../../../H-x86_64-pc-linux-gnu/nios2-elf/lib/libc.a(lib_a-assert.o)
 .debug_line    0x00000000000149f8      0x27b /home/tom/intelFPGA_lite/20.1/nios2eds/bin/gnu/H-x86_64-pc-linux-gnu/bin/../lib/gcc/nios2-elf/9.2.1/../../../../../H-x86_64-pc-linux-gnu/nios2-elf/lib/libc.a(lib_a-callocr.o)
 .debug_line    0x0000000000014c73      0x31f /home/tom/intelFPGA_lite/20.1/nios2eds/bin/gnu/H-x86_64-pc-linux-gnu/bin/../lib/gcc/nios2-elf/9.2.1/../../../../../H-x86_64-pc-linux-gnu/nios2-elf/lib/libc.a(lib_a-fclose.o)
 .debug_line    0x0000000000014f92      0x234 /home/tom/intelFPGA_lite/20.1/nios2eds/bin/gnu/H-x86_64-pc-linux-gnu/bin/../lib/gcc/nios2-elf/9.2.1/../../../../../H-x86_64-pc-linux-gnu/nios2-elf/lib/libc.a(lib_a-fiprintf.o)
 .debug_line    0x00000000000151c6      0x41a /home/tom/intelFPGA_lite/20.1/nios2eds/bin/gnu/H-x86_64-pc-linux-gnu/bin/../lib/gcc/nios2-elf/9.2.1/../../../../../H-x86_64-pc-linux-gnu/nios2-elf/lib/libc.a(lib_a-fputwc.o)
 .debug_line    0x00000000000155e0      0x2ef /home/tom/intelFPGA_lite/20.1/nios2eds/bin/gnu/H-x86_64-pc-linux-gnu/bin/../lib/gcc/nios2-elf/9.2.1/../../../../../H-x86_64-pc-linux-gnu/nios2-elf/lib/libc.a(lib_a-fstatr.o)
 .debug_line    0x00000000000158cf      0x234 /home/tom/intelFPGA_lite/20.1/nios2eds/bin/gnu/H-x86_64-pc-linux-gnu/bin/../lib/gcc/nios2-elf/9.2.1/../../../../../H-x86_64-pc-linux-gnu/nios2-elf/lib/libc.a(lib_a-isattyr.o)
 .debug_line    0x0000000000015b03      0x35d /home/tom/intelFPGA_lite/20.1/nios2eds/bin/gnu/H-x86_64-pc-linux-gnu/bin/../lib/gcc/nios2-elf/9.2.1/../../../../../H-x86_64-pc-linux-gnu/nios2-elf/lib/libc.a(lib_a-locale.o)
 .debug_line    0x0000000000015e60      0x234 /home/tom/intelFPGA_lite/20.1/nios2eds/bin/gnu/H-x86_64-pc-linux-gnu/bin/../lib/gcc/nios2-elf/9.2.1/../../../../../H-x86_64-pc-linux-gnu/nios2-elf/lib/libc.a(lib_a-lseekr.o)
 .debug_line    0x0000000000016094      0x2da /home/tom/intelFPGA_lite/20.1/nios2eds/bin/gnu/H-x86_64-pc-linux-gnu/bin/../lib/gcc/nios2-elf/9.2.1/../../../../../H-x86_64-pc-linux-gnu/nios2-elf/lib/libc.a(lib_a-mbtowc_r.o)
 .debug_line    0x000000000001636e      0x233 /home/tom/intelFPGA_lite/20.1/nios2eds/bin/gnu/H-x86_64-pc-linux-gnu/bin/../lib/gcc/nios2-elf/9.2.1/../../../../../H-x86_64-pc-linux-gnu/nios2-elf/lib/libc.a(lib_a-readr.o)
 .debug_line    0x00000000000165a1      0x40b /home/tom/intelFPGA_lite/20.1/nios2eds/bin/gnu/H-x86_64-pc-linux-gnu/bin/../lib/gcc/nios2-elf/9.2.1/../../../../../H-x86_64-pc-linux-gnu/nios2-elf/lib/libc.a(lib_a-refill.o)
 .debug_line    0x00000000000169ac      0x282 /home/tom/intelFPGA_lite/20.1/nios2eds/bin/gnu/H-x86_64-pc-linux-gnu/bin/../lib/gcc/nios2-elf/9.2.1/../../../../../H-x86_64-pc-linux-gnu/nios2-elf/lib/libc.a(lib_a-strcmp.o)
 .debug_line    0x0000000000016c2e      0x22b /home/tom/intelFPGA_lite/20.1/nios2eds/bin/gnu/H-x86_64-pc-linux-gnu/bin/../lib/gcc/nios2-elf/9.2.1/../../../../../H-x86_64-pc-linux-gnu/nios2-elf/lib/libc.a(lib_a-vfiprintfr_1.o)
 .debug_line    0x0000000000016e59      0x376 /home/tom/intelFPGA_lite/20.1/nios2eds/bin/gnu/H-x86_64-pc-linux-gnu/bin/../lib/gcc/nios2-elf/9.2.1/../../../../../H-x86_64-pc-linux-gnu/nios2-elf/lib/libc.a(lib_a-wcrtomb.o)
 .debug_line    0x00000000000171cf      0x2c7 /home/tom/intelFPGA_lite/20.1/nios2eds/bin/gnu/H-x86_64-pc-linux-gnu/bin/../lib/gcc/nios2-elf/9.2.1/../../../../../H-x86_64-pc-linux-gnu/nios2-elf/lib/libc.a(lib_a-wctomb_r.o)
 .debug_line    0x0000000000017496      0x214 /home/tom/intelFPGA_lite/20.1/nios2eds/bin/gnu/H-x86_64-pc-linux-gnu/bin/../lib/gcc/nios2-elf/9.2.1/../../../../../H-x86_64-pc-linux-gnu/nios2-elf/lib/libc.a(lib_a-abort.o)
 .debug_line    0x00000000000176aa      0x4e0 /home/tom/intelFPGA_lite/20.1/nios2eds/bin/gnu/H-x86_64-pc-linux-gnu/bin/../lib/gcc/nios2-elf/9.2.1/../../../../../H-x86_64-pc-linux-gnu/nios2-elf/lib/libc.a(lib_a-signal.o)
 .debug_line    0x0000000000017b8a      0x25f /home/tom/intelFPGA_lite/20.1/nios2eds/bin/gnu/H-x86_64-pc-linux-gnu/bin/../lib/gcc/nios2-elf/9.2.1/../../../../../H-x86_64-pc-linux-gnu/nios2-elf/lib/libc.a(lib_a-signalr.o)
 .debug_line    0x0000000000017de9      0x373 /home/tom/intelFPGA_lite/20.1/nios2eds/bin/gnu/H-x86_64-pc-linux-gnu/bin/../lib/gcc/nios2-elf/9.2.1/libgcc.a(_udivdi3.o)
 .debug_line    0x000000000001815c      0x3ca /home/tom/intelFPGA_lite/20.1/nios2eds/bin/gnu/H-x86_64-pc-linux-gnu/bin/../lib/gcc/nios2-elf/9.2.1/libgcc.a(_umoddi3.o)
 .debug_line    0x0000000000018526      0x2f6 /home/tom/intelFPGA_lite/20.1/nios2eds/bin/gnu/H-x86_64-pc-linux-gnu/bin/../lib/gcc/nios2-elf/9.2.1/libgcc.a(lib2-divmod.o)
 .debug_line    0x000000000001881c      0xe4b /home/tom/intelFPGA_lite/20.1/nios2eds/bin/gnu/H-x86_64-pc-linux-gnu/bin/../lib/gcc/nios2-elf/9.2.1/libgcc.a(adddf3.o)
 .debug_line    0x0000000000019667      0xacb /home/tom/intelFPGA_lite/20.1/nios2eds/bin/gnu/H-x86_64-pc-linux-gnu/bin/../lib/gcc/nios2-elf/9.2.1/libgcc.a(divdf3.o)
 .debug_line    0x000000000001a132      0x14f /home/tom/intelFPGA_lite/20.1/nios2eds/bin/gnu/H-x86_64-pc-linux-gnu/bin/../lib/gcc/nios2-elf/9.2.1/libgcc.a(eqdf2.o)
 .debug_line    0x000000000001a281      0x1a7 /home/tom/intelFPGA_lite/20.1/nios2eds/bin/gnu/H-x86_64-pc-linux-gnu/bin/../lib/gcc/nios2-elf/9.2.1/libgcc.a(gedf2.o)
 .debug_line    0x000000000001a428      0x1a6 /home/tom/intelFPGA_lite/20.1/nios2eds/bin/gnu/H-x86_64-pc-linux-gnu/bin/../lib/gcc/nios2-elf/9.2.1/libgcc.a(ledf2.o)
 .debug_line    0x000000000001a5ce      0x999 /home/tom/intelFPGA_lite/20.1/nios2eds/bin/gnu/H-x86_64-pc-linux-gnu/bin/../lib/gcc/nios2-elf/9.2.1/libgcc.a(muldf3.o)
 .debug_line    0x000000000001af67      0xe1e /home/tom/intelFPGA_lite/20.1/nios2eds/bin/gnu/H-x86_64-pc-linux-gnu/bin/../lib/gcc/nios2-elf/9.2.1/libgcc.a(subdf3.o)
 .debug_line    0x000000000001bd85      0x115 /home/tom/intelFPGA_lite/20.1/nios2eds/bin/gnu/H-x86_64-pc-linux-gnu/bin/../lib/gcc/nios2-elf/9.2.1/libgcc.a(unorddf2.o)
 .debug_line    0x000000000001be9a      0x164 /home/tom/intelFPGA_lite/20.1/nios2eds/bin/gnu/H-x86_64-pc-linux-gnu/bin/../lib/gcc/nios2-elf/9.2.1/libgcc.a(fixdfsi.o)
 .debug_line    0x000000000001bffe      0x1ec /home/tom/intelFPGA_lite/20.1/nios2eds/bin/gnu/H-x86_64-pc-linux-gnu/bin/../lib/gcc/nios2-elf/9.2.1/libgcc.a(floatsidf.o)
 .debug_line    0x000000000001c1ea      0x1dc /home/tom/intelFPGA_lite/20.1/nios2eds/bin/gnu/H-x86_64-pc-linux-gnu/bin/../lib/gcc/nios2-elf/9.2.1/libgcc.a(floatunsidf.o)
 .debug_line    0x000000000001c3c6       0xab /home/tom/intelFPGA_lite/20.1/nios2eds/bin/gnu/H-x86_64-pc-linux-gnu/bin/../lib/gcc/nios2-elf/9.2.1/libgcc.a(_clz.o)
 .debug_line    0x000000000001c471       0xff /home/tom/intelFPGA_lite/20.1/nios2eds/bin/gnu/H-x86_64-pc-linux-gnu/bin/../lib/gcc/nios2-elf/9.2.1/libgcc.a(_clzsi2.o)
 .debug_line    0x000000000001c570      0x216 ../MOD_socket_server_bsp//libucosii_bsp.a(alt_exit.o)
 .debug_line    0x000000000001c786      0x361 ../MOD_socket_server_bsp//libucosii_bsp.a(alt_fstat.o)
 .debug_line    0x000000000001cae7       0x4c ../MOD_socket_server_bsp//libucosii_bsp.a(alt_getpid.o)
 .debug_line    0x000000000001cb33      0x363 ../MOD_socket_server_bsp//libucosii_bsp.a(alt_isatty.o)
 .debug_line    0x000000000001ce96      0x1cd ../MOD_socket_server_bsp//libucosii_bsp.a(alt_kill.o)
 .debug_line    0x000000000001d063      0x27d ../MOD_socket_server_bsp//libucosii_bsp.a(alt_lseek.o)
 .debug_line    0x000000000001d2e0      0x375 ../MOD_socket_server_bsp//libucosii_bsp.a(alt_main.o)
 .debug_line    0x000000000001d655      0x1c7 ../MOD_socket_server_bsp//libucosii_bsp.a(alt_sbrk.o)
 .debug_line    0x000000000001d81c      0x23a ../MOD_socket_server_bsp//libucosii_bsp.a(alt_env_lock.o)
 .debug_line    0x000000000001da56      0x2c5 ../MOD_socket_server_bsp//libucosii_bsp.a(alt_malloc_lock.o)
 .debug_line    0x000000000001dd1b      0xd2d ../MOD_socket_server_bsp//libucosii_bsp.a(os_core.o)
 .debug_line    0x000000000001ea48      0x1ed ../MOD_socket_server_bsp//libucosii_bsp.a(os_dbg.o)
 .debug_line    0x000000000001ec35      0xa32 ../MOD_socket_server_bsp//libucosii_bsp.a(os_flag.o)
 .debug_line    0x000000000001f667      0x4e2 ../MOD_socket_server_bsp//libucosii_bsp.a(os_mem.o)
 .debug_line    0x000000000001fb49      0x896 ../MOD_socket_server_bsp//libucosii_bsp.a(os_q.o)
 .debug_line    0x00000000000203df      0x617 ../MOD_socket_server_bsp//libucosii_bsp.a(os_sem.o)
 .debug_line    0x00000000000209f6      0xa8a ../MOD_socket_server_bsp//libucosii_bsp.a(os_task.o)
 .debug_line    0x0000000000021480      0x3b5 ../MOD_socket_server_bsp//libucosii_bsp.a(os_time.o)
 .debug_line    0x0000000000021835      0x509 ../MOD_socket_server_bsp//libucosii_bsp.a(alt_sys_init.o)
 .debug_line    0x0000000000021d3e      0x30b ../MOD_socket_server_bsp//libucosii_bsp.a(altera_avalon_fifo_util.o)
 .debug_line    0x0000000000022049      0xa8f ../MOD_socket_server_bsp//libucosii_bsp.a(altera_avalon_i2c.o)
 .debug_line    0x0000000000022ad8      0x275 ../MOD_socket_server_bsp//libucosii_bsp.a(altera_avalon_jtag_uart_fd.o)
 .debug_line    0x0000000000022d4d      0x48c ../MOD_socket_server_bsp//libucosii_bsp.a(altera_avalon_jtag_uart_init.o)
 .debug_line    0x00000000000231d9      0x2e1 ../MOD_socket_server_bsp//libucosii_bsp.a(altera_avalon_jtag_uart_ioctl.o)
 .debug_line    0x00000000000234ba      0x3be ../MOD_socket_server_bsp//libucosii_bsp.a(altera_avalon_jtag_uart_read.o)
 .debug_line    0x0000000000023878      0x3c7 ../MOD_socket_server_bsp//libucosii_bsp.a(altera_avalon_jtag_uart_write.o)
 .debug_line    0x0000000000023c3f      0x122 ../MOD_socket_server_bsp//libucosii_bsp.a(altera_avalon_spi.o)
 .debug_line    0x0000000000023d61      0x22b ../MOD_socket_server_bsp//libucosii_bsp.a(altera_avalon_timer_sc.o)
 .debug_line    0x0000000000023f8c     0x1cc1 ../MOD_socket_server_bsp//libucosii_bsp.a(altera_avalon_tse.o)
 .debug_line    0x0000000000025c4d      0x609 ../MOD_socket_server_bsp//libucosii_bsp.a(altera_generic_quad_spi_controller.o)
 .debug_line    0x0000000000026256      0xc91 ../MOD_socket_server_bsp//libucosii_bsp.a(altera_msgdma.o)
 .debug_line    0x0000000000026ee7      0xb2e ../MOD_socket_server_bsp//libucosii_bsp.a(ins_tse_mac.o)
 .debug_line    0x0000000000027a15      0x32b ../MOD_socket_server_bsp//libucosii_bsp.a(alt_iniche_close.o)
 .debug_line    0x0000000000027d40      0x38b ../MOD_socket_server_bsp//libucosii_bsp.a(alt_iniche_dev.o)
 .debug_line    0x00000000000280cb      0x323 ../MOD_socket_server_bsp//libucosii_bsp.a(alt_iniche_read.o)
 .debug_line    0x00000000000283ee      0x318 ../MOD_socket_server_bsp//libucosii_bsp.a(alt_iniche_write.o)
 .debug_line    0x0000000000028706      0x721 ../MOD_socket_server_bsp//libucosii_bsp.a(ipnet.o)
 .debug_line    0x0000000000028e27      0x48e ../MOD_socket_server_bsp//libucosii_bsp.a(ipstart.o)
 .debug_line    0x00000000000292b5      0x71d ../MOD_socket_server_bsp//libucosii_bsp.a(igmp_cmn.o)
 .debug_line    0x00000000000299d2      0x68d ../MOD_socket_server_bsp//libucosii_bsp.a(bsdsock.o)
 .debug_line    0x000000000002a05f      0x2d0 ../MOD_socket_server_bsp//libucosii_bsp.a(cksum.o)
 .debug_line    0x000000000002a32f      0x679 ../MOD_socket_server_bsp//libucosii_bsp.a(in_utils.o)
 .debug_line    0x000000000002a9a8      0x3ea ../MOD_socket_server_bsp//libucosii_bsp.a(netmain.o)
 .debug_line    0x000000000002ad92      0x4c2 ../MOD_socket_server_bsp//libucosii_bsp.a(tk_crnos.o)
 .debug_line    0x000000000002b254      0xc8b ../MOD_socket_server_bsp//libucosii_bsp.a(dhcpclnt.o)
 .debug_line    0x000000000002bedf      0x2e0 ../MOD_socket_server_bsp//libucosii_bsp.a(dhcputil.o)
 .debug_line    0x000000000002c1bf      0x545 ../MOD_socket_server_bsp//libucosii_bsp.a(pktalloc.o)
 .debug_line    0x000000000002c704      0x34b ../MOD_socket_server_bsp//libucosii_bsp.a(q.o)
 .debug_line    0x000000000002ca4f      0x3d2 ../MOD_socket_server_bsp//libucosii_bsp.a(udp_open.o)
 .debug_line    0x000000000002ce21       0xaf ../MOD_socket_server_bsp//libucosii_bsp.a(asm_cksum.o)
 .debug_line    0x000000000002ced0      0x35c ../MOD_socket_server_bsp//libucosii_bsp.a(brdutils.o)
 .debug_line    0x000000000002d22c      0x452 ../MOD_socket_server_bsp//libucosii_bsp.a(osportco.o)
 .debug_line    0x000000000002d67e      0x551 ../MOD_socket_server_bsp//libucosii_bsp.a(targnios.o)
 .debug_line    0x000000000002dbcf      0xad4 ../MOD_socket_server_bsp//libucosii_bsp.a(nptcp.o)
 .debug_line    0x000000000002e6a3      0x621 ../MOD_socket_server_bsp//libucosii_bsp.a(rawsock.o)
 .debug_line    0x000000000002ecc4      0xa72 ../MOD_socket_server_bsp//libucosii_bsp.a(sockcall.o)
 .debug_line    0x000000000002f736      0xe46 ../MOD_socket_server_bsp//libucosii_bsp.a(socket.o)
 .debug_line    0x000000000003057c      0x87e ../MOD_socket_server_bsp//libucosii_bsp.a(socket2.o)
 .debug_line    0x0000000000030dfa      0x60f ../MOD_socket_server_bsp//libucosii_bsp.a(soselect.o)
 .debug_line    0x0000000000031409     0x129d ../MOD_socket_server_bsp//libucosii_bsp.a(tcp_in.o)
 .debug_line    0x00000000000326a6      0x9fd ../MOD_socket_server_bsp//libucosii_bsp.a(tcp_out.o)
 .debug_line    0x00000000000330a3      0x62e ../MOD_socket_server_bsp//libucosii_bsp.a(tcp_subr.o)
 .debug_line    0x00000000000336d1      0x5ec ../MOD_socket_server_bsp//libucosii_bsp.a(tcp_timr.o)
 .debug_line    0x0000000000033cbd      0x672 ../MOD_socket_server_bsp//libucosii_bsp.a(tcp_usr.o)
 .debug_line    0x000000000003432f      0x331 ../MOD_socket_server_bsp//libucosii_bsp.a(tcpport.o)
 .debug_line    0x0000000000034660      0x6b8 ../MOD_socket_server_bsp//libucosii_bsp.a(udpsock.o)
 .debug_line    0x0000000000034d18      0x230 ../MOD_socket_server_bsp//libucosii_bsp.a(alt_alarm_start.o)
 .debug_line    0x0000000000034f48      0x1ce ../MOD_socket_server_bsp//libucosii_bsp.a(alt_busy_sleep.o)
 .debug_line    0x0000000000035116      0x298 ../MOD_socket_server_bsp//libucosii_bsp.a(alt_close.o)
 .debug_line    0x00000000000353ae      0x1b9 ../MOD_socket_server_bsp//libucosii_bsp.a(alt_dcache_flush.o)
 .debug_line    0x0000000000035567      0x2f8 ../MOD_socket_server_bsp//libucosii_bsp.a(alt_dev.o)
 .debug_line    0x000000000003585f      0x1fe ../MOD_socket_server_bsp//libucosii_bsp.a(alt_dev_llist_insert.o)
 .debug_line    0x0000000000035a5d       0x66 ../MOD_socket_server_bsp//libucosii_bsp.a(alt_do_ctors.o)
 .debug_line    0x0000000000035ac3       0x66 ../MOD_socket_server_bsp//libucosii_bsp.a(alt_do_dtors.o)
 .debug_line    0x0000000000035b29      0x149 ../MOD_socket_server_bsp//libucosii_bsp.a(alt_errno.o)
 .debug_line    0x0000000000035c72      0x210 ../MOD_socket_server_bsp//libucosii_bsp.a(alt_find_dev.o)
 .debug_line    0x0000000000035e82      0x24d ../MOD_socket_server_bsp//libucosii_bsp.a(alt_flash_dev.o)
 .debug_line    0x00000000000360cf      0x21b ../MOD_socket_server_bsp//libucosii_bsp.a(alt_iic.o)
 .debug_line    0x00000000000362ea      0x1f4 ../MOD_socket_server_bsp//libucosii_bsp.a(alt_iic_isr_register.o)
 .debug_line    0x00000000000364de      0x32b ../MOD_socket_server_bsp//libucosii_bsp.a(alt_io_redirect.o)
 .debug_line    0x0000000000036809       0x6b ../MOD_socket_server_bsp//libucosii_bsp.a(alt_irq_entry.o)
 .debug_line    0x0000000000036874      0x24c ../MOD_socket_server_bsp//libucosii_bsp.a(alt_irq_handler.o)
 .debug_line    0x0000000000036ac0       0x50 ../MOD_socket_server_bsp//libucosii_bsp.a(alt_irq_vars.o)
 .debug_line    0x0000000000036b10      0x2db ../MOD_socket_server_bsp//libucosii_bsp.a(alt_open.o)
 .debug_line    0x0000000000036deb      0x15d ../MOD_socket_server_bsp//libucosii_bsp.a(alt_printf.o)
 .debug_line    0x0000000000036f48      0x13d ../MOD_socket_server_bsp//libucosii_bsp.a(alt_putchar.o)
 .debug_line    0x0000000000037085      0x392 ../MOD_socket_server_bsp//libucosii_bsp.a(alt_read.o)
 .debug_line    0x0000000000037417      0x1f1 ../MOD_socket_server_bsp//libucosii_bsp.a(alt_release_fd.o)
 .debug_line    0x0000000000037608      0x1be ../MOD_socket_server_bsp//libucosii_bsp.a(alt_remap_cached.o)
 .debug_line    0x00000000000377c6      0x2ab ../MOD_socket_server_bsp//libucosii_bsp.a(alt_tick.o)
 .debug_line    0x0000000000037a71      0x1a6 ../MOD_socket_server_bsp//libucosii_bsp.a(alt_uncached_free.o)
 .debug_line    0x0000000000037c17      0x1a8 ../MOD_socket_server_bsp//libucosii_bsp.a(alt_uncached_malloc.o)
 .debug_line    0x0000000000037dbf      0x23d ../MOD_socket_server_bsp//libucosii_bsp.a(alt_usleep.o)
 .debug_line    0x0000000000037ffc      0x395 ../MOD_socket_server_bsp//libucosii_bsp.a(alt_write.o)
 .debug_line    0x0000000000038391      0x14f ../MOD_socket_server_bsp//libucosii_bsp.a(altera_nios2_gen2_irq.o)
 .debug_line    0x00000000000384e0       0x86 ../MOD_socket_server_bsp//libucosii_bsp.a(os_cpu_a.o)
 .debug_line    0x0000000000038566      0x23c ../MOD_socket_server_bsp//libucosii_bsp.a(os_cpu_c.o)
 .debug_line    0x00000000000387a2      0x444 ../MOD_socket_server_bsp//libucosii_bsp.a(allports.o)
 .debug_line    0x0000000000038be6      0x43a ../MOD_socket_server_bsp//libucosii_bsp.a(timeouts.o)
 .debug_line    0x0000000000039020      0x363 ../MOD_socket_server_bsp//libucosii_bsp.a(tk_misc.o)
 .debug_line    0x0000000000039383      0x34c ../MOD_socket_server_bsp//libucosii_bsp.a(alt_iniche_fcntl.o)
 .debug_line    0x00000000000396cf      0x8b2 ../MOD_socket_server_bsp//libucosii_bsp.a(et_arp.o)
 .debug_line    0x0000000000039f81      0x412 ../MOD_socket_server_bsp//libucosii_bsp.a(iface.o)
 .debug_line    0x000000000003a393      0xcce ../MOD_socket_server_bsp//libucosii_bsp.a(ip.o)
 .debug_line    0x000000000003b061      0xb0e ../MOD_socket_server_bsp//libucosii_bsp.a(ip_reasm.o)
 .debug_line    0x000000000003bb6f      0x773 ../MOD_socket_server_bsp//libucosii_bsp.a(ipdemux.o)
 .debug_line    0x000000000003c2e2      0x3f1 ../MOD_socket_server_bsp//libucosii_bsp.a(ipmc.o)
 .debug_line    0x000000000003c6d3      0x314 ../MOD_socket_server_bsp//libucosii_bsp.a(ipport.o)
 .debug_line    0x000000000003c9e7      0x476 ../MOD_socket_server_bsp//libucosii_bsp.a(ipraw.o)
 .debug_line    0x000000000003ce5d      0x4cb ../MOD_socket_server_bsp//libucosii_bsp.a(iproute.o)
 .debug_line    0x000000000003d328      0x793 ../MOD_socket_server_bsp//libucosii_bsp.a(udp.o)
 .debug_line    0x000000000003dabb      0x3e4 ../MOD_socket_server_bsp//libucosii_bsp.a(igmp.o)
 .debug_line    0x000000000003de9f      0x506 ../MOD_socket_server_bsp//libucosii_bsp.a(igmp2.o)
 .debug_line    0x000000000003e3a5      0x658 ../MOD_socket_server_bsp//libucosii_bsp.a(ipopt.o)
 .debug_line    0x000000000003e9fd      0x478 ../MOD_socket_server_bsp//libucosii_bsp.a(u_mctest.o)
 .debug_line    0x000000000003ee75      0x3d3 ../MOD_socket_server_bsp//libucosii_bsp.a(dhcsetup.o)
 .debug_line    0x000000000003f248      0x3b8 ../MOD_socket_server_bsp//libucosii_bsp.a(memdev.o)
 .debug_line    0x000000000003f600      0x593 ../MOD_socket_server_bsp//libucosii_bsp.a(parseip.o)
 .debug_line    0x000000000003fb93      0x380 ../MOD_socket_server_bsp//libucosii_bsp.a(tcpcksum.o)
 .debug_line    0x000000000003ff13      0x5e1 ../MOD_socket_server_bsp//libucosii_bsp.a(in_pcb.o)
 .debug_line    0x00000000000404f4      0xad0 ../MOD_socket_server_bsp//libucosii_bsp.a(vfsfiles.o)
 .debug_line    0x0000000000040fc4      0x2b4 ../MOD_socket_server_bsp//libucosii_bsp.a(vfsport.o)
 .debug_line    0x0000000000041278       0xb3 ../MOD_socket_server_bsp//libucosii_bsp.a(alt_exception_entry.o)
 .debug_line    0x000000000004132b      0x398 ../MOD_socket_server_bsp//libucosii_bsp.a(alt_fcntl.o)
 .debug_line    0x00000000000416c3      0x23e ../MOD_socket_server_bsp//libucosii_bsp.a(alt_find_file.o)
 .debug_line    0x0000000000041901      0x254 ../MOD_socket_server_bsp//libucosii_bsp.a(alt_get_fd.o)
 .debug_line    0x0000000000041b55       0xd9 ../MOD_socket_server_bsp//libucosii_bsp.a(alt_instruction_exception_entry.o)
 .debug_line    0x0000000000041c2e      0x7b0 ../MOD_socket_server_bsp//libucosii_bsp.a(icmp.o)
 .debug_line    0x00000000000423de      0x1fe /home/tom/intelFPGA_lite/20.1/nios2eds/bin/gnu/H-x86_64-pc-linux-gnu/bin/../lib/gcc/nios2-elf/9.2.1/../../../../../H-x86_64-pc-linux-gnu/nios2-elf/lib/libc.a(lib_a-atexit.o)
 .debug_line    0x00000000000425dc      0x20f /home/tom/intelFPGA_lite/20.1/nios2eds/bin/gnu/H-x86_64-pc-linux-gnu/bin/../lib/gcc/nios2-elf/9.2.1/../../../../../H-x86_64-pc-linux-gnu/nios2-elf/lib/libc.a(lib_a-atoi.o)
 .debug_line    0x00000000000427eb      0x226 /home/tom/intelFPGA_lite/20.1/nios2eds/bin/gnu/H-x86_64-pc-linux-gnu/bin/../lib/gcc/nios2-elf/9.2.1/../../../../../H-x86_64-pc-linux-gnu/nios2-elf/lib/libc.a(lib_a-exit.o)
 .debug_line    0x0000000000042a11      0x228 /home/tom/intelFPGA_lite/20.1/nios2eds/bin/gnu/H-x86_64-pc-linux-gnu/bin/../lib/gcc/nios2-elf/9.2.1/../../../../../H-x86_64-pc-linux-gnu/nios2-elf/lib/libc.a(lib_a-malloc.o)
 .debug_line    0x0000000000042c39      0x31d /home/tom/intelFPGA_lite/20.1/nios2eds/bin/gnu/H-x86_64-pc-linux-gnu/bin/../lib/gcc/nios2-elf/9.2.1/../../../../../H-x86_64-pc-linux-gnu/nios2-elf/lib/libc.a(lib_a-strchr.o)
 .debug_line    0x0000000000042f56      0x2cd /home/tom/intelFPGA_lite/20.1/nios2eds/bin/gnu/H-x86_64-pc-linux-gnu/bin/../lib/gcc/nios2-elf/9.2.1/../../../../../H-x86_64-pc-linux-gnu/nios2-elf/lib/libc.a(lib_a-strncmp.o)
 .debug_line    0x0000000000043223      0x28d /home/tom/intelFPGA_lite/20.1/nios2eds/bin/gnu/H-x86_64-pc-linux-gnu/bin/../lib/gcc/nios2-elf/9.2.1/../../../../../H-x86_64-pc-linux-gnu/nios2-elf/lib/libc.a(lib_a-strncpy.o)
 .debug_line    0x00000000000434b0      0x49c /home/tom/intelFPGA_lite/20.1/nios2eds/bin/gnu/H-x86_64-pc-linux-gnu/bin/../lib/gcc/nios2-elf/9.2.1/../../../../../H-x86_64-pc-linux-gnu/nios2-elf/lib/libc.a(lib_a-strtol.o)
 .debug_line    0x000000000004394c      0x25c /home/tom/intelFPGA_lite/20.1/nios2eds/bin/gnu/H-x86_64-pc-linux-gnu/bin/../lib/gcc/nios2-elf/9.2.1/../../../../../H-x86_64-pc-linux-gnu/nios2-elf/lib/libc.a(lib_a-vprintf.o)
 .debug_line    0x0000000000043ba8      0x29e /home/tom/intelFPGA_lite/20.1/nios2eds/bin/gnu/H-x86_64-pc-linux-gnu/bin/../lib/gcc/nios2-elf/9.2.1/../../../../../H-x86_64-pc-linux-gnu/nios2-elf/lib/libc.a(lib_a-vsprintf.o)
 .debug_line    0x0000000000043e46      0x286 /home/tom/intelFPGA_lite/20.1/nios2eds/bin/gnu/H-x86_64-pc-linux-gnu/bin/../lib/gcc/nios2-elf/9.2.1/../../../../../H-x86_64-pc-linux-gnu/nios2-elf/lib/libc.a(lib_a-__atexit.o)
 .debug_line    0x00000000000440cc      0x2fe /home/tom/intelFPGA_lite/20.1/nios2eds/bin/gnu/H-x86_64-pc-linux-gnu/bin/../lib/gcc/nios2-elf/9.2.1/../../../../../H-x86_64-pc-linux-gnu/nios2-elf/lib/libc.a(lib_a-__call_atexit.o)
 .debug_line    0x00000000000443ca      0x227 /home/tom/intelFPGA_lite/20.1/nios2eds/bin/gnu/H-x86_64-pc-linux-gnu/bin/../lib/gcc/nios2-elf/9.2.1/../../../../../H-x86_64-pc-linux-gnu/nios2-elf/lib/libc.a(lib_a-vfprintfr_1.o)

.debug_frame    0x0000000000000000     0x9ba0
 *(.debug_frame)
 .debug_frame   0x0000000000000000       0x34 obj/default/ClockModInit.o
 .debug_frame   0x0000000000000034      0x354 obj/default/DELHProtocol.o
 .debug_frame   0x0000000000000388       0xe0 obj/default/InitializePeriph.o
 .debug_frame   0x0000000000000468       0x88 obj/default/alt_error_handler.o
 .debug_frame   0x00000000000004f0       0x48 obj/default/iniche_init.o
 .debug_frame   0x0000000000000538       0x54 obj/default/led.o
 .debug_frame   0x000000000000058c      0x11c obj/default/network_utilities.o
 .debug_frame   0x00000000000006a8       0x80 obj/default/simple_socket_server.o
 .debug_frame   0x0000000000000728       0x48 /home/tom/intelFPGA_lite/20.1/nios2eds/bin/gnu/H-x86_64-pc-linux-gnu/bin/../lib/gcc/nios2-elf/9.2.1/../../../../../H-x86_64-pc-linux-gnu/nios2-elf/lib/libc.a(lib_a-fprintf.o)
 .debug_frame   0x0000000000000770       0x5c /home/tom/intelFPGA_lite/20.1/nios2eds/bin/gnu/H-x86_64-pc-linux-gnu/bin/../lib/gcc/nios2-elf/9.2.1/../../../../../H-x86_64-pc-linux-gnu/nios2-elf/lib/libc.a(lib_a-fwrite.o)
 .debug_frame   0x00000000000007cc       0x30 /home/tom/intelFPGA_lite/20.1/nios2eds/bin/gnu/H-x86_64-pc-linux-gnu/bin/../lib/gcc/nios2-elf/9.2.1/../../../../../H-x86_64-pc-linux-gnu/nios2-elf/lib/libc.a(lib_a-getchar.o)
 .debug_frame   0x00000000000007fc       0x20 /home/tom/intelFPGA_lite/20.1/nios2eds/bin/gnu/H-x86_64-pc-linux-gnu/bin/../lib/gcc/nios2-elf/9.2.1/../../../../../H-x86_64-pc-linux-gnu/nios2-elf/lib/libc.a(lib_a-memcmp.o)
 .debug_frame   0x000000000000081c       0x20 /home/tom/intelFPGA_lite/20.1/nios2eds/bin/gnu/H-x86_64-pc-linux-gnu/bin/../lib/gcc/nios2-elf/9.2.1/../../../../../H-x86_64-pc-linux-gnu/nios2-elf/lib/libc.a(lib_a-memcpy.o)
 .debug_frame   0x000000000000083c       0x20 /home/tom/intelFPGA_lite/20.1/nios2eds/bin/gnu/H-x86_64-pc-linux-gnu/bin/../lib/gcc/nios2-elf/9.2.1/../../../../../H-x86_64-pc-linux-gnu/nios2-elf/lib/libc.a(lib_a-memset.o)
 .debug_frame   0x000000000000085c       0x50 /home/tom/intelFPGA_lite/20.1/nios2eds/bin/gnu/H-x86_64-pc-linux-gnu/bin/../lib/gcc/nios2-elf/9.2.1/../../../../../H-x86_64-pc-linux-gnu/nios2-elf/lib/libc.a(lib_a-perror.o)
 .debug_frame   0x00000000000008ac       0x48 /home/tom/intelFPGA_lite/20.1/nios2eds/bin/gnu/H-x86_64-pc-linux-gnu/bin/../lib/gcc/nios2-elf/9.2.1/../../../../../H-x86_64-pc-linux-gnu/nios2-elf/lib/libc.a(lib_a-printf.o)
 .debug_frame   0x00000000000008f4       0x30 /home/tom/intelFPGA_lite/20.1/nios2eds/bin/gnu/H-x86_64-pc-linux-gnu/bin/../lib/gcc/nios2-elf/9.2.1/../../../../../H-x86_64-pc-linux-gnu/nios2-elf/lib/libc.a(lib_a-putchar.o)
 .debug_frame   0x0000000000000924       0x48 /home/tom/intelFPGA_lite/20.1/nios2eds/bin/gnu/H-x86_64-pc-linux-gnu/bin/../lib/gcc/nios2-elf/9.2.1/../../../../../H-x86_64-pc-linux-gnu/nios2-elf/lib/libc.a(lib_a-puts.o)
 .debug_frame   0x000000000000096c       0x48 /home/tom/intelFPGA_lite/20.1/nios2eds/bin/gnu/H-x86_64-pc-linux-gnu/bin/../lib/gcc/nios2-elf/9.2.1/../../../../../H-x86_64-pc-linux-gnu/nios2-elf/lib/libc.a(lib_a-sprintf.o)
 .debug_frame   0x00000000000009b4       0x20 /home/tom/intelFPGA_lite/20.1/nios2eds/bin/gnu/H-x86_64-pc-linux-gnu/bin/../lib/gcc/nios2-elf/9.2.1/../../../../../H-x86_64-pc-linux-gnu/nios2-elf/lib/libc.a(lib_a-strcpy.o)
 .debug_frame   0x00000000000009d4       0x54 /home/tom/intelFPGA_lite/20.1/nios2eds/bin/gnu/H-x86_64-pc-linux-gnu/bin/../lib/gcc/nios2-elf/9.2.1/../../../../../H-x86_64-pc-linux-gnu/nios2-elf/lib/libc.a(lib_a-strerror.o)
 .debug_frame   0x0000000000000a28       0x20 /home/tom/intelFPGA_lite/20.1/nios2eds/bin/gnu/H-x86_64-pc-linux-gnu/bin/../lib/gcc/nios2-elf/9.2.1/../../../../../H-x86_64-pc-linux-gnu/nios2-elf/lib/libc.a(lib_a-strlen.o)
 .debug_frame   0x0000000000000a48       0x20 /home/tom/intelFPGA_lite/20.1/nios2eds/bin/gnu/H-x86_64-pc-linux-gnu/bin/../lib/gcc/nios2-elf/9.2.1/../../../../../H-x86_64-pc-linux-gnu/nios2-elf/lib/libc.a(lib_a-strtok.o)
 .debug_frame   0x0000000000000a68       0x30 /home/tom/intelFPGA_lite/20.1/nios2eds/bin/gnu/H-x86_64-pc-linux-gnu/bin/../lib/gcc/nios2-elf/9.2.1/../../../../../H-x86_64-pc-linux-gnu/nios2-elf/lib/libc.a(lib_a-strtok_r.o)
 .debug_frame   0x0000000000000a98       0x80 /home/tom/intelFPGA_lite/20.1/nios2eds/bin/gnu/H-x86_64-pc-linux-gnu/bin/../lib/gcc/nios2-elf/9.2.1/../../../../../H-x86_64-pc-linux-gnu/nios2-elf/lib/libc.a(lib_a-strtoul.o)
 .debug_frame   0x0000000000000b18       0x58 /home/tom/intelFPGA_lite/20.1/nios2eds/bin/gnu/H-x86_64-pc-linux-gnu/bin/../lib/gcc/nios2-elf/9.2.1/../../../../../H-x86_64-pc-linux-gnu/nios2-elf/lib/libc.a(lib_a-svfprintf.o)
 .debug_frame   0x0000000000000b70       0x20 /home/tom/intelFPGA_lite/20.1/nios2eds/bin/gnu/H-x86_64-pc-linux-gnu/bin/../lib/gcc/nios2-elf/9.2.1/../../../../../H-x86_64-pc-linux-gnu/nios2-elf/lib/libc.a(lib_a-u_strerr.o)
 .debug_frame   0x0000000000000b90       0x98 /home/tom/intelFPGA_lite/20.1/nios2eds/bin/gnu/H-x86_64-pc-linux-gnu/bin/../lib/gcc/nios2-elf/9.2.1/../../../../../H-x86_64-pc-linux-gnu/nios2-elf/lib/libc.a(lib_a-vfprintf.o)
 .debug_frame   0x0000000000000c28       0x3c /home/tom/intelFPGA_lite/20.1/nios2eds/bin/gnu/H-x86_64-pc-linux-gnu/bin/../lib/gcc/nios2-elf/9.2.1/../../../../../H-x86_64-pc-linux-gnu/nios2-elf/lib/libc.a(lib_a-writer.o)
 .debug_frame   0x0000000000000c64       0x38 /home/tom/intelFPGA_lite/20.1/nios2eds/bin/gnu/H-x86_64-pc-linux-gnu/bin/../lib/gcc/nios2-elf/9.2.1/../../../../../H-x86_64-pc-linux-gnu/nios2-elf/lib/libc.a(lib_a-wsetup.o)
 .debug_frame   0x0000000000000c9c       0x9c /home/tom/intelFPGA_lite/20.1/nios2eds/bin/gnu/H-x86_64-pc-linux-gnu/bin/../lib/gcc/nios2-elf/9.2.1/../../../../../H-x86_64-pc-linux-gnu/nios2-elf/lib/libc.a(lib_a-dtoa.o)
 .debug_frame   0x0000000000000d38       0x7c /home/tom/intelFPGA_lite/20.1/nios2eds/bin/gnu/H-x86_64-pc-linux-gnu/bin/../lib/gcc/nios2-elf/9.2.1/../../../../../H-x86_64-pc-linux-gnu/nios2-elf/lib/libc.a(lib_a-fflush.o)
 .debug_frame   0x0000000000000db4       0x34 /home/tom/intelFPGA_lite/20.1/nios2eds/bin/gnu/H-x86_64-pc-linux-gnu/bin/../lib/gcc/nios2-elf/9.2.1/../../../../../H-x86_64-pc-linux-gnu/nios2-elf/lib/libc.a(lib_a-fileno.o)
 .debug_frame   0x0000000000000de8      0x124 /home/tom/intelFPGA_lite/20.1/nios2eds/bin/gnu/H-x86_64-pc-linux-gnu/bin/../lib/gcc/nios2-elf/9.2.1/../../../../../H-x86_64-pc-linux-gnu/nios2-elf/lib/libc.a(lib_a-findfp.o)
 .debug_frame   0x0000000000000f0c       0x78 /home/tom/intelFPGA_lite/20.1/nios2eds/bin/gnu/H-x86_64-pc-linux-gnu/bin/../lib/gcc/nios2-elf/9.2.1/../../../../../H-x86_64-pc-linux-gnu/nios2-elf/lib/libc.a(lib_a-freer.o)
 .debug_frame   0x0000000000000f84       0x7c /home/tom/intelFPGA_lite/20.1/nios2eds/bin/gnu/H-x86_64-pc-linux-gnu/bin/../lib/gcc/nios2-elf/9.2.1/../../../../../H-x86_64-pc-linux-gnu/nios2-elf/lib/libc.a(lib_a-fvwrite.o)
 .debug_frame   0x0000000000001000       0x74 /home/tom/intelFPGA_lite/20.1/nios2eds/bin/gnu/H-x86_64-pc-linux-gnu/bin/../lib/gcc/nios2-elf/9.2.1/../../../../../H-x86_64-pc-linux-gnu/nios2-elf/lib/libc.a(lib_a-fwalk.o)
 .debug_frame   0x0000000000001074       0x6c /home/tom/intelFPGA_lite/20.1/nios2eds/bin/gnu/H-x86_64-pc-linux-gnu/bin/../lib/gcc/nios2-elf/9.2.1/../../../../../H-x86_64-pc-linux-gnu/nios2-elf/lib/libc.a(lib_a-getc.o)
 .debug_frame   0x00000000000010e0       0x40 /home/tom/intelFPGA_lite/20.1/nios2eds/bin/gnu/H-x86_64-pc-linux-gnu/bin/../lib/gcc/nios2-elf/9.2.1/../../../../../H-x86_64-pc-linux-gnu/nios2-elf/lib/libc.a(lib_a-localeconv.o)
 .debug_frame   0x0000000000001120       0x68 /home/tom/intelFPGA_lite/20.1/nios2eds/bin/gnu/H-x86_64-pc-linux-gnu/bin/../lib/gcc/nios2-elf/9.2.1/../../../../../H-x86_64-pc-linux-gnu/nios2-elf/lib/libc.a(lib_a-makebuf.o)
 .debug_frame   0x0000000000001188       0x58 /home/tom/intelFPGA_lite/20.1/nios2eds/bin/gnu/H-x86_64-pc-linux-gnu/bin/../lib/gcc/nios2-elf/9.2.1/../../../../../H-x86_64-pc-linux-gnu/nios2-elf/lib/libc.a(lib_a-mallocr.o)
 .debug_frame   0x00000000000011e0       0x20 /home/tom/intelFPGA_lite/20.1/nios2eds/bin/gnu/H-x86_64-pc-linux-gnu/bin/../lib/gcc/nios2-elf/9.2.1/../../../../../H-x86_64-pc-linux-gnu/nios2-elf/lib/libc.a(lib_a-memchr.o)
 .debug_frame   0x0000000000001200       0x20 /home/tom/intelFPGA_lite/20.1/nios2eds/bin/gnu/H-x86_64-pc-linux-gnu/bin/../lib/gcc/nios2-elf/9.2.1/../../../../../H-x86_64-pc-linux-gnu/nios2-elf/lib/libc.a(lib_a-memmove.o)
 .debug_frame   0x0000000000001220      0x2d0 /home/tom/intelFPGA_lite/20.1/nios2eds/bin/gnu/H-x86_64-pc-linux-gnu/bin/../lib/gcc/nios2-elf/9.2.1/../../../../../H-x86_64-pc-linux-gnu/nios2-elf/lib/libc.a(lib_a-mprec.o)
 .debug_frame   0x00000000000014f0       0x78 /home/tom/intelFPGA_lite/20.1/nios2eds/bin/gnu/H-x86_64-pc-linux-gnu/bin/../lib/gcc/nios2-elf/9.2.1/../../../../../H-x86_64-pc-linux-gnu/nios2-elf/lib/libc.a(lib_a-putc.o)
 .debug_frame   0x0000000000001568       0x70 /home/tom/intelFPGA_lite/20.1/nios2eds/bin/gnu/H-x86_64-pc-linux-gnu/bin/../lib/gcc/nios2-elf/9.2.1/../../../../../H-x86_64-pc-linux-gnu/nios2-elf/lib/libc.a(lib_a-reallocr.o)
 .debug_frame   0x00000000000015d8       0x48 /home/tom/intelFPGA_lite/20.1/nios2eds/bin/gnu/H-x86_64-pc-linux-gnu/bin/../lib/gcc/nios2-elf/9.2.1/../../../../../H-x86_64-pc-linux-gnu/nios2-elf/lib/libc.a(lib_a-rget.o)
 .debug_frame   0x0000000000001620       0x3c /home/tom/intelFPGA_lite/20.1/nios2eds/bin/gnu/H-x86_64-pc-linux-gnu/bin/../lib/gcc/nios2-elf/9.2.1/../../../../../H-x86_64-pc-linux-gnu/nios2-elf/lib/libc.a(lib_a-sbrkr.o)
 .debug_frame   0x000000000000165c       0xb8 /home/tom/intelFPGA_lite/20.1/nios2eds/bin/gnu/H-x86_64-pc-linux-gnu/bin/../lib/gcc/nios2-elf/9.2.1/../../../../../H-x86_64-pc-linux-gnu/nios2-elf/lib/libc.a(lib_a-stdio.o)
 .debug_frame   0x0000000000001714       0x9c /home/tom/intelFPGA_lite/20.1/nios2eds/bin/gnu/H-x86_64-pc-linux-gnu/bin/../lib/gcc/nios2-elf/9.2.1/../../../../../H-x86_64-pc-linux-gnu/nios2-elf/lib/libc.a(lib_a-svfiprintf.o)
 .debug_frame   0x00000000000017b0       0xec /home/tom/intelFPGA_lite/20.1/nios2eds/bin/gnu/H-x86_64-pc-linux-gnu/bin/../lib/gcc/nios2-elf/9.2.1/../../../../../H-x86_64-pc-linux-gnu/nios2-elf/lib/libc.a(lib_a-vfiprintf.o)
 .debug_frame   0x000000000000189c       0x50 /home/tom/intelFPGA_lite/20.1/nios2eds/bin/gnu/H-x86_64-pc-linux-gnu/bin/../lib/gcc/nios2-elf/9.2.1/../../../../../H-x86_64-pc-linux-gnu/nios2-elf/lib/libc.a(lib_a-wbuf.o)
 .debug_frame   0x00000000000018ec       0x3c /home/tom/intelFPGA_lite/20.1/nios2eds/bin/gnu/H-x86_64-pc-linux-gnu/bin/../lib/gcc/nios2-elf/9.2.1/../../../../../H-x86_64-pc-linux-gnu/nios2-elf/lib/libc.a(closer.o)
 .debug_frame   0x0000000000001928       0x40 /home/tom/intelFPGA_lite/20.1/nios2eds/bin/gnu/H-x86_64-pc-linux-gnu/bin/../lib/gcc/nios2-elf/9.2.1/../../../../../H-x86_64-pc-linux-gnu/nios2-elf/lib/libc.a(lib_a-assert.o)
 .debug_frame   0x0000000000001968       0x38 /home/tom/intelFPGA_lite/20.1/nios2eds/bin/gnu/H-x86_64-pc-linux-gnu/bin/../lib/gcc/nios2-elf/9.2.1/../../../../../H-x86_64-pc-linux-gnu/nios2-elf/lib/libc.a(lib_a-callocr.o)
 .debug_frame   0x00000000000019a0       0x4c /home/tom/intelFPGA_lite/20.1/nios2eds/bin/gnu/H-x86_64-pc-linux-gnu/bin/../lib/gcc/nios2-elf/9.2.1/../../../../../H-x86_64-pc-linux-gnu/nios2-elf/lib/libc.a(lib_a-fclose.o)
 .debug_frame   0x00000000000019ec       0x48 /home/tom/intelFPGA_lite/20.1/nios2eds/bin/gnu/H-x86_64-pc-linux-gnu/bin/../lib/gcc/nios2-elf/9.2.1/../../../../../H-x86_64-pc-linux-gnu/nios2-elf/lib/libc.a(lib_a-fiprintf.o)
 .debug_frame   0x0000000000001a34       0x78 /home/tom/intelFPGA_lite/20.1/nios2eds/bin/gnu/H-x86_64-pc-linux-gnu/bin/../lib/gcc/nios2-elf/9.2.1/../../../../../H-x86_64-pc-linux-gnu/nios2-elf/lib/libc.a(lib_a-fputwc.o)
 .debug_frame   0x0000000000001aac       0x3c /home/tom/intelFPGA_lite/20.1/nios2eds/bin/gnu/H-x86_64-pc-linux-gnu/bin/../lib/gcc/nios2-elf/9.2.1/../../../../../H-x86_64-pc-linux-gnu/nios2-elf/lib/libc.a(lib_a-fstatr.o)
 .debug_frame   0x0000000000001ae8       0x3c /home/tom/intelFPGA_lite/20.1/nios2eds/bin/gnu/H-x86_64-pc-linux-gnu/bin/../lib/gcc/nios2-elf/9.2.1/../../../../../H-x86_64-pc-linux-gnu/nios2-elf/lib/libc.a(lib_a-isattyr.o)
 .debug_frame   0x0000000000001b24       0x60 /home/tom/intelFPGA_lite/20.1/nios2eds/bin/gnu/H-x86_64-pc-linux-gnu/bin/../lib/gcc/nios2-elf/9.2.1/../../../../../H-x86_64-pc-linux-gnu/nios2-elf/lib/libc.a(lib_a-locale.o)
 .debug_frame   0x0000000000001b84       0x3c /home/tom/intelFPGA_lite/20.1/nios2eds/bin/gnu/H-x86_64-pc-linux-gnu/bin/../lib/gcc/nios2-elf/9.2.1/../../../../../H-x86_64-pc-linux-gnu/nios2-elf/lib/libc.a(lib_a-lseekr.o)
 .debug_frame   0x0000000000001bc0       0x40 /home/tom/intelFPGA_lite/20.1/nios2eds/bin/gnu/H-x86_64-pc-linux-gnu/bin/../lib/gcc/nios2-elf/9.2.1/../../../../../H-x86_64-pc-linux-gnu/nios2-elf/lib/libc.a(lib_a-mbtowc_r.o)
 .debug_frame   0x0000000000001c00       0x3c /home/tom/intelFPGA_lite/20.1/nios2eds/bin/gnu/H-x86_64-pc-linux-gnu/bin/../lib/gcc/nios2-elf/9.2.1/../../../../../H-x86_64-pc-linux-gnu/nios2-elf/lib/libc.a(lib_a-readr.o)
 .debug_frame   0x0000000000001c3c       0x4c /home/tom/intelFPGA_lite/20.1/nios2eds/bin/gnu/H-x86_64-pc-linux-gnu/bin/../lib/gcc/nios2-elf/9.2.1/../../../../../H-x86_64-pc-linux-gnu/nios2-elf/lib/libc.a(lib_a-refill.o)
 .debug_frame   0x0000000000001c88       0x20 /home/tom/intelFPGA_lite/20.1/nios2eds/bin/gnu/H-x86_64-pc-linux-gnu/bin/../lib/gcc/nios2-elf/9.2.1/../../../../../H-x86_64-pc-linux-gnu/nios2-elf/lib/libc.a(lib_a-strcmp.o)
 .debug_frame   0x0000000000001ca8       0x20 /home/tom/intelFPGA_lite/20.1/nios2eds/bin/gnu/H-x86_64-pc-linux-gnu/bin/../lib/gcc/nios2-elf/9.2.1/../../../../../H-x86_64-pc-linux-gnu/nios2-elf/lib/libc.a(lib_a-vfiprintfr_1.o)
 .debug_frame   0x0000000000001cc8       0x60 /home/tom/intelFPGA_lite/20.1/nios2eds/bin/gnu/H-x86_64-pc-linux-gnu/bin/../lib/gcc/nios2-elf/9.2.1/../../../../../H-x86_64-pc-linux-gnu/nios2-elf/lib/libc.a(lib_a-wcrtomb.o)
 .debug_frame   0x0000000000001d28       0x30 /home/tom/intelFPGA_lite/20.1/nios2eds/bin/gnu/H-x86_64-pc-linux-gnu/bin/../lib/gcc/nios2-elf/9.2.1/../../../../../H-x86_64-pc-linux-gnu/nios2-elf/lib/libc.a(lib_a-wctomb_r.o)
 .debug_frame   0x0000000000001d58       0x28 /home/tom/intelFPGA_lite/20.1/nios2eds/bin/gnu/H-x86_64-pc-linux-gnu/bin/../lib/gcc/nios2-elf/9.2.1/../../../../../H-x86_64-pc-linux-gnu/nios2-elf/lib/libc.a(lib_a-abort.o)
 .debug_frame   0x0000000000001d80      0x12c /home/tom/intelFPGA_lite/20.1/nios2eds/bin/gnu/H-x86_64-pc-linux-gnu/bin/../lib/gcc/nios2-elf/9.2.1/../../../../../H-x86_64-pc-linux-gnu/nios2-elf/lib/libc.a(lib_a-signal.o)
 .debug_frame   0x0000000000001eac       0x4c /home/tom/intelFPGA_lite/20.1/nios2eds/bin/gnu/H-x86_64-pc-linux-gnu/bin/../lib/gcc/nios2-elf/9.2.1/../../../../../H-x86_64-pc-linux-gnu/nios2-elf/lib/libc.a(lib_a-signalr.o)
 .debug_frame   0x0000000000001ef8       0x54 /home/tom/intelFPGA_lite/20.1/nios2eds/bin/gnu/H-x86_64-pc-linux-gnu/bin/../lib/gcc/nios2-elf/9.2.1/libgcc.a(_udivdi3.o)
 .debug_frame   0x0000000000001f4c       0x54 /home/tom/intelFPGA_lite/20.1/nios2eds/bin/gnu/H-x86_64-pc-linux-gnu/bin/../lib/gcc/nios2-elf/9.2.1/libgcc.a(_umoddi3.o)
 .debug_frame   0x0000000000001fa0       0x50 /home/tom/intelFPGA_lite/20.1/nios2eds/bin/gnu/H-x86_64-pc-linux-gnu/bin/../lib/gcc/nios2-elf/9.2.1/libgcc.a(lib2-divmod.o)
 .debug_frame   0x0000000000001ff0       0x40 /home/tom/intelFPGA_lite/20.1/nios2eds/bin/gnu/H-x86_64-pc-linux-gnu/bin/../lib/gcc/nios2-elf/9.2.1/libgcc.a(adddf3.o)
 .debug_frame   0x0000000000002030       0x58 /home/tom/intelFPGA_lite/20.1/nios2eds/bin/gnu/H-x86_64-pc-linux-gnu/bin/../lib/gcc/nios2-elf/9.2.1/libgcc.a(divdf3.o)
 .debug_frame   0x0000000000002088       0x20 /home/tom/intelFPGA_lite/20.1/nios2eds/bin/gnu/H-x86_64-pc-linux-gnu/bin/../lib/gcc/nios2-elf/9.2.1/libgcc.a(eqdf2.o)
 .debug_frame   0x00000000000020a8       0x20 /home/tom/intelFPGA_lite/20.1/nios2eds/bin/gnu/H-x86_64-pc-linux-gnu/bin/../lib/gcc/nios2-elf/9.2.1/libgcc.a(gedf2.o)
 .debug_frame   0x00000000000020c8       0x20 /home/tom/intelFPGA_lite/20.1/nios2eds/bin/gnu/H-x86_64-pc-linux-gnu/bin/../lib/gcc/nios2-elf/9.2.1/libgcc.a(ledf2.o)
 .debug_frame   0x00000000000020e8       0x54 /home/tom/intelFPGA_lite/20.1/nios2eds/bin/gnu/H-x86_64-pc-linux-gnu/bin/../lib/gcc/nios2-elf/9.2.1/libgcc.a(muldf3.o)
 .debug_frame   0x000000000000213c       0x44 /home/tom/intelFPGA_lite/20.1/nios2eds/bin/gnu/H-x86_64-pc-linux-gnu/bin/../lib/gcc/nios2-elf/9.2.1/libgcc.a(subdf3.o)
 .debug_frame   0x0000000000002180       0x20 /home/tom/intelFPGA_lite/20.1/nios2eds/bin/gnu/H-x86_64-pc-linux-gnu/bin/../lib/gcc/nios2-elf/9.2.1/libgcc.a(unorddf2.o)
 .debug_frame   0x00000000000021a0       0x20 /home/tom/intelFPGA_lite/20.1/nios2eds/bin/gnu/H-x86_64-pc-linux-gnu/bin/../lib/gcc/nios2-elf/9.2.1/libgcc.a(fixdfsi.o)
 .debug_frame   0x00000000000021c0       0x38 /home/tom/intelFPGA_lite/20.1/nios2eds/bin/gnu/H-x86_64-pc-linux-gnu/bin/../lib/gcc/nios2-elf/9.2.1/libgcc.a(floatsidf.o)
 .debug_frame   0x00000000000021f8       0x34 /home/tom/intelFPGA_lite/20.1/nios2eds/bin/gnu/H-x86_64-pc-linux-gnu/bin/../lib/gcc/nios2-elf/9.2.1/libgcc.a(floatunsidf.o)
 .debug_frame   0x000000000000222c       0x20 /home/tom/intelFPGA_lite/20.1/nios2eds/bin/gnu/H-x86_64-pc-linux-gnu/bin/../lib/gcc/nios2-elf/9.2.1/libgcc.a(_clzsi2.o)
 .debug_frame   0x000000000000224c       0x2c ../MOD_socket_server_bsp//libucosii_bsp.a(alt_exit.o)
 .debug_frame   0x0000000000002278       0x60 ../MOD_socket_server_bsp//libucosii_bsp.a(alt_fstat.o)
 .debug_frame   0x00000000000022d8       0x34 ../MOD_socket_server_bsp//libucosii_bsp.a(alt_getpid.o)
 .debug_frame   0x000000000000230c       0x60 ../MOD_socket_server_bsp//libucosii_bsp.a(alt_isatty.o)
 .debug_frame   0x000000000000236c       0x60 ../MOD_socket_server_bsp//libucosii_bsp.a(alt_kill.o)
 .debug_frame   0x00000000000023cc       0x60 ../MOD_socket_server_bsp//libucosii_bsp.a(alt_lseek.o)
 .debug_frame   0x000000000000242c       0x2c ../MOD_socket_server_bsp//libucosii_bsp.a(alt_main.o)
 .debug_frame   0x0000000000002458       0x34 ../MOD_socket_server_bsp//libucosii_bsp.a(alt_sbrk.o)
 .debug_frame   0x000000000000248c       0x60 ../MOD_socket_server_bsp//libucosii_bsp.a(alt_env_lock.o)
 .debug_frame   0x00000000000024ec       0x64 ../MOD_socket_server_bsp//libucosii_bsp.a(alt_malloc_lock.o)
 .debug_frame   0x0000000000002550      0x530 ../MOD_socket_server_bsp//libucosii_bsp.a(os_core.o)
 .debug_frame   0x0000000000002a80       0x34 ../MOD_socket_server_bsp//libucosii_bsp.a(os_dbg.o)
 .debug_frame   0x0000000000002ab4      0x200 ../MOD_socket_server_bsp//libucosii_bsp.a(os_flag.o)
 .debug_frame   0x0000000000002cb4      0x118 ../MOD_socket_server_bsp//libucosii_bsp.a(os_mem.o)
 .debug_frame   0x0000000000002dcc      0x1bc ../MOD_socket_server_bsp//libucosii_bsp.a(os_q.o)
 .debug_frame   0x0000000000002f88      0x144 ../MOD_socket_server_bsp//libucosii_bsp.a(os_sem.o)
 .debug_frame   0x00000000000030cc      0x1e4 ../MOD_socket_server_bsp//libucosii_bsp.a(os_task.o)
 .debug_frame   0x00000000000032b0       0xd8 ../MOD_socket_server_bsp//libucosii_bsp.a(os_time.o)
 .debug_frame   0x0000000000003388       0x88 ../MOD_socket_server_bsp//libucosii_bsp.a(alt_sys_init.o)
 .debug_frame   0x0000000000003410      0x288 ../MOD_socket_server_bsp//libucosii_bsp.a(altera_avalon_fifo_util.o)
 .debug_frame   0x0000000000003698      0x5dc ../MOD_socket_server_bsp//libucosii_bsp.a(altera_avalon_i2c.o)
 .debug_frame   0x0000000000003c74       0xb0 ../MOD_socket_server_bsp//libucosii_bsp.a(altera_avalon_jtag_uart_fd.o)
 .debug_frame   0x0000000000003d24       0xac ../MOD_socket_server_bsp//libucosii_bsp.a(altera_avalon_jtag_uart_init.o)
 .debug_frame   0x0000000000003dd0       0x34 ../MOD_socket_server_bsp//libucosii_bsp.a(altera_avalon_jtag_uart_ioctl.o)
 .debug_frame   0x0000000000003e04       0x38 ../MOD_socket_server_bsp//libucosii_bsp.a(altera_avalon_jtag_uart_read.o)
 .debug_frame   0x0000000000003e3c       0x38 ../MOD_socket_server_bsp//libucosii_bsp.a(altera_avalon_jtag_uart_write.o)
 .debug_frame   0x0000000000003e74       0x34 ../MOD_socket_server_bsp//libucosii_bsp.a(altera_avalon_spi.o)
 .debug_frame   0x0000000000003ea8       0x60 ../MOD_socket_server_bsp//libucosii_bsp.a(altera_avalon_timer_sc.o)
 .debug_frame   0x0000000000003f08      0x718 ../MOD_socket_server_bsp//libucosii_bsp.a(altera_avalon_tse.o)
 .debug_frame   0x0000000000004620      0x198 ../MOD_socket_server_bsp//libucosii_bsp.a(altera_generic_quad_spi_controller.o)
 .debug_frame   0x00000000000047b8      0x59c ../MOD_socket_server_bsp//libucosii_bsp.a(altera_msgdma.o)
 .debug_frame   0x0000000000004d54      0x214 ../MOD_socket_server_bsp//libucosii_bsp.a(ins_tse_mac.o)
 .debug_frame   0x0000000000004f68       0x38 ../MOD_socket_server_bsp//libucosii_bsp.a(alt_iniche_close.o)
 .debug_frame   0x0000000000004fa0       0x38 ../MOD_socket_server_bsp//libucosii_bsp.a(alt_iniche_dev.o)
 .debug_frame   0x0000000000004fd8       0x38 ../MOD_socket_server_bsp//libucosii_bsp.a(alt_iniche_read.o)
 .debug_frame   0x0000000000005010       0x38 ../MOD_socket_server_bsp//libucosii_bsp.a(alt_iniche_write.o)
 .debug_frame   0x0000000000005048       0xfc ../MOD_socket_server_bsp//libucosii_bsp.a(ipnet.o)
 .debug_frame   0x0000000000005144       0xb0 ../MOD_socket_server_bsp//libucosii_bsp.a(ipstart.o)
 .debug_frame   0x00000000000051f4      0x150 ../MOD_socket_server_bsp//libucosii_bsp.a(igmp_cmn.o)
 .debug_frame   0x0000000000005344      0x19c ../MOD_socket_server_bsp//libucosii_bsp.a(bsdsock.o)
 .debug_frame   0x00000000000054e0       0x5c ../MOD_socket_server_bsp//libucosii_bsp.a(cksum.o)
 .debug_frame   0x000000000000553c      0x1f0 ../MOD_socket_server_bsp//libucosii_bsp.a(in_utils.o)
 .debug_frame   0x000000000000572c       0x70 ../MOD_socket_server_bsp//libucosii_bsp.a(netmain.o)
 .debug_frame   0x000000000000579c      0x128 ../MOD_socket_server_bsp//libucosii_bsp.a(tk_crnos.o)
 .debug_frame   0x00000000000058c4      0x32c ../MOD_socket_server_bsp//libucosii_bsp.a(dhcpclnt.o)
 .debug_frame   0x0000000000005bf0       0x34 ../MOD_socket_server_bsp//libucosii_bsp.a(dhcputil.o)
 .debug_frame   0x0000000000005c24       0xfc ../MOD_socket_server_bsp//libucosii_bsp.a(pktalloc.o)
 .debug_frame   0x0000000000005d20       0x88 ../MOD_socket_server_bsp//libucosii_bsp.a(q.o)
 .debug_frame   0x0000000000005da8       0x60 ../MOD_socket_server_bsp//libucosii_bsp.a(udp_open.o)
 .debug_frame   0x0000000000005e08      0x13c ../MOD_socket_server_bsp//libucosii_bsp.a(brdutils.o)
 .debug_frame   0x0000000000005f44       0xd8 ../MOD_socket_server_bsp//libucosii_bsp.a(osportco.o)
 .debug_frame   0x000000000000601c      0x198 ../MOD_socket_server_bsp//libucosii_bsp.a(targnios.o)
 .debug_frame   0x00000000000061b4      0x2cc ../MOD_socket_server_bsp//libucosii_bsp.a(nptcp.o)
 .debug_frame   0x0000000000006480       0x8c ../MOD_socket_server_bsp//libucosii_bsp.a(rawsock.o)
 .debug_frame   0x000000000000650c      0x308 ../MOD_socket_server_bsp//libucosii_bsp.a(sockcall.o)
 .debug_frame   0x0000000000006814      0x290 ../MOD_socket_server_bsp//libucosii_bsp.a(socket.o)
 .debug_frame   0x0000000000006aa4      0x398 ../MOD_socket_server_bsp//libucosii_bsp.a(socket2.o)
 .debug_frame   0x0000000000006e3c      0x178 ../MOD_socket_server_bsp//libucosii_bsp.a(soselect.o)
 .debug_frame   0x0000000000006fb4      0x128 ../MOD_socket_server_bsp//libucosii_bsp.a(tcp_in.o)
 .debug_frame   0x00000000000070dc       0x88 ../MOD_socket_server_bsp//libucosii_bsp.a(tcp_out.o)
 .debug_frame   0x0000000000007164      0x168 ../MOD_socket_server_bsp//libucosii_bsp.a(tcp_subr.o)
 .debug_frame   0x00000000000072cc       0x84 ../MOD_socket_server_bsp//libucosii_bsp.a(tcp_timr.o)
 .debug_frame   0x0000000000007350       0xb0 ../MOD_socket_server_bsp//libucosii_bsp.a(tcp_usr.o)
 .debug_frame   0x0000000000007400       0x38 ../MOD_socket_server_bsp//libucosii_bsp.a(tcpport.o)
 .debug_frame   0x0000000000007438      0x104 ../MOD_socket_server_bsp//libucosii_bsp.a(udpsock.o)
 .debug_frame   0x000000000000753c       0x34 ../MOD_socket_server_bsp//libucosii_bsp.a(alt_alarm_start.o)
 .debug_frame   0x0000000000007570       0x38 ../MOD_socket_server_bsp//libucosii_bsp.a(alt_busy_sleep.o)
 .debug_frame   0x00000000000075a8       0x60 ../MOD_socket_server_bsp//libucosii_bsp.a(alt_close.o)
 .debug_frame   0x0000000000007608       0x34 ../MOD_socket_server_bsp//libucosii_bsp.a(alt_dcache_flush.o)
 .debug_frame   0x000000000000763c       0x34 ../MOD_socket_server_bsp//libucosii_bsp.a(alt_dev.o)
 .debug_frame   0x0000000000007670       0x60 ../MOD_socket_server_bsp//libucosii_bsp.a(alt_dev_llist_insert.o)
 .debug_frame   0x00000000000076d0       0x38 ../MOD_socket_server_bsp//libucosii_bsp.a(alt_do_ctors.o)
 .debug_frame   0x0000000000007708       0x38 ../MOD_socket_server_bsp//libucosii_bsp.a(alt_do_dtors.o)
 .debug_frame   0x0000000000007740       0x38 ../MOD_socket_server_bsp//libucosii_bsp.a(alt_find_dev.o)
 .debug_frame   0x0000000000007778       0x60 ../MOD_socket_server_bsp//libucosii_bsp.a(alt_flash_dev.o)
 .debug_frame   0x00000000000077d8       0xa4 ../MOD_socket_server_bsp//libucosii_bsp.a(alt_iic.o)
 .debug_frame   0x000000000000787c       0x38 ../MOD_socket_server_bsp//libucosii_bsp.a(alt_iic_isr_register.o)
 .debug_frame   0x00000000000078b4       0x60 ../MOD_socket_server_bsp//libucosii_bsp.a(alt_io_redirect.o)
 .debug_frame   0x0000000000007914       0x38 ../MOD_socket_server_bsp//libucosii_bsp.a(alt_irq_handler.o)
 .debug_frame   0x000000000000794c       0x84 ../MOD_socket_server_bsp//libucosii_bsp.a(alt_open.o)
 .debug_frame   0x00000000000079d0       0x38 ../MOD_socket_server_bsp//libucosii_bsp.a(alt_printf.o)
 .debug_frame   0x0000000000007a08       0x38 ../MOD_socket_server_bsp//libucosii_bsp.a(alt_putchar.o)
 .debug_frame   0x0000000000007a40       0x60 ../MOD_socket_server_bsp//libucosii_bsp.a(alt_read.o)
 .debug_frame   0x0000000000007aa0       0x34 ../MOD_socket_server_bsp//libucosii_bsp.a(alt_release_fd.o)
 .debug_frame   0x0000000000007ad4       0x34 ../MOD_socket_server_bsp//libucosii_bsp.a(alt_remap_cached.o)
 .debug_frame   0x0000000000007b08       0x5c ../MOD_socket_server_bsp//libucosii_bsp.a(alt_tick.o)
 .debug_frame   0x0000000000007b64       0x38 ../MOD_socket_server_bsp//libucosii_bsp.a(alt_uncached_free.o)
 .debug_frame   0x0000000000007b9c       0x38 ../MOD_socket_server_bsp//libucosii_bsp.a(alt_uncached_malloc.o)
 .debug_frame   0x0000000000007bd4       0x3c ../MOD_socket_server_bsp//libucosii_bsp.a(alt_usleep.o)
 .debug_frame   0x0000000000007c10       0x60 ../MOD_socket_server_bsp//libucosii_bsp.a(alt_write.o)
 .debug_frame   0x0000000000007c70       0x34 ../MOD_socket_server_bsp//libucosii_bsp.a(altera_nios2_gen2_irq.o)
 .debug_frame   0x0000000000007ca4      0x180 ../MOD_socket_server_bsp//libucosii_bsp.a(os_cpu_c.o)
 .debug_frame   0x0000000000007e24      0x134 ../MOD_socket_server_bsp//libucosii_bsp.a(allports.o)
 .debug_frame   0x0000000000007f58       0xb0 ../MOD_socket_server_bsp//libucosii_bsp.a(timeouts.o)
 .debug_frame   0x0000000000008008       0x5c ../MOD_socket_server_bsp//libucosii_bsp.a(tk_misc.o)
 .debug_frame   0x0000000000008064       0x38 ../MOD_socket_server_bsp//libucosii_bsp.a(alt_iniche_fcntl.o)
 .debug_frame   0x000000000000809c      0x1f0 ../MOD_socket_server_bsp//libucosii_bsp.a(et_arp.o)
 .debug_frame   0x000000000000828c       0xac ../MOD_socket_server_bsp//libucosii_bsp.a(iface.o)
 .debug_frame   0x0000000000008338      0x1f0 ../MOD_socket_server_bsp//libucosii_bsp.a(ip.o)
 .debug_frame   0x0000000000008528      0x280 ../MOD_socket_server_bsp//libucosii_bsp.a(ip_reasm.o)
 .debug_frame   0x00000000000087a8       0x90 ../MOD_socket_server_bsp//libucosii_bsp.a(ipdemux.o)
 .debug_frame   0x0000000000008838       0x84 ../MOD_socket_server_bsp//libucosii_bsp.a(ipmc.o)
 .debug_frame   0x00000000000088bc       0x78 ../MOD_socket_server_bsp//libucosii_bsp.a(ipport.o)
 .debug_frame   0x0000000000008934       0xfc ../MOD_socket_server_bsp//libucosii_bsp.a(ipraw.o)
 .debug_frame   0x0000000000008a30       0x84 ../MOD_socket_server_bsp//libucosii_bsp.a(iproute.o)
 .debug_frame   0x0000000000008ab4      0x11c ../MOD_socket_server_bsp//libucosii_bsp.a(udp.o)
 .debug_frame   0x0000000000008bd0       0x38 ../MOD_socket_server_bsp//libucosii_bsp.a(igmp.o)
 .debug_frame   0x0000000000008c08       0xd4 ../MOD_socket_server_bsp//libucosii_bsp.a(igmp2.o)
 .debug_frame   0x0000000000008cdc       0xb0 ../MOD_socket_server_bsp//libucosii_bsp.a(ipopt.o)
 .debug_frame   0x0000000000008d8c       0x64 ../MOD_socket_server_bsp//libucosii_bsp.a(u_mctest.o)
 .debug_frame   0x0000000000008df0       0x60 ../MOD_socket_server_bsp//libucosii_bsp.a(dhcsetup.o)
 .debug_frame   0x0000000000008e50      0x158 ../MOD_socket_server_bsp//libucosii_bsp.a(memdev.o)
 .debug_frame   0x0000000000008fa8      0x16c ../MOD_socket_server_bsp//libucosii_bsp.a(parseip.o)
 .debug_frame   0x0000000000009114       0x38 ../MOD_socket_server_bsp//libucosii_bsp.a(tcpcksum.o)
 .debug_frame   0x000000000000914c      0x14c ../MOD_socket_server_bsp//libucosii_bsp.a(in_pcb.o)
 .debug_frame   0x0000000000009298      0x460 ../MOD_socket_server_bsp//libucosii_bsp.a(vfsfiles.o)
 .debug_frame   0x00000000000096f8       0x34 ../MOD_socket_server_bsp//libucosii_bsp.a(vfsport.o)
 .debug_frame   0x000000000000972c       0x60 ../MOD_socket_server_bsp//libucosii_bsp.a(alt_fcntl.o)
 .debug_frame   0x000000000000978c       0x38 ../MOD_socket_server_bsp//libucosii_bsp.a(alt_find_file.o)
 .debug_frame   0x00000000000097c4       0x38 ../MOD_socket_server_bsp//libucosii_bsp.a(alt_get_fd.o)
 .debug_frame   0x00000000000097fc       0x5c ../MOD_socket_server_bsp//libucosii_bsp.a(alt_instruction_exception_entry.o)
 .debug_frame   0x0000000000009858       0xbc ../MOD_socket_server_bsp//libucosii_bsp.a(icmp.o)
 .debug_frame   0x0000000000009914       0x20 /home/tom/intelFPGA_lite/20.1/nios2eds/bin/gnu/H-x86_64-pc-linux-gnu/bin/../lib/gcc/nios2-elf/9.2.1/../../../../../H-x86_64-pc-linux-gnu/nios2-elf/lib/libc.a(lib_a-atexit.o)
 .debug_frame   0x0000000000009934       0x30 /home/tom/intelFPGA_lite/20.1/nios2eds/bin/gnu/H-x86_64-pc-linux-gnu/bin/../lib/gcc/nios2-elf/9.2.1/../../../../../H-x86_64-pc-linux-gnu/nios2-elf/lib/libc.a(lib_a-atoi.o)
 .debug_frame   0x0000000000009964       0x28 /home/tom/intelFPGA_lite/20.1/nios2eds/bin/gnu/H-x86_64-pc-linux-gnu/bin/../lib/gcc/nios2-elf/9.2.1/../../../../../H-x86_64-pc-linux-gnu/nios2-elf/lib/libc.a(lib_a-exit.o)
 .debug_frame   0x000000000000998c       0x30 /home/tom/intelFPGA_lite/20.1/nios2eds/bin/gnu/H-x86_64-pc-linux-gnu/bin/../lib/gcc/nios2-elf/9.2.1/../../../../../H-x86_64-pc-linux-gnu/nios2-elf/lib/libc.a(lib_a-malloc.o)
 .debug_frame   0x00000000000099bc       0x20 /home/tom/intelFPGA_lite/20.1/nios2eds/bin/gnu/H-x86_64-pc-linux-gnu/bin/../lib/gcc/nios2-elf/9.2.1/../../../../../H-x86_64-pc-linux-gnu/nios2-elf/lib/libc.a(lib_a-strchr.o)
 .debug_frame   0x00000000000099dc       0x20 /home/tom/intelFPGA_lite/20.1/nios2eds/bin/gnu/H-x86_64-pc-linux-gnu/bin/../lib/gcc/nios2-elf/9.2.1/../../../../../H-x86_64-pc-linux-gnu/nios2-elf/lib/libc.a(lib_a-strncmp.o)
 .debug_frame   0x00000000000099fc       0x20 /home/tom/intelFPGA_lite/20.1/nios2eds/bin/gnu/H-x86_64-pc-linux-gnu/bin/../lib/gcc/nios2-elf/9.2.1/../../../../../H-x86_64-pc-linux-gnu/nios2-elf/lib/libc.a(lib_a-strncpy.o)
 .debug_frame   0x0000000000009a1c       0x84 /home/tom/intelFPGA_lite/20.1/nios2eds/bin/gnu/H-x86_64-pc-linux-gnu/bin/../lib/gcc/nios2-elf/9.2.1/../../../../../H-x86_64-pc-linux-gnu/nios2-elf/lib/libc.a(lib_a-strtol.o)
 .debug_frame   0x0000000000009aa0       0x30 /home/tom/intelFPGA_lite/20.1/nios2eds/bin/gnu/H-x86_64-pc-linux-gnu/bin/../lib/gcc/nios2-elf/9.2.1/../../../../../H-x86_64-pc-linux-gnu/nios2-elf/lib/libc.a(lib_a-vprintf.o)
 .debug_frame   0x0000000000009ad0       0x3c /home/tom/intelFPGA_lite/20.1/nios2eds/bin/gnu/H-x86_64-pc-linux-gnu/bin/../lib/gcc/nios2-elf/9.2.1/../../../../../H-x86_64-pc-linux-gnu/nios2-elf/lib/libc.a(lib_a-vsprintf.o)
 .debug_frame   0x0000000000009b0c       0x20 /home/tom/intelFPGA_lite/20.1/nios2eds/bin/gnu/H-x86_64-pc-linux-gnu/bin/../lib/gcc/nios2-elf/9.2.1/../../../../../H-x86_64-pc-linux-gnu/nios2-elf/lib/libc.a(lib_a-__atexit.o)
 .debug_frame   0x0000000000009b2c       0x54 /home/tom/intelFPGA_lite/20.1/nios2eds/bin/gnu/H-x86_64-pc-linux-gnu/bin/../lib/gcc/nios2-elf/9.2.1/../../../../../H-x86_64-pc-linux-gnu/nios2-elf/lib/libc.a(lib_a-__call_atexit.o)
 .debug_frame   0x0000000000009b80       0x20 /home/tom/intelFPGA_lite/20.1/nios2eds/bin/gnu/H-x86_64-pc-linux-gnu/bin/../lib/gcc/nios2-elf/9.2.1/../../../../../H-x86_64-pc-linux-gnu/nios2-elf/lib/libc.a(lib_a-vfprintfr_1.o)

.debug_str      0x0000000000000000     0xdf42
 *(.debug_str)
 .debug_str     0x0000000000000000       0x7a ../MOD_socket_server_bsp//obj/HAL/src/crt0.o
 .debug_str     0x000000000000007a      0x9d8 obj/default/ClockModInit.o
                                        0xae1 (size before relaxing)
 .debug_str     0x0000000000000a52      0xe46 obj/default/DELHProtocol.o
                                       0x1a24 (size before relaxing)
 .debug_str     0x0000000000001898       0x8b obj/default/InitializePeriph.o
                                       0x1776 (size before relaxing)
 .debug_str     0x0000000000001923       0xae obj/default/alt_error_handler.o
                                        0xb2c (size before relaxing)
 .debug_str     0x00000000000019d1      0x45f obj/default/iniche_init.o
                                       0x1714 (size before relaxing)
 .debug_str     0x0000000000001e30       0x3d obj/default/led.o
                                        0xaf1 (size before relaxing)
 .debug_str     0x0000000000001e6d      0x170 obj/default/network_utilities.o
                                       0x162e (size before relaxing)
 .debug_str     0x0000000000001fdd       0xd1 obj/default/simple_socket_server.o
                                       0x1620 (size before relaxing)
 .debug_str     0x00000000000020ae      0x6e3 obj/default/tse_my_system.o
                                       0x12c0 (size before relaxing)
 .debug_str     0x0000000000002791      0x377 /home/tom/intelFPGA_lite/20.1/nios2eds/bin/gnu/H-x86_64-pc-linux-gnu/bin/../lib/gcc/nios2-elf/9.2.1/../../../../../H-x86_64-pc-linux-gnu/nios2-elf/lib/libc.a(lib_a-ctype_.o)
                                        0x8bd (size before relaxing)
 .debug_str     0x0000000000002b08      0x203 /home/tom/intelFPGA_lite/20.1/nios2eds/bin/gnu/H-x86_64-pc-linux-gnu/bin/../lib/gcc/nios2-elf/9.2.1/../../../../../H-x86_64-pc-linux-gnu/nios2-elf/lib/libc.a(lib_a-fprintf.o)
                                        0x721 (size before relaxing)
 .debug_str     0x0000000000002d0b       0xa6 /home/tom/intelFPGA_lite/20.1/nios2eds/bin/gnu/H-x86_64-pc-linux-gnu/bin/../lib/gcc/nios2-elf/9.2.1/../../../../../H-x86_64-pc-linux-gnu/nios2-elf/lib/libc.a(lib_a-fwrite.o)
                                        0x754 (size before relaxing)
 .debug_str     0x0000000000002db1       0x57 /home/tom/intelFPGA_lite/20.1/nios2eds/bin/gnu/H-x86_64-pc-linux-gnu/bin/../lib/gcc/nios2-elf/9.2.1/../../../../../H-x86_64-pc-linux-gnu/nios2-elf/lib/libc.a(lib_a-getchar.o)
                                        0x6ed (size before relaxing)
 .debug_str     0x0000000000002e08       0xcc /home/tom/intelFPGA_lite/20.1/nios2eds/bin/gnu/H-x86_64-pc-linux-gnu/bin/../lib/gcc/nios2-elf/9.2.1/../../../../../H-x86_64-pc-linux-gnu/nios2-elf/lib/libc.a(lib_a-impure.o)
                                        0x59c (size before relaxing)
 .debug_str     0x0000000000002ed4       0xc9 /home/tom/intelFPGA_lite/20.1/nios2eds/bin/gnu/H-x86_64-pc-linux-gnu/bin/../lib/gcc/nios2-elf/9.2.1/../../../../../H-x86_64-pc-linux-gnu/nios2-elf/lib/libc.a(lib_a-memcmp.o)
                                        0x5a0 (size before relaxing)
 .debug_str     0x0000000000002f9d       0x63 /home/tom/intelFPGA_lite/20.1/nios2eds/bin/gnu/H-x86_64-pc-linux-gnu/bin/../lib/gcc/nios2-elf/9.2.1/../../../../../H-x86_64-pc-linux-gnu/nios2-elf/lib/libc.a(lib_a-memcpy.o)
                                        0x8dc (size before relaxing)
 .debug_str     0x0000000000003000       0x49 /home/tom/intelFPGA_lite/20.1/nios2eds/bin/gnu/H-x86_64-pc-linux-gnu/bin/../lib/gcc/nios2-elf/9.2.1/../../../../../H-x86_64-pc-linux-gnu/nios2-elf/lib/libc.a(lib_a-memset.o)
                                        0x8c9 (size before relaxing)
 .debug_str     0x0000000000003049       0x8d /home/tom/intelFPGA_lite/20.1/nios2eds/bin/gnu/H-x86_64-pc-linux-gnu/bin/../lib/gcc/nios2-elf/9.2.1/../../../../../H-x86_64-pc-linux-gnu/nios2-elf/lib/libc.a(lib_a-perror.o)
                                        0x74f (size before relaxing)
 .debug_str     0x00000000000030d6       0x5c /home/tom/intelFPGA_lite/20.1/nios2eds/bin/gnu/H-x86_64-pc-linux-gnu/bin/../lib/gcc/nios2-elf/9.2.1/../../../../../H-x86_64-pc-linux-gnu/nios2-elf/lib/libc.a(lib_a-printf.o)
                                        0x730 (size before relaxing)
 .debug_str     0x0000000000003132       0x4f /home/tom/intelFPGA_lite/20.1/nios2eds/bin/gnu/H-x86_64-pc-linux-gnu/bin/../lib/gcc/nios2-elf/9.2.1/../../../../../H-x86_64-pc-linux-gnu/nios2-elf/lib/libc.a(lib_a-putchar.o)
                                        0x6ed (size before relaxing)
 .debug_str     0x0000000000003181       0x46 /home/tom/intelFPGA_lite/20.1/nios2eds/bin/gnu/H-x86_64-pc-linux-gnu/bin/../lib/gcc/nios2-elf/9.2.1/../../../../../H-x86_64-pc-linux-gnu/nios2-elf/lib/libc.a(lib_a-puts.o)
                                        0x751 (size before relaxing)
 .debug_str     0x00000000000031c7       0x5f /home/tom/intelFPGA_lite/20.1/nios2eds/bin/gnu/H-x86_64-pc-linux-gnu/bin/../lib/gcc/nios2-elf/9.2.1/../../../../../H-x86_64-pc-linux-gnu/nios2-elf/lib/libc.a(lib_a-sprintf.o)
                                        0x725 (size before relaxing)
 .debug_str     0x0000000000003226       0x43 /home/tom/intelFPGA_lite/20.1/nios2eds/bin/gnu/H-x86_64-pc-linux-gnu/bin/../lib/gcc/nios2-elf/9.2.1/../../../../../H-x86_64-pc-linux-gnu/nios2-elf/lib/libc.a(lib_a-strcpy.o)
                                        0x5bb (size before relaxing)
 .debug_str     0x0000000000003269       0x66 /home/tom/intelFPGA_lite/20.1/nios2eds/bin/gnu/H-x86_64-pc-linux-gnu/bin/../lib/gcc/nios2-elf/9.2.1/../../../../../H-x86_64-pc-linux-gnu/nios2-elf/lib/libc.a(lib_a-strerror.o)
                                        0x607 (size before relaxing)
 .debug_str     0x00000000000032cf       0x3c /home/tom/intelFPGA_lite/20.1/nios2eds/bin/gnu/H-x86_64-pc-linux-gnu/bin/../lib/gcc/nios2-elf/9.2.1/../../../../../H-x86_64-pc-linux-gnu/nios2-elf/lib/libc.a(lib_a-strlen.o)
                                        0x5b3 (size before relaxing)
 .debug_str     0x000000000000330b       0x4e /home/tom/intelFPGA_lite/20.1/nios2eds/bin/gnu/H-x86_64-pc-linux-gnu/bin/../lib/gcc/nios2-elf/9.2.1/../../../../../H-x86_64-pc-linux-gnu/nios2-elf/lib/libc.a(lib_a-strtok.o)
                                        0x5ba (size before relaxing)
 .debug_str     0x0000000000003359       0x62 /home/tom/intelFPGA_lite/20.1/nios2eds/bin/gnu/H-x86_64-pc-linux-gnu/bin/../lib/gcc/nios2-elf/9.2.1/../../../../../H-x86_64-pc-linux-gnu/nios2-elf/lib/libc.a(lib_a-strtok_r.o)
                                        0x5d2 (size before relaxing)
 .debug_str     0x00000000000033bb      0x12f /home/tom/intelFPGA_lite/20.1/nios2eds/bin/gnu/H-x86_64-pc-linux-gnu/bin/../lib/gcc/nios2-elf/9.2.1/../../../../../H-x86_64-pc-linux-gnu/nios2-elf/lib/libc.a(lib_a-strtoul.o)
                                        0x95c (size before relaxing)
 .debug_str     0x00000000000034ea      0x1bd /home/tom/intelFPGA_lite/20.1/nios2eds/bin/gnu/H-x86_64-pc-linux-gnu/bin/../lib/gcc/nios2-elf/9.2.1/../../../../../H-x86_64-pc-linux-gnu/nios2-elf/lib/libc.a(lib_a-svfprintf.o)
                                        0xc75 (size before relaxing)
 .debug_str     0x00000000000036a7       0x3e /home/tom/intelFPGA_lite/20.1/nios2eds/bin/gnu/H-x86_64-pc-linux-gnu/bin/../lib/gcc/nios2-elf/9.2.1/../../../../../H-x86_64-pc-linux-gnu/nios2-elf/lib/libc.a(lib_a-u_strerr.o)
                                        0x14b (size before relaxing)
 .debug_str     0x00000000000036e5       0x27 /home/tom/intelFPGA_lite/20.1/nios2eds/bin/gnu/H-x86_64-pc-linux-gnu/bin/../lib/gcc/nios2-elf/9.2.1/../../../../../H-x86_64-pc-linux-gnu/nios2-elf/lib/libc.a(lib_a-vfprintf.o)
                                        0xcc7 (size before relaxing)
 .debug_str     0x000000000000370c       0x3b /home/tom/intelFPGA_lite/20.1/nios2eds/bin/gnu/H-x86_64-pc-linux-gnu/bin/../lib/gcc/nios2-elf/9.2.1/../../../../../H-x86_64-pc-linux-gnu/nios2-elf/lib/libc.a(lib_a-writer.o)
                                        0x5e2 (size before relaxing)
 .debug_str     0x0000000000003747       0x50 /home/tom/intelFPGA_lite/20.1/nios2eds/bin/gnu/H-x86_64-pc-linux-gnu/bin/../lib/gcc/nios2-elf/9.2.1/../../../../../H-x86_64-pc-linux-gnu/nios2-elf/lib/libc.a(lib_a-wsetup.o)
                                        0x720 (size before relaxing)
 .debug_str     0x0000000000003797      0x197 /home/tom/intelFPGA_lite/20.1/nios2eds/bin/gnu/H-x86_64-pc-linux-gnu/bin/../lib/gcc/nios2-elf/9.2.1/../../../../../H-x86_64-pc-linux-gnu/nios2-elf/lib/libc.a(lib_a-dtoa.o)
                                        0xaaa (size before relaxing)
 .debug_str     0x000000000000392e       0x64 /home/tom/intelFPGA_lite/20.1/nios2eds/bin/gnu/H-x86_64-pc-linux-gnu/bin/../lib/gcc/nios2-elf/9.2.1/../../../../../H-x86_64-pc-linux-gnu/nios2-elf/lib/libc.a(lib_a-fflush.o)
                                        0x74e (size before relaxing)
 .debug_str     0x0000000000003992       0x3b /home/tom/intelFPGA_lite/20.1/nios2eds/bin/gnu/H-x86_64-pc-linux-gnu/bin/../lib/gcc/nios2-elf/9.2.1/../../../../../H-x86_64-pc-linux-gnu/nios2-elf/lib/libc.a(lib_a-fileno.o)
                                        0x70d (size before relaxing)
 .debug_str     0x00000000000039cd      0x162 /home/tom/intelFPGA_lite/20.1/nios2eds/bin/gnu/H-x86_64-pc-linux-gnu/bin/../lib/gcc/nios2-elf/9.2.1/../../../../../H-x86_64-pc-linux-gnu/nios2-elf/lib/libc.a(lib_a-findfp.o)
                                        0x86f (size before relaxing)
 .debug_str     0x0000000000003b2f      0x1a9 /home/tom/intelFPGA_lite/20.1/nios2eds/bin/gnu/H-x86_64-pc-linux-gnu/bin/../lib/gcc/nios2-elf/9.2.1/../../../../../H-x86_64-pc-linux-gnu/nios2-elf/lib/libc.a(lib_a-freer.o)
                                        0x77d (size before relaxing)
 .debug_str     0x0000000000003cd8       0x6d /home/tom/intelFPGA_lite/20.1/nios2eds/bin/gnu/H-x86_64-pc-linux-gnu/bin/../lib/gcc/nios2-elf/9.2.1/../../../../../H-x86_64-pc-linux-gnu/nios2-elf/lib/libc.a(lib_a-fvwrite.o)
                                        0x7b0 (size before relaxing)
 .debug_str     0x0000000000003d45       0x49 /home/tom/intelFPGA_lite/20.1/nios2eds/bin/gnu/H-x86_64-pc-linux-gnu/bin/../lib/gcc/nios2-elf/9.2.1/../../../../../H-x86_64-pc-linux-gnu/nios2-elf/lib/libc.a(lib_a-fwalk.o)
                                        0x712 (size before relaxing)
 .debug_str     0x0000000000003d8e       0x43 /home/tom/intelFPGA_lite/20.1/nios2eds/bin/gnu/H-x86_64-pc-linux-gnu/bin/../lib/gcc/nios2-elf/9.2.1/../../../../../H-x86_64-pc-linux-gnu/nios2-elf/lib/libc.a(lib_a-getc.o)
                                        0x70a (size before relaxing)
 .debug_str     0x0000000000003dd1       0x3e /home/tom/intelFPGA_lite/20.1/nios2eds/bin/gnu/H-x86_64-pc-linux-gnu/bin/../lib/gcc/nios2-elf/9.2.1/../../../../../H-x86_64-pc-linux-gnu/nios2-elf/lib/libc.a(lib_a-int_errno.o)
                                        0x5a3 (size before relaxing)
 .debug_str     0x0000000000003e0f       0xef /home/tom/intelFPGA_lite/20.1/nios2eds/bin/gnu/H-x86_64-pc-linux-gnu/bin/../lib/gcc/nios2-elf/9.2.1/../../../../../H-x86_64-pc-linux-gnu/nios2-elf/lib/libc.a(lib_a-localeconv.o)
                                        0x92e (size before relaxing)
 .debug_str     0x0000000000003efe      0x161 /home/tom/intelFPGA_lite/20.1/nios2eds/bin/gnu/H-x86_64-pc-linux-gnu/bin/../lib/gcc/nios2-elf/9.2.1/../../../../../H-x86_64-pc-linux-gnu/nios2-elf/lib/libc.a(lib_a-makebuf.o)
                                        0x893 (size before relaxing)
 .debug_str     0x000000000000405f       0xaa /home/tom/intelFPGA_lite/20.1/nios2eds/bin/gnu/H-x86_64-pc-linux-gnu/bin/../lib/gcc/nios2-elf/9.2.1/../../../../../H-x86_64-pc-linux-gnu/nios2-elf/lib/libc.a(lib_a-mallocr.o)
                                        0x804 (size before relaxing)
 .debug_str     0x0000000000004109       0x4a /home/tom/intelFPGA_lite/20.1/nios2eds/bin/gnu/H-x86_64-pc-linux-gnu/bin/../lib/gcc/nios2-elf/9.2.1/../../../../../H-x86_64-pc-linux-gnu/nios2-elf/lib/libc.a(lib_a-memchr.o)
                                        0x5ba (size before relaxing)
 .debug_str     0x0000000000004153       0x46 /home/tom/intelFPGA_lite/20.1/nios2eds/bin/gnu/H-x86_64-pc-linux-gnu/bin/../lib/gcc/nios2-elf/9.2.1/../../../../../H-x86_64-pc-linux-gnu/nios2-elf/lib/libc.a(lib_a-memmove.o)
                                        0x8e8 (size before relaxing)
 .debug_str     0x0000000000004199       0x95 /home/tom/intelFPGA_lite/20.1/nios2eds/bin/gnu/H-x86_64-pc-linux-gnu/bin/../lib/gcc/nios2-elf/9.2.1/../../../../../H-x86_64-pc-linux-gnu/nios2-elf/lib/libc.a(lib_a-mprec.o)
                                        0xa53 (size before relaxing)
 .debug_str     0x000000000000422e       0x48 /home/tom/intelFPGA_lite/20.1/nios2eds/bin/gnu/H-x86_64-pc-linux-gnu/bin/../lib/gcc/nios2-elf/9.2.1/../../../../../H-x86_64-pc-linux-gnu/nios2-elf/lib/libc.a(lib_a-putc.o)
                                        0x70a (size before relaxing)
 .debug_str     0x0000000000004276       0x49 /home/tom/intelFPGA_lite/20.1/nios2eds/bin/gnu/H-x86_64-pc-linux-gnu/bin/../lib/gcc/nios2-elf/9.2.1/../../../../../H-x86_64-pc-linux-gnu/nios2-elf/lib/libc.a(lib_a-reallocr.o)
                                        0x7bb (size before relaxing)
 .debug_str     0x00000000000042bf       0x4d /home/tom/intelFPGA_lite/20.1/nios2eds/bin/gnu/H-x86_64-pc-linux-gnu/bin/../lib/gcc/nios2-elf/9.2.1/../../../../../H-x86_64-pc-linux-gnu/nios2-elf/lib/libc.a(lib_a-rget.o)
                                        0x71b (size before relaxing)
 .debug_str     0x000000000000430c       0x4e /home/tom/intelFPGA_lite/20.1/nios2eds/bin/gnu/H-x86_64-pc-linux-gnu/bin/../lib/gcc/nios2-elf/9.2.1/../../../../../H-x86_64-pc-linux-gnu/nios2-elf/lib/libc.a(lib_a-sbrkr.o)
                                        0x5de (size before relaxing)
 .debug_str     0x000000000000435a       0x88 /home/tom/intelFPGA_lite/20.1/nios2eds/bin/gnu/H-x86_64-pc-linux-gnu/bin/../lib/gcc/nios2-elf/9.2.1/../../../../../H-x86_64-pc-linux-gnu/nios2-elf/lib/libc.a(lib_a-stdio.o)
                                        0x766 (size before relaxing)
 .debug_str     0x00000000000043e2       0x19 /home/tom/intelFPGA_lite/20.1/nios2eds/bin/gnu/H-x86_64-pc-linux-gnu/bin/../lib/gcc/nios2-elf/9.2.1/../../../../../H-x86_64-pc-linux-gnu/nios2-elf/lib/libc.a(lib_a-svfiprintf.o)
                                        0xc07 (size before relaxing)
 .debug_str     0x00000000000043fb       0x37 /home/tom/intelFPGA_lite/20.1/nios2eds/bin/gnu/H-x86_64-pc-linux-gnu/bin/../lib/gcc/nios2-elf/9.2.1/../../../../../H-x86_64-pc-linux-gnu/nios2-elf/lib/libc.a(lib_a-vfiprintf.o)
                                        0xc2f (size before relaxing)
 .debug_str     0x0000000000004432       0x41 /home/tom/intelFPGA_lite/20.1/nios2eds/bin/gnu/H-x86_64-pc-linux-gnu/bin/../lib/gcc/nios2-elf/9.2.1/../../../../../H-x86_64-pc-linux-gnu/nios2-elf/lib/libc.a(lib_a-wbuf.o)
                                        0x725 (size before relaxing)
 .debug_str     0x0000000000004473       0x3b /home/tom/intelFPGA_lite/20.1/nios2eds/bin/gnu/H-x86_64-pc-linux-gnu/bin/../lib/gcc/nios2-elf/9.2.1/../../../../../H-x86_64-pc-linux-gnu/nios2-elf/lib/libc.a(closer.o)
                                        0x5d2 (size before relaxing)
 .debug_str     0x00000000000044ae       0x59 /home/tom/intelFPGA_lite/20.1/nios2eds/bin/gnu/H-x86_64-pc-linux-gnu/bin/../lib/gcc/nios2-elf/9.2.1/../../../../../H-x86_64-pc-linux-gnu/nios2-elf/lib/libc.a(lib_a-assert.o)
                                        0x5dc (size before relaxing)
 .debug_str     0x0000000000004507        0xf /home/tom/intelFPGA_lite/20.1/nios2eds/bin/gnu/H-x86_64-pc-linux-gnu/bin/../lib/gcc/nios2-elf/9.2.1/../../../../../H-x86_64-pc-linux-gnu/nios2-elf/lib/libc.a(lib_a-callocr.o)
                                        0x739 (size before relaxing)
 .debug_str     0x0000000000004516       0x45 /home/tom/intelFPGA_lite/20.1/nios2eds/bin/gnu/H-x86_64-pc-linux-gnu/bin/../lib/gcc/nios2-elf/9.2.1/../../../../../H-x86_64-pc-linux-gnu/nios2-elf/lib/libc.a(lib_a-fclose.o)
                                        0x737 (size before relaxing)
 .debug_str     0x000000000000455b       0x56 /home/tom/intelFPGA_lite/20.1/nios2eds/bin/gnu/H-x86_64-pc-linux-gnu/bin/../lib/gcc/nios2-elf/9.2.1/../../../../../H-x86_64-pc-linux-gnu/nios2-elf/lib/libc.a(lib_a-fiprintf.o)
                                        0x5e2 (size before relaxing)
 .debug_str     0x00000000000045b1       0x63 /home/tom/intelFPGA_lite/20.1/nios2eds/bin/gnu/H-x86_64-pc-linux-gnu/bin/../lib/gcc/nios2-elf/9.2.1/../../../../../H-x86_64-pc-linux-gnu/nios2-elf/lib/libc.a(lib_a-fputwc.o)
                                        0x757 (size before relaxing)
 .debug_str     0x0000000000004614       0x41 /home/tom/intelFPGA_lite/20.1/nios2eds/bin/gnu/H-x86_64-pc-linux-gnu/bin/../lib/gcc/nios2-elf/9.2.1/../../../../../H-x86_64-pc-linux-gnu/nios2-elf/lib/libc.a(lib_a-fstatr.o)
                                        0x739 (size before relaxing)
 .debug_str     0x0000000000004655       0x43 /home/tom/intelFPGA_lite/20.1/nios2eds/bin/gnu/H-x86_64-pc-linux-gnu/bin/../lib/gcc/nios2-elf/9.2.1/../../../../../H-x86_64-pc-linux-gnu/nios2-elf/lib/libc.a(lib_a-isattyr.o)
                                        0x5d5 (size before relaxing)
 .debug_str     0x0000000000004698       0x6f /home/tom/intelFPGA_lite/20.1/nios2eds/bin/gnu/H-x86_64-pc-linux-gnu/bin/../lib/gcc/nios2-elf/9.2.1/../../../../../H-x86_64-pc-linux-gnu/nios2-elf/lib/libc.a(lib_a-locale.o)
                                        0x977 (size before relaxing)
 .debug_str     0x0000000000004707       0x41 /home/tom/intelFPGA_lite/20.1/nios2eds/bin/gnu/H-x86_64-pc-linux-gnu/bin/../lib/gcc/nios2-elf/9.2.1/../../../../../H-x86_64-pc-linux-gnu/nios2-elf/lib/libc.a(lib_a-lseekr.o)
                                        0x5d9 (size before relaxing)
 .debug_str     0x0000000000004748       0x57 /home/tom/intelFPGA_lite/20.1/nios2eds/bin/gnu/H-x86_64-pc-linux-gnu/bin/../lib/gcc/nios2-elf/9.2.1/../../../../../H-x86_64-pc-linux-gnu/nios2-elf/lib/libc.a(lib_a-mbtowc_r.o)
                                        0x93f (size before relaxing)
 .debug_str     0x000000000000479f       0x3a /home/tom/intelFPGA_lite/20.1/nios2eds/bin/gnu/H-x86_64-pc-linux-gnu/bin/../lib/gcc/nios2-elf/9.2.1/../../../../../H-x86_64-pc-linux-gnu/nios2-elf/lib/libc.a(lib_a-readr.o)
                                        0x5df (size before relaxing)
 .debug_str     0x00000000000047d9       0x4d /home/tom/intelFPGA_lite/20.1/nios2eds/bin/gnu/H-x86_64-pc-linux-gnu/bin/../lib/gcc/nios2-elf/9.2.1/../../../../../H-x86_64-pc-linux-gnu/nios2-elf/lib/libc.a(lib_a-refill.o)
                                        0x755 (size before relaxing)
 .debug_str     0x0000000000004826       0x3c /home/tom/intelFPGA_lite/20.1/nios2eds/bin/gnu/H-x86_64-pc-linux-gnu/bin/../lib/gcc/nios2-elf/9.2.1/../../../../../H-x86_64-pc-linux-gnu/nios2-elf/lib/libc.a(lib_a-strcmp.o)
                                        0x599 (size before relaxing)
 .debug_str     0x0000000000004862       0x41 /home/tom/intelFPGA_lite/20.1/nios2eds/bin/gnu/H-x86_64-pc-linux-gnu/bin/../lib/gcc/nios2-elf/9.2.1/../../../../../H-x86_64-pc-linux-gnu/nios2-elf/lib/libc.a(lib_a-vfiprintfr_1.o)
                                        0x729 (size before relaxing)
 .debug_str     0x00000000000048a3       0x4c /home/tom/intelFPGA_lite/20.1/nios2eds/bin/gnu/H-x86_64-pc-linux-gnu/bin/../lib/gcc/nios2-elf/9.2.1/../../../../../H-x86_64-pc-linux-gnu/nios2-elf/lib/libc.a(lib_a-wcrtomb.o)
                                        0x939 (size before relaxing)
 .debug_str     0x00000000000048ef       0x5e /home/tom/intelFPGA_lite/20.1/nios2eds/bin/gnu/H-x86_64-pc-linux-gnu/bin/../lib/gcc/nios2-elf/9.2.1/../../../../../H-x86_64-pc-linux-gnu/nios2-elf/lib/libc.a(lib_a-wctomb_r.o)
                                        0x946 (size before relaxing)
 .debug_str     0x000000000000494d       0x41 /home/tom/intelFPGA_lite/20.1/nios2eds/bin/gnu/H-x86_64-pc-linux-gnu/bin/../lib/gcc/nios2-elf/9.2.1/../../../../../H-x86_64-pc-linux-gnu/nios2-elf/lib/libc.a(lib_a-abort.o)
                                        0x5da (size before relaxing)
 .debug_str     0x000000000000498e      0x128 /home/tom/intelFPGA_lite/20.1/nios2eds/bin/gnu/H-x86_64-pc-linux-gnu/bin/../lib/gcc/nios2-elf/9.2.1/../../../../../H-x86_64-pc-linux-gnu/nios2-elf/lib/libc.a(lib_a-signal.o)
                                        0x63f (size before relaxing)
 .debug_str     0x0000000000004ab6       0x43 /home/tom/intelFPGA_lite/20.1/nios2eds/bin/gnu/H-x86_64-pc-linux-gnu/bin/../lib/gcc/nios2-elf/9.2.1/../../../../../H-x86_64-pc-linux-gnu/nios2-elf/lib/libc.a(lib_a-signalr.o)
                                        0x5e2 (size before relaxing)
 .debug_str     0x0000000000004af9      0x25d /home/tom/intelFPGA_lite/20.1/nios2eds/bin/gnu/H-x86_64-pc-linux-gnu/bin/../lib/gcc/nios2-elf/9.2.1/libgcc.a(_udivdi3.o)
                                        0x2f7 (size before relaxing)
 .debug_str     0x0000000000004d56        0xa /home/tom/intelFPGA_lite/20.1/nios2eds/bin/gnu/H-x86_64-pc-linux-gnu/bin/../lib/gcc/nios2-elf/9.2.1/libgcc.a(_umoddi3.o)
                                        0x2f7 (size before relaxing)
 .debug_str     0x0000000000004d60       0xfb /home/tom/intelFPGA_lite/20.1/nios2eds/bin/gnu/H-x86_64-pc-linux-gnu/bin/../lib/gcc/nios2-elf/9.2.1/libgcc.a(lib2-divmod.o)
                                        0x1c5 (size before relaxing)
 .debug_str     0x0000000000004e5b      0x183 /home/tom/intelFPGA_lite/20.1/nios2eds/bin/gnu/H-x86_64-pc-linux-gnu/bin/../lib/gcc/nios2-elf/9.2.1/libgcc.a(adddf3.o)
                                        0x319 (size before relaxing)
 .debug_str     0x0000000000004fde      0x19a /home/tom/intelFPGA_lite/20.1/nios2eds/bin/gnu/H-x86_64-pc-linux-gnu/bin/../lib/gcc/nios2-elf/9.2.1/libgcc.a(divdf3.o)
                                        0x3db (size before relaxing)
 .debug_str     0x0000000000005178       0x47 /home/tom/intelFPGA_lite/20.1/nios2eds/bin/gnu/H-x86_64-pc-linux-gnu/bin/../lib/gcc/nios2-elf/9.2.1/libgcc.a(eqdf2.o)
                                        0x225 (size before relaxing)
 .debug_str     0x00000000000051bf       0x5a /home/tom/intelFPGA_lite/20.1/nios2eds/bin/gnu/H-x86_64-pc-linux-gnu/bin/../lib/gcc/nios2-elf/9.2.1/libgcc.a(gedf2.o)
                                        0x249 (size before relaxing)
 .debug_str     0x0000000000005219       0x36 /home/tom/intelFPGA_lite/20.1/nios2eds/bin/gnu/H-x86_64-pc-linux-gnu/bin/../lib/gcc/nios2-elf/9.2.1/libgcc.a(ledf2.o)
                                        0x249 (size before relaxing)
 .debug_str     0x000000000000524f      0x15d /home/tom/intelFPGA_lite/20.1/nios2eds/bin/gnu/H-x86_64-pc-linux-gnu/bin/../lib/gcc/nios2-elf/9.2.1/libgcc.a(muldf3.o)
                                        0x433 (size before relaxing)
 .debug_str     0x00000000000053ac       0x38 /home/tom/intelFPGA_lite/20.1/nios2eds/bin/gnu/H-x86_64-pc-linux-gnu/bin/../lib/gcc/nios2-elf/9.2.1/libgcc.a(subdf3.o)
                                        0x319 (size before relaxing)
 .debug_str     0x00000000000053e4       0x3c /home/tom/intelFPGA_lite/20.1/nios2eds/bin/gnu/H-x86_64-pc-linux-gnu/bin/../lib/gcc/nios2-elf/9.2.1/libgcc.a(unorddf2.o)
                                        0x22b (size before relaxing)
 .debug_str     0x0000000000005420       0x4d /home/tom/intelFPGA_lite/20.1/nios2eds/bin/gnu/H-x86_64-pc-linux-gnu/bin/../lib/gcc/nios2-elf/9.2.1/libgcc.a(fixdfsi.o)
                                        0x230 (size before relaxing)
 .debug_str     0x000000000000546d       0x6b /home/tom/intelFPGA_lite/20.1/nios2eds/bin/gnu/H-x86_64-pc-linux-gnu/bin/../lib/gcc/nios2-elf/9.2.1/libgcc.a(floatsidf.o)
                                        0x2cb (size before relaxing)
 .debug_str     0x00000000000054d8       0x42 /home/tom/intelFPGA_lite/20.1/nios2eds/bin/gnu/H-x86_64-pc-linux-gnu/bin/../lib/gcc/nios2-elf/9.2.1/libgcc.a(floatunsidf.o)
                                        0x2c8 (size before relaxing)
 .debug_str     0x000000000000551a      0x23e /home/tom/intelFPGA_lite/20.1/nios2eds/bin/gnu/H-x86_64-pc-linux-gnu/bin/../lib/gcc/nios2-elf/9.2.1/libgcc.a(_clz.o)
 .debug_str     0x000000000000551a        0x9 /home/tom/intelFPGA_lite/20.1/nios2eds/bin/gnu/H-x86_64-pc-linux-gnu/bin/../lib/gcc/nios2-elf/9.2.1/libgcc.a(_clzsi2.o)
                                        0x25b (size before relaxing)
 .debug_str     0x0000000000005523       0x41 ../MOD_socket_server_bsp//libucosii_bsp.a(alt_exit.o)
                                        0xac4 (size before relaxing)
 .debug_str     0x0000000000005564       0x9d ../MOD_socket_server_bsp//libucosii_bsp.a(alt_fstat.o)
                                        0xcc7 (size before relaxing)
 .debug_str     0x0000000000005601       0x15 ../MOD_socket_server_bsp//libucosii_bsp.a(alt_getpid.o)
                                         0xc7 (size before relaxing)
 .debug_str     0x0000000000005616       0x15 ../MOD_socket_server_bsp//libucosii_bsp.a(alt_isatty.o)
                                        0xccf (size before relaxing)
 .debug_str     0x000000000000562b       0x13 ../MOD_socket_server_bsp//libucosii_bsp.a(alt_kill.o)
                                        0x5a0 (size before relaxing)
 .debug_str     0x000000000000563e       0x14 ../MOD_socket_server_bsp//libucosii_bsp.a(alt_lseek.o)
                                        0xba6 (size before relaxing)
 .debug_str     0x0000000000005652       0x46 ../MOD_socket_server_bsp//libucosii_bsp.a(alt_main.o)
                                        0xd31 (size before relaxing)
 .debug_str     0x0000000000005698       0x98 ../MOD_socket_server_bsp//libucosii_bsp.a(alt_sbrk.o)
                                        0x5e9 (size before relaxing)
 .debug_str     0x0000000000005730       0x5f ../MOD_socket_server_bsp//libucosii_bsp.a(alt_env_lock.o)
                                        0xaed (size before relaxing)
 .debug_str     0x000000000000578f       0x24 ../MOD_socket_server_bsp//libucosii_bsp.a(alt_malloc_lock.o)
                                        0xb3d (size before relaxing)
 .debug_str     0x00000000000057b3      0x2ff ../MOD_socket_server_bsp//libucosii_bsp.a(os_core.o)
                                        0xd9e (size before relaxing)
 .debug_str     0x0000000000005ab2      0x2e5 ../MOD_socket_server_bsp//libucosii_bsp.a(os_dbg.o)
                                        0xd18 (size before relaxing)
 .debug_str     0x0000000000005d97      0x136 ../MOD_socket_server_bsp//libucosii_bsp.a(os_flag.o)
                                        0xbe3 (size before relaxing)
 .debug_str     0x0000000000005ecd       0xcf ../MOD_socket_server_bsp//libucosii_bsp.a(os_mem.o)
                                        0xb60 (size before relaxing)
 .debug_str     0x0000000000005f9c       0xc0 ../MOD_socket_server_bsp//libucosii_bsp.a(os_q.o)
                                        0xb76 (size before relaxing)
 .debug_str     0x000000000000605c       0x77 ../MOD_socket_server_bsp//libucosii_bsp.a(os_sem.o)
                                        0xb53 (size before relaxing)
 .debug_str     0x00000000000060d3       0xfa ../MOD_socket_server_bsp//libucosii_bsp.a(os_task.o)
                                        0xc1b (size before relaxing)
 .debug_str     0x00000000000061cd       0x5d ../MOD_socket_server_bsp//libucosii_bsp.a(os_time.o)
                                        0xaf6 (size before relaxing)
 .debug_str     0x000000000000622a      0x530 ../MOD_socket_server_bsp//libucosii_bsp.a(alt_sys_init.o)
                                       0x1cac (size before relaxing)
 .debug_str     0x000000000000675a      0x28e ../MOD_socket_server_bsp//libucosii_bsp.a(altera_avalon_fifo_util.o)
                                        0x807 (size before relaxing)
 .debug_str     0x00000000000069e8      0x906 ../MOD_socket_server_bsp//libucosii_bsp.a(altera_avalon_i2c.o)
                                       0x15b4 (size before relaxing)
 .debug_str     0x00000000000072ee       0xac ../MOD_socket_server_bsp//libucosii_bsp.a(altera_avalon_jtag_uart_fd.o)
                                        0xcc8 (size before relaxing)
 .debug_str     0x000000000000739a       0xee ../MOD_socket_server_bsp//libucosii_bsp.a(altera_avalon_jtag_uart_init.o)
                                        0xcab (size before relaxing)
 .debug_str     0x0000000000007488       0x4a ../MOD_socket_server_bsp//libucosii_bsp.a(altera_avalon_jtag_uart_ioctl.o)
                                        0xbd3 (size before relaxing)
 .debug_str     0x00000000000074d2       0x63 ../MOD_socket_server_bsp//libucosii_bsp.a(altera_avalon_jtag_uart_read.o)
                                        0xc46 (size before relaxing)
 .debug_str     0x0000000000007535       0x4a ../MOD_socket_server_bsp//libucosii_bsp.a(altera_avalon_jtag_uart_write.o)
                                        0xc47 (size before relaxing)
 .debug_str     0x000000000000757f       0x98 ../MOD_socket_server_bsp//libucosii_bsp.a(altera_avalon_spi.o)
                                        0x208 (size before relaxing)
 .debug_str     0x0000000000007617       0x66 ../MOD_socket_server_bsp//libucosii_bsp.a(altera_avalon_timer_sc.o)
                                        0x69a (size before relaxing)
 .debug_str     0x000000000000767d     0x12f1 ../MOD_socket_server_bsp//libucosii_bsp.a(altera_avalon_tse.o)
                                       0x2803 (size before relaxing)
 .debug_str     0x000000000000896e      0x27e ../MOD_socket_server_bsp//libucosii_bsp.a(altera_generic_quad_spi_controller.o)
                                        0xa1a (size before relaxing)
 .debug_str     0x0000000000008bec      0x8a0 ../MOD_socket_server_bsp//libucosii_bsp.a(altera_msgdma.o)
                                       0x167d (size before relaxing)
 .debug_str     0x000000000000948c      0x71d ../MOD_socket_server_bsp//libucosii_bsp.a(ins_tse_mac.o)
                                       0x2a0c (size before relaxing)
 .debug_str     0x0000000000009ba9       0x1e ../MOD_socket_server_bsp//libucosii_bsp.a(alt_iniche_close.o)
                                       0x148b (size before relaxing)
 .debug_str     0x0000000000009bc7       0x48 ../MOD_socket_server_bsp//libucosii_bsp.a(alt_iniche_dev.o)
                                       0x1552 (size before relaxing)
 .debug_str     0x0000000000009c0f       0x1d ../MOD_socket_server_bsp//libucosii_bsp.a(alt_iniche_read.o)
                                       0x1490 (size before relaxing)
 .debug_str     0x0000000000009c2c       0x1e ../MOD_socket_server_bsp//libucosii_bsp.a(alt_iniche_write.o)
                                       0x1492 (size before relaxing)
 .debug_str     0x0000000000009c4a       0x63 ../MOD_socket_server_bsp//libucosii_bsp.a(ipnet.o)
                                       0x130d (size before relaxing)
 .debug_str     0x0000000000009cad       0x83 ../MOD_socket_server_bsp//libucosii_bsp.a(ipstart.o)
                                       0x1603 (size before relaxing)
 .debug_str     0x0000000000009d30      0x4b5 ../MOD_socket_server_bsp//libucosii_bsp.a(igmp_cmn.o)
                                       0x19b8 (size before relaxing)
 .debug_str     0x000000000000a1e5      0x11c ../MOD_socket_server_bsp//libucosii_bsp.a(bsdsock.o)
                                       0x165e (size before relaxing)
 .debug_str     0x000000000000a301       0x35 ../MOD_socket_server_bsp//libucosii_bsp.a(cksum.o)
                                        0xb71 (size before relaxing)
 .debug_str     0x000000000000a336      0x11b ../MOD_socket_server_bsp//libucosii_bsp.a(in_utils.o)
                                       0x1698 (size before relaxing)
 .debug_str     0x000000000000a451       0x5f ../MOD_socket_server_bsp//libucosii_bsp.a(netmain.o)
                                       0x16f5 (size before relaxing)
 .debug_str     0x000000000000a4b0      0x11e ../MOD_socket_server_bsp//libucosii_bsp.a(tk_crnos.o)
                                       0x17c6 (size before relaxing)
 .debug_str     0x000000000000a5ce      0x291 ../MOD_socket_server_bsp//libucosii_bsp.a(dhcpclnt.o)
                                       0x15b7 (size before relaxing)
 .debug_str     0x000000000000a85f       0x2a ../MOD_socket_server_bsp//libucosii_bsp.a(dhcputil.o)
                                        0xbe6 (size before relaxing)
 .debug_str     0x000000000000a889       0xa0 ../MOD_socket_server_bsp//libucosii_bsp.a(pktalloc.o)
                                       0x12c1 (size before relaxing)
 .debug_str     0x000000000000a929       0x2d ../MOD_socket_server_bsp//libucosii_bsp.a(q.o)
                                        0xb91 (size before relaxing)
 .debug_str     0x000000000000a956       0x48 ../MOD_socket_server_bsp//libucosii_bsp.a(udp_open.o)
                                       0x1312 (size before relaxing)
 .debug_str     0x000000000000a99e       0x1d ../MOD_socket_server_bsp//libucosii_bsp.a(asm_cksum.o)
                                         0x88 (size before relaxing)
 .debug_str     0x000000000000a9bb       0xb2 ../MOD_socket_server_bsp//libucosii_bsp.a(brdutils.o)
                                        0xc30 (size before relaxing)
 .debug_str     0x000000000000aa6d       0xd0 ../MOD_socket_server_bsp//libucosii_bsp.a(osportco.o)
                                       0x181c (size before relaxing)
 .debug_str     0x000000000000ab3d      0x1c7 ../MOD_socket_server_bsp//libucosii_bsp.a(targnios.o)
                                       0x1b85 (size before relaxing)
 .debug_str     0x000000000000ad04      0x6d1 ../MOD_socket_server_bsp//libucosii_bsp.a(nptcp.o)
                                       0x1f50 (size before relaxing)
 .debug_str     0x000000000000b3d5       0x48 ../MOD_socket_server_bsp//libucosii_bsp.a(rawsock.o)
                                       0x15ad (size before relaxing)
 .debug_str     0x000000000000b41d      0x10e ../MOD_socket_server_bsp//libucosii_bsp.a(sockcall.o)
                                       0x1c45 (size before relaxing)
 .debug_str     0x000000000000b52b      0x11f ../MOD_socket_server_bsp//libucosii_bsp.a(socket.o)
                                       0x1ba1 (size before relaxing)
 .debug_str     0x000000000000b64a      0x147 ../MOD_socket_server_bsp//libucosii_bsp.a(socket2.o)
                                       0x1639 (size before relaxing)
 .debug_str     0x000000000000b791       0x95 ../MOD_socket_server_bsp//libucosii_bsp.a(soselect.o)
                                       0x15fc (size before relaxing)
 .debug_str     0x000000000000b826      0x122 ../MOD_socket_server_bsp//libucosii_bsp.a(tcp_in.o)
                                       0x1c59 (size before relaxing)
 .debug_str     0x000000000000b948       0x8d ../MOD_socket_server_bsp//libucosii_bsp.a(tcp_out.o)
                                       0x1b68 (size before relaxing)
 .debug_str     0x000000000000b9d5       0x84 ../MOD_socket_server_bsp//libucosii_bsp.a(tcp_subr.o)
                                       0x1baf (size before relaxing)
 .debug_str     0x000000000000ba59       0x64 ../MOD_socket_server_bsp//libucosii_bsp.a(tcp_timr.o)
                                       0x1b24 (size before relaxing)
 .debug_str     0x000000000000babd       0x5b ../MOD_socket_server_bsp//libucosii_bsp.a(tcp_usr.o)
                                       0x1b4d (size before relaxing)
 .debug_str     0x000000000000bb18       0x21 ../MOD_socket_server_bsp//libucosii_bsp.a(tcpport.o)
                                       0x1562 (size before relaxing)
 .debug_str     0x000000000000bb39       0x99 ../MOD_socket_server_bsp//libucosii_bsp.a(udpsock.o)
                                       0x1661 (size before relaxing)
 .debug_str     0x000000000000bbd2       0x39 ../MOD_socket_server_bsp//libucosii_bsp.a(alt_alarm_start.o)
                                        0x693 (size before relaxing)
 .debug_str     0x000000000000bc0b       0x42 ../MOD_socket_server_bsp//libucosii_bsp.a(alt_busy_sleep.o)
                                        0x569 (size before relaxing)
 .debug_str     0x000000000000bc4d       0x25 ../MOD_socket_server_bsp//libucosii_bsp.a(alt_close.o)
                                        0xba9 (size before relaxing)
 .debug_str     0x000000000000bc72       0x2c ../MOD_socket_server_bsp//libucosii_bsp.a(alt_dcache_flush.o)
                                        0x563 (size before relaxing)
 .debug_str     0x000000000000bc9e       0x32 ../MOD_socket_server_bsp//libucosii_bsp.a(alt_dev.o)
                                        0xcef (size before relaxing)
 .debug_str     0x000000000000bcd0       0x34 ../MOD_socket_server_bsp//libucosii_bsp.a(alt_dev_llist_insert.o)
                                        0x5e1 (size before relaxing)
 .debug_str     0x000000000000bd04       0x48 ../MOD_socket_server_bsp//libucosii_bsp.a(alt_do_ctors.o)
                                         0xf8 (size before relaxing)
 .debug_str     0x000000000000bd4c       0x4c ../MOD_socket_server_bsp//libucosii_bsp.a(alt_do_dtors.o)
                                         0xf7 (size before relaxing)
 .debug_str     0x000000000000bd98       0x14 ../MOD_socket_server_bsp//libucosii_bsp.a(alt_errno.o)
                                        0x55a (size before relaxing)
 .debug_str     0x000000000000bdac       0x24 ../MOD_socket_server_bsp//libucosii_bsp.a(alt_find_dev.o)
                                        0xb58 (size before relaxing)
 .debug_str     0x000000000000bdd0       0x3f ../MOD_socket_server_bsp//libucosii_bsp.a(alt_flash_dev.o)
                                        0xcc4 (size before relaxing)
 .debug_str     0x000000000000be0f       0xa5 ../MOD_socket_server_bsp//libucosii_bsp.a(alt_iic.o)
                                        0x641 (size before relaxing)
 .debug_str     0x000000000000beb4       0x4c ../MOD_socket_server_bsp//libucosii_bsp.a(alt_iic_isr_register.o)
                                        0x5fd (size before relaxing)
 .debug_str     0x000000000000bf00       0x56 ../MOD_socket_server_bsp//libucosii_bsp.a(alt_io_redirect.o)
                                        0xd1e (size before relaxing)
 .debug_str     0x000000000000bf56       0x18 ../MOD_socket_server_bsp//libucosii_bsp.a(alt_irq_entry.o)
                                         0x83 (size before relaxing)
 .debug_str     0x000000000000bf6e       0x3a ../MOD_socket_server_bsp//libucosii_bsp.a(alt_irq_handler.o)
                                        0xb02 (size before relaxing)
 .debug_str     0x000000000000bfa8       0x29 ../MOD_socket_server_bsp//libucosii_bsp.a(alt_irq_vars.o)
                                        0x162 (size before relaxing)
 .debug_str     0x000000000000bfd1       0x29 ../MOD_socket_server_bsp//libucosii_bsp.a(alt_open.o)
                                        0xb98 (size before relaxing)
 .debug_str     0x000000000000bffa       0x2c ../MOD_socket_server_bsp//libucosii_bsp.a(alt_printf.o)
                                        0x122 (size before relaxing)
 .debug_str     0x000000000000c026       0x22 ../MOD_socket_server_bsp//libucosii_bsp.a(alt_putchar.o)
                                        0x541 (size before relaxing)
 .debug_str     0x000000000000c048       0x1c ../MOD_socket_server_bsp//libucosii_bsp.a(alt_read.o)
                                        0xd08 (size before relaxing)
 .debug_str     0x000000000000c064       0x28 ../MOD_socket_server_bsp//libucosii_bsp.a(alt_release_fd.o)
                                        0xb5c (size before relaxing)
 .debug_str     0x000000000000c08c       0x2c ../MOD_socket_server_bsp//libucosii_bsp.a(alt_remap_cached.o)
                                        0x55d (size before relaxing)
 .debug_str     0x000000000000c0b8       0x4a ../MOD_socket_server_bsp//libucosii_bsp.a(alt_tick.o)
                                        0xb6f (size before relaxing)
 .debug_str     0x000000000000c102       0x2e ../MOD_socket_server_bsp//libucosii_bsp.a(alt_uncached_free.o)
                                        0x557 (size before relaxing)
 .debug_str     0x000000000000c130       0x32 ../MOD_socket_server_bsp//libucosii_bsp.a(alt_uncached_malloc.o)
                                        0x567 (size before relaxing)
 .debug_str     0x000000000000c162       0x29 ../MOD_socket_server_bsp//libucosii_bsp.a(alt_usleep.o)
                                        0xb03 (size before relaxing)
 .debug_str     0x000000000000c18b       0x1e ../MOD_socket_server_bsp//libucosii_bsp.a(alt_write.o)
                                        0xd0a (size before relaxing)
 .debug_str     0x000000000000c1a9       0x3b ../MOD_socket_server_bsp//libucosii_bsp.a(altera_nios2_gen2_irq.o)
                                        0x571 (size before relaxing)
 .debug_str     0x000000000000c1e4       0x13 ../MOD_socket_server_bsp//libucosii_bsp.a(os_cpu_a.o)
                                         0x7e (size before relaxing)
 .debug_str     0x000000000000c1f7       0xd5 ../MOD_socket_server_bsp//libucosii_bsp.a(os_cpu_c.o)
                                        0xb62 (size before relaxing)
 .debug_str     0x000000000000c2cc       0xa3 ../MOD_socket_server_bsp//libucosii_bsp.a(allports.o)
                                       0x1751 (size before relaxing)
 .debug_str     0x000000000000c36f       0xa6 ../MOD_socket_server_bsp//libucosii_bsp.a(timeouts.o)
                                       0x1360 (size before relaxing)
 .debug_str     0x000000000000c415       0x39 ../MOD_socket_server_bsp//libucosii_bsp.a(tk_misc.o)
                                       0x16e3 (size before relaxing)
 .debug_str     0x000000000000c44e       0x1e ../MOD_socket_server_bsp//libucosii_bsp.a(alt_iniche_fcntl.o)
                                       0x14be (size before relaxing)
 .debug_str     0x000000000000c46c      0x17a ../MOD_socket_server_bsp//libucosii_bsp.a(et_arp.o)
                                       0x1463 (size before relaxing)
 .debug_str     0x000000000000c5e6       0x44 ../MOD_socket_server_bsp//libucosii_bsp.a(iface.o)
                                       0x15a2 (size before relaxing)
 .debug_str     0x000000000000c62a      0x1ac ../MOD_socket_server_bsp//libucosii_bsp.a(ip.o)
                                       0x16ae (size before relaxing)
 .debug_str     0x000000000000c7d6      0x420 ../MOD_socket_server_bsp//libucosii_bsp.a(ip_reasm.o)
                                       0x18d6 (size before relaxing)
 .debug_str     0x000000000000cbf6       0x65 ../MOD_socket_server_bsp//libucosii_bsp.a(ipdemux.o)
                                       0x1592 (size before relaxing)
 .debug_str     0x000000000000cc5b       0x43 ../MOD_socket_server_bsp//libucosii_bsp.a(ipmc.o)
                                       0x128e (size before relaxing)
 .debug_str     0x000000000000cc9e       0x38 ../MOD_socket_server_bsp//libucosii_bsp.a(ipport.o)
                                       0x1279 (size before relaxing)
 .debug_str     0x000000000000ccd6       0xa1 ../MOD_socket_server_bsp//libucosii_bsp.a(ipraw.o)
                                       0x1327 (size before relaxing)
 .debug_str     0x000000000000cd77       0xa4 ../MOD_socket_server_bsp//libucosii_bsp.a(iproute.o)
                                       0x12df (size before relaxing)
 .debug_str     0x000000000000ce1b       0x9b ../MOD_socket_server_bsp//libucosii_bsp.a(udp.o)
                                       0x1836 (size before relaxing)
 .debug_str     0x000000000000ceb6       0x24 ../MOD_socket_server_bsp//libucosii_bsp.a(igmp.o)
                                       0x18f9 (size before relaxing)
 .debug_str     0x000000000000ceda       0xbc ../MOD_socket_server_bsp//libucosii_bsp.a(igmp2.o)
                                       0x19b1 (size before relaxing)
 .debug_str     0x000000000000cf96       0x79 ../MOD_socket_server_bsp//libucosii_bsp.a(ipopt.o)
                                       0x15c4 (size before relaxing)
 .debug_str     0x000000000000d00f       0x87 ../MOD_socket_server_bsp//libucosii_bsp.a(u_mctest.o)
                                       0x15b0 (size before relaxing)
 .debug_str     0x000000000000d096       0x5a ../MOD_socket_server_bsp//libucosii_bsp.a(dhcsetup.o)
                                        0xfbf (size before relaxing)
 .debug_str     0x000000000000d0f0       0xa6 ../MOD_socket_server_bsp//libucosii_bsp.a(memdev.o)
                                        0xd24 (size before relaxing)
 .debug_str     0x000000000000d196       0xba ../MOD_socket_server_bsp//libucosii_bsp.a(parseip.o)
                                       0x138e (size before relaxing)
 .debug_str     0x000000000000d250       0x4d ../MOD_socket_server_bsp//libucosii_bsp.a(tcpcksum.o)
                                       0x155e (size before relaxing)
 .debug_str     0x000000000000d29d       0xdb ../MOD_socket_server_bsp//libucosii_bsp.a(in_pcb.o)
                                       0x165e (size before relaxing)
 .debug_str     0x000000000000d378      0x1e1 ../MOD_socket_server_bsp//libucosii_bsp.a(vfsfiles.o)
                                        0xeeb (size before relaxing)
 .debug_str     0x000000000000d559       0x22 ../MOD_socket_server_bsp//libucosii_bsp.a(vfsport.o)
                                        0xc7d (size before relaxing)
 .debug_str     0x000000000000d57b       0x1e ../MOD_socket_server_bsp//libucosii_bsp.a(alt_exception_entry.o)
                                         0x89 (size before relaxing)
 .debug_str     0x000000000000d599       0x1e ../MOD_socket_server_bsp//libucosii_bsp.a(alt_fcntl.o)
                                        0xd32 (size before relaxing)
 .debug_str     0x000000000000d5b7       0x26 ../MOD_socket_server_bsp//libucosii_bsp.a(alt_find_file.o)
                                        0xb5a (size before relaxing)
 .debug_str     0x000000000000d5dd       0x30 ../MOD_socket_server_bsp//libucosii_bsp.a(alt_get_fd.o)
                                        0xb79 (size before relaxing)
 .debug_str     0x000000000000d60d      0x48b ../MOD_socket_server_bsp//libucosii_bsp.a(alt_instruction_exception_entry.o)
                                        0x5c8 (size before relaxing)
 .debug_str     0x000000000000da98       0x9f ../MOD_socket_server_bsp//libucosii_bsp.a(icmp.o)
                                       0x154f (size before relaxing)
 .debug_str     0x000000000000db37       0x80 /home/tom/intelFPGA_lite/20.1/nios2eds/bin/gnu/H-x86_64-pc-linux-gnu/bin/../lib/gcc/nios2-elf/9.2.1/../../../../../H-x86_64-pc-linux-gnu/nios2-elf/lib/libc.a(lib_a-atexit.o)
                                        0x5e7 (size before relaxing)
 .debug_str     0x000000000000dbb7       0x58 /home/tom/intelFPGA_lite/20.1/nios2eds/bin/gnu/H-x86_64-pc-linux-gnu/bin/../lib/gcc/nios2-elf/9.2.1/../../../../../H-x86_64-pc-linux-gnu/nios2-elf/lib/libc.a(lib_a-atoi.o)
                                        0x5b8 (size before relaxing)
 .debug_str     0x000000000000dc0f       0x4b /home/tom/intelFPGA_lite/20.1/nios2eds/bin/gnu/H-x86_64-pc-linux-gnu/bin/../lib/gcc/nios2-elf/9.2.1/../../../../../H-x86_64-pc-linux-gnu/nios2-elf/lib/libc.a(lib_a-exit.o)
                                        0x5e8 (size before relaxing)
 .debug_str     0x000000000000dc5a       0x48 /home/tom/intelFPGA_lite/20.1/nios2eds/bin/gnu/H-x86_64-pc-linux-gnu/bin/../lib/gcc/nios2-elf/9.2.1/../../../../../H-x86_64-pc-linux-gnu/nios2-elf/lib/libc.a(lib_a-malloc.o)
                                        0x5cd (size before relaxing)
 .debug_str     0x000000000000dca2       0x43 /home/tom/intelFPGA_lite/20.1/nios2eds/bin/gnu/H-x86_64-pc-linux-gnu/bin/../lib/gcc/nios2-elf/9.2.1/../../../../../H-x86_64-pc-linux-gnu/nios2-elf/lib/libc.a(lib_a-strchr.o)
                                        0x5ab (size before relaxing)
 .debug_str     0x000000000000dce5       0x45 /home/tom/intelFPGA_lite/20.1/nios2eds/bin/gnu/H-x86_64-pc-linux-gnu/bin/../lib/gcc/nios2-elf/9.2.1/../../../../../H-x86_64-pc-linux-gnu/nios2-elf/lib/libc.a(lib_a-strncmp.o)
                                        0x5a2 (size before relaxing)
 .debug_str     0x000000000000dd2a       0x45 /home/tom/intelFPGA_lite/20.1/nios2eds/bin/gnu/H-x86_64-pc-linux-gnu/bin/../lib/gcc/nios2-elf/9.2.1/../../../../../H-x86_64-pc-linux-gnu/nios2-elf/lib/libc.a(lib_a-strncpy.o)
                                        0x5ca (size before relaxing)
 .debug_str     0x000000000000dd6f       0x46 /home/tom/intelFPGA_lite/20.1/nios2eds/bin/gnu/H-x86_64-pc-linux-gnu/bin/../lib/gcc/nios2-elf/9.2.1/../../../../../H-x86_64-pc-linux-gnu/nios2-elf/lib/libc.a(lib_a-strtol.o)
                                        0x957 (size before relaxing)
 .debug_str     0x000000000000ddb5       0x5b /home/tom/intelFPGA_lite/20.1/nios2eds/bin/gnu/H-x86_64-pc-linux-gnu/bin/../lib/gcc/nios2-elf/9.2.1/../../../../../H-x86_64-pc-linux-gnu/nios2-elf/lib/libc.a(lib_a-vprintf.o)
                                        0x71a (size before relaxing)
 .debug_str     0x000000000000de10       0x52 /home/tom/intelFPGA_lite/20.1/nios2eds/bin/gnu/H-x86_64-pc-linux-gnu/bin/../lib/gcc/nios2-elf/9.2.1/../../../../../H-x86_64-pc-linux-gnu/nios2-elf/lib/libc.a(lib_a-vsprintf.o)
                                        0x728 (size before relaxing)
 .debug_str     0x000000000000de62       0x57 /home/tom/intelFPGA_lite/20.1/nios2eds/bin/gnu/H-x86_64-pc-linux-gnu/bin/../lib/gcc/nios2-elf/9.2.1/../../../../../H-x86_64-pc-linux-gnu/nios2-elf/lib/libc.a(lib_a-__atexit.o)
                                        0x605 (size before relaxing)
 .debug_str     0x000000000000deb9       0x49 /home/tom/intelFPGA_lite/20.1/nios2eds/bin/gnu/H-x86_64-pc-linux-gnu/bin/../lib/gcc/nios2-elf/9.2.1/../../../../../H-x86_64-pc-linux-gnu/nios2-elf/lib/libc.a(lib_a-__call_atexit.o)
                                        0x5e5 (size before relaxing)
 .debug_str     0x000000000000df02       0x40 /home/tom/intelFPGA_lite/20.1/nios2eds/bin/gnu/H-x86_64-pc-linux-gnu/bin/../lib/gcc/nios2-elf/9.2.1/../../../../../H-x86_64-pc-linux-gnu/nios2-elf/lib/libc.a(lib_a-vfprintfr_1.o)
                                        0x726 (size before relaxing)

.debug_loc      0x0000000000000000    0x25f2e
 *(.debug_loc)
 .debug_loc     0x0000000000000000      0x163 /home/tom/intelFPGA_lite/20.1/nios2eds/bin/gnu/H-x86_64-pc-linux-gnu/bin/../lib/gcc/nios2-elf/9.2.1/../../../../../H-x86_64-pc-linux-gnu/nios2-elf/lib/libc.a(lib_a-fprintf.o)
 .debug_loc     0x0000000000000163      0x2e4 /home/tom/intelFPGA_lite/20.1/nios2eds/bin/gnu/H-x86_64-pc-linux-gnu/bin/../lib/gcc/nios2-elf/9.2.1/../../../../../H-x86_64-pc-linux-gnu/nios2-elf/lib/libc.a(lib_a-fwrite.o)
 .debug_loc     0x0000000000000447       0x3a /home/tom/intelFPGA_lite/20.1/nios2eds/bin/gnu/H-x86_64-pc-linux-gnu/bin/../lib/gcc/nios2-elf/9.2.1/../../../../../H-x86_64-pc-linux-gnu/nios2-elf/lib/libc.a(lib_a-getchar.o)
 .debug_loc     0x0000000000000481      0x130 /home/tom/intelFPGA_lite/20.1/nios2eds/bin/gnu/H-x86_64-pc-linux-gnu/bin/../lib/gcc/nios2-elf/9.2.1/../../../../../H-x86_64-pc-linux-gnu/nios2-elf/lib/libc.a(lib_a-memcmp.o)
 .debug_loc     0x00000000000005b1      0x347 /home/tom/intelFPGA_lite/20.1/nios2eds/bin/gnu/H-x86_64-pc-linux-gnu/bin/../lib/gcc/nios2-elf/9.2.1/../../../../../H-x86_64-pc-linux-gnu/nios2-elf/lib/libc.a(lib_a-memcpy.o)
 .debug_loc     0x00000000000008f8      0x1b5 /home/tom/intelFPGA_lite/20.1/nios2eds/bin/gnu/H-x86_64-pc-linux-gnu/bin/../lib/gcc/nios2-elf/9.2.1/../../../../../H-x86_64-pc-linux-gnu/nios2-elf/lib/libc.a(lib_a-memset.o)
 .debug_loc     0x0000000000000aad      0x2ce /home/tom/intelFPGA_lite/20.1/nios2eds/bin/gnu/H-x86_64-pc-linux-gnu/bin/../lib/gcc/nios2-elf/9.2.1/../../../../../H-x86_64-pc-linux-gnu/nios2-elf/lib/libc.a(lib_a-perror.o)
 .debug_loc     0x0000000000000d7b      0x119 /home/tom/intelFPGA_lite/20.1/nios2eds/bin/gnu/H-x86_64-pc-linux-gnu/bin/../lib/gcc/nios2-elf/9.2.1/../../../../../H-x86_64-pc-linux-gnu/nios2-elf/lib/libc.a(lib_a-printf.o)
 .debug_loc     0x0000000000000e94       0x91 /home/tom/intelFPGA_lite/20.1/nios2eds/bin/gnu/H-x86_64-pc-linux-gnu/bin/../lib/gcc/nios2-elf/9.2.1/../../../../../H-x86_64-pc-linux-gnu/nios2-elf/lib/libc.a(lib_a-putchar.o)
 .debug_loc     0x0000000000000f25      0x143 /home/tom/intelFPGA_lite/20.1/nios2eds/bin/gnu/H-x86_64-pc-linux-gnu/bin/../lib/gcc/nios2-elf/9.2.1/../../../../../H-x86_64-pc-linux-gnu/nios2-elf/lib/libc.a(lib_a-puts.o)
 .debug_loc     0x0000000000001068      0x152 /home/tom/intelFPGA_lite/20.1/nios2eds/bin/gnu/H-x86_64-pc-linux-gnu/bin/../lib/gcc/nios2-elf/9.2.1/../../../../../H-x86_64-pc-linux-gnu/nios2-elf/lib/libc.a(lib_a-sprintf.o)
 .debug_loc     0x00000000000011ba      0x125 /home/tom/intelFPGA_lite/20.1/nios2eds/bin/gnu/H-x86_64-pc-linux-gnu/bin/../lib/gcc/nios2-elf/9.2.1/../../../../../H-x86_64-pc-linux-gnu/nios2-elf/lib/libc.a(lib_a-strcpy.o)
 .debug_loc     0x00000000000012df     0x107c /home/tom/intelFPGA_lite/20.1/nios2eds/bin/gnu/H-x86_64-pc-linux-gnu/bin/../lib/gcc/nios2-elf/9.2.1/../../../../../H-x86_64-pc-linux-gnu/nios2-elf/lib/libc.a(lib_a-strerror.o)
 .debug_loc     0x000000000000235b       0x73 /home/tom/intelFPGA_lite/20.1/nios2eds/bin/gnu/H-x86_64-pc-linux-gnu/bin/../lib/gcc/nios2-elf/9.2.1/../../../../../H-x86_64-pc-linux-gnu/nios2-elf/lib/libc.a(lib_a-strlen.o)
 .debug_loc     0x00000000000023ce       0x4a /home/tom/intelFPGA_lite/20.1/nios2eds/bin/gnu/H-x86_64-pc-linux-gnu/bin/../lib/gcc/nios2-elf/9.2.1/../../../../../H-x86_64-pc-linux-gnu/nios2-elf/lib/libc.a(lib_a-strtok.o)
 .debug_loc     0x0000000000002418      0x236 /home/tom/intelFPGA_lite/20.1/nios2eds/bin/gnu/H-x86_64-pc-linux-gnu/bin/../lib/gcc/nios2-elf/9.2.1/../../../../../H-x86_64-pc-linux-gnu/nios2-elf/lib/libc.a(lib_a-strtok_r.o)
 .debug_loc     0x000000000000264e      0x67e /home/tom/intelFPGA_lite/20.1/nios2eds/bin/gnu/H-x86_64-pc-linux-gnu/bin/../lib/gcc/nios2-elf/9.2.1/../../../../../H-x86_64-pc-linux-gnu/nios2-elf/lib/libc.a(lib_a-strtoul.o)
 .debug_loc     0x0000000000002ccc     0x3920 /home/tom/intelFPGA_lite/20.1/nios2eds/bin/gnu/H-x86_64-pc-linux-gnu/bin/../lib/gcc/nios2-elf/9.2.1/../../../../../H-x86_64-pc-linux-gnu/nios2-elf/lib/libc.a(lib_a-svfprintf.o)
 .debug_loc     0x00000000000065ec     0x3b1e /home/tom/intelFPGA_lite/20.1/nios2eds/bin/gnu/H-x86_64-pc-linux-gnu/bin/../lib/gcc/nios2-elf/9.2.1/../../../../../H-x86_64-pc-linux-gnu/nios2-elf/lib/libc.a(lib_a-vfprintf.o)
 .debug_loc     0x000000000000a10a       0xed /home/tom/intelFPGA_lite/20.1/nios2eds/bin/gnu/H-x86_64-pc-linux-gnu/bin/../lib/gcc/nios2-elf/9.2.1/../../../../../H-x86_64-pc-linux-gnu/nios2-elf/lib/libc.a(lib_a-writer.o)
 .debug_loc     0x000000000000a1f7       0xd4 /home/tom/intelFPGA_lite/20.1/nios2eds/bin/gnu/H-x86_64-pc-linux-gnu/bin/../lib/gcc/nios2-elf/9.2.1/../../../../../H-x86_64-pc-linux-gnu/nios2-elf/lib/libc.a(lib_a-wsetup.o)
 .debug_loc     0x000000000000a2cb     0x32b1 /home/tom/intelFPGA_lite/20.1/nios2eds/bin/gnu/H-x86_64-pc-linux-gnu/bin/../lib/gcc/nios2-elf/9.2.1/../../../../../H-x86_64-pc-linux-gnu/nios2-elf/lib/libc.a(lib_a-dtoa.o)
 .debug_loc     0x000000000000d57c      0x38e /home/tom/intelFPGA_lite/20.1/nios2eds/bin/gnu/H-x86_64-pc-linux-gnu/bin/../lib/gcc/nios2-elf/9.2.1/../../../../../H-x86_64-pc-linux-gnu/nios2-elf/lib/libc.a(lib_a-fflush.o)
 .debug_loc     0x000000000000d90a       0x85 /home/tom/intelFPGA_lite/20.1/nios2eds/bin/gnu/H-x86_64-pc-linux-gnu/bin/../lib/gcc/nios2-elf/9.2.1/../../../../../H-x86_64-pc-linux-gnu/nios2-elf/lib/libc.a(lib_a-fileno.o)
 .debug_loc     0x000000000000d98f      0x307 /home/tom/intelFPGA_lite/20.1/nios2eds/bin/gnu/H-x86_64-pc-linux-gnu/bin/../lib/gcc/nios2-elf/9.2.1/../../../../../H-x86_64-pc-linux-gnu/nios2-elf/lib/libc.a(lib_a-findfp.o)
 .debug_loc     0x000000000000dc96      0x614 /home/tom/intelFPGA_lite/20.1/nios2eds/bin/gnu/H-x86_64-pc-linux-gnu/bin/../lib/gcc/nios2-elf/9.2.1/../../../../../H-x86_64-pc-linux-gnu/nios2-elf/lib/libc.a(lib_a-freer.o)
 .debug_loc     0x000000000000e2aa      0x6ca /home/tom/intelFPGA_lite/20.1/nios2eds/bin/gnu/H-x86_64-pc-linux-gnu/bin/../lib/gcc/nios2-elf/9.2.1/../../../../../H-x86_64-pc-linux-gnu/nios2-elf/lib/libc.a(lib_a-fvwrite.o)
 .debug_loc     0x000000000000e974      0x1eb /home/tom/intelFPGA_lite/20.1/nios2eds/bin/gnu/H-x86_64-pc-linux-gnu/bin/../lib/gcc/nios2-elf/9.2.1/../../../../../H-x86_64-pc-linux-gnu/nios2-elf/lib/libc.a(lib_a-fwalk.o)
 .debug_loc     0x000000000000eb5f      0x21b /home/tom/intelFPGA_lite/20.1/nios2eds/bin/gnu/H-x86_64-pc-linux-gnu/bin/../lib/gcc/nios2-elf/9.2.1/../../../../../H-x86_64-pc-linux-gnu/nios2-elf/lib/libc.a(lib_a-getc.o)
 .debug_loc     0x000000000000ed7a       0x25 /home/tom/intelFPGA_lite/20.1/nios2eds/bin/gnu/H-x86_64-pc-linux-gnu/bin/../lib/gcc/nios2-elf/9.2.1/../../../../../H-x86_64-pc-linux-gnu/nios2-elf/lib/libc.a(lib_a-localeconv.o)
 .debug_loc     0x000000000000ed9f      0x23e /home/tom/intelFPGA_lite/20.1/nios2eds/bin/gnu/H-x86_64-pc-linux-gnu/bin/../lib/gcc/nios2-elf/9.2.1/../../../../../H-x86_64-pc-linux-gnu/nios2-elf/lib/libc.a(lib_a-makebuf.o)
 .debug_loc     0x000000000000efdd      0xd34 /home/tom/intelFPGA_lite/20.1/nios2eds/bin/gnu/H-x86_64-pc-linux-gnu/bin/../lib/gcc/nios2-elf/9.2.1/../../../../../H-x86_64-pc-linux-gnu/nios2-elf/lib/libc.a(lib_a-mallocr.o)
 .debug_loc     0x000000000000fd11      0x240 /home/tom/intelFPGA_lite/20.1/nios2eds/bin/gnu/H-x86_64-pc-linux-gnu/bin/../lib/gcc/nios2-elf/9.2.1/../../../../../H-x86_64-pc-linux-gnu/nios2-elf/lib/libc.a(lib_a-memchr.o)
 .debug_loc     0x000000000000ff51      0x3ff /home/tom/intelFPGA_lite/20.1/nios2eds/bin/gnu/H-x86_64-pc-linux-gnu/bin/../lib/gcc/nios2-elf/9.2.1/../../../../../H-x86_64-pc-linux-gnu/nios2-elf/lib/libc.a(lib_a-memmove.o)
 .debug_loc     0x0000000000010350     0x21ff /home/tom/intelFPGA_lite/20.1/nios2eds/bin/gnu/H-x86_64-pc-linux-gnu/bin/../lib/gcc/nios2-elf/9.2.1/../../../../../H-x86_64-pc-linux-gnu/nios2-elf/lib/libc.a(lib_a-mprec.o)
 .debug_loc     0x000000000001254f      0x307 /home/tom/intelFPGA_lite/20.1/nios2eds/bin/gnu/H-x86_64-pc-linux-gnu/bin/../lib/gcc/nios2-elf/9.2.1/../../../../../H-x86_64-pc-linux-gnu/nios2-elf/lib/libc.a(lib_a-putc.o)
 .debug_loc     0x0000000000012856     0x11ff /home/tom/intelFPGA_lite/20.1/nios2eds/bin/gnu/H-x86_64-pc-linux-gnu/bin/../lib/gcc/nios2-elf/9.2.1/../../../../../H-x86_64-pc-linux-gnu/nios2-elf/lib/libc.a(lib_a-reallocr.o)
 .debug_loc     0x0000000000013a55      0x116 /home/tom/intelFPGA_lite/20.1/nios2eds/bin/gnu/H-x86_64-pc-linux-gnu/bin/../lib/gcc/nios2-elf/9.2.1/../../../../../H-x86_64-pc-linux-gnu/nios2-elf/lib/libc.a(lib_a-rget.o)
 .debug_loc     0x0000000000013b6b       0x89 /home/tom/intelFPGA_lite/20.1/nios2eds/bin/gnu/H-x86_64-pc-linux-gnu/bin/../lib/gcc/nios2-elf/9.2.1/../../../../../H-x86_64-pc-linux-gnu/nios2-elf/lib/libc.a(lib_a-sbrkr.o)
 .debug_loc     0x0000000000013bf4      0x43c /home/tom/intelFPGA_lite/20.1/nios2eds/bin/gnu/H-x86_64-pc-linux-gnu/bin/../lib/gcc/nios2-elf/9.2.1/../../../../../H-x86_64-pc-linux-gnu/nios2-elf/lib/libc.a(lib_a-stdio.o)
 .debug_loc     0x0000000000014030     0x171d /home/tom/intelFPGA_lite/20.1/nios2eds/bin/gnu/H-x86_64-pc-linux-gnu/bin/../lib/gcc/nios2-elf/9.2.1/../../../../../H-x86_64-pc-linux-gnu/nios2-elf/lib/libc.a(lib_a-svfiprintf.o)
 .debug_loc     0x000000000001574d     0x29c2 /home/tom/intelFPGA_lite/20.1/nios2eds/bin/gnu/H-x86_64-pc-linux-gnu/bin/../lib/gcc/nios2-elf/9.2.1/../../../../../H-x86_64-pc-linux-gnu/nios2-elf/lib/libc.a(lib_a-vfiprintf.o)
 .debug_loc     0x000000000001810f      0x201 /home/tom/intelFPGA_lite/20.1/nios2eds/bin/gnu/H-x86_64-pc-linux-gnu/bin/../lib/gcc/nios2-elf/9.2.1/../../../../../H-x86_64-pc-linux-gnu/nios2-elf/lib/libc.a(lib_a-wbuf.o)
 .debug_loc     0x0000000000018310       0x89 /home/tom/intelFPGA_lite/20.1/nios2eds/bin/gnu/H-x86_64-pc-linux-gnu/bin/../lib/gcc/nios2-elf/9.2.1/../../../../../H-x86_64-pc-linux-gnu/nios2-elf/lib/libc.a(closer.o)
 .debug_loc     0x0000000000018399      0x1a2 /home/tom/intelFPGA_lite/20.1/nios2eds/bin/gnu/H-x86_64-pc-linux-gnu/bin/../lib/gcc/nios2-elf/9.2.1/../../../../../H-x86_64-pc-linux-gnu/nios2-elf/lib/libc.a(lib_a-assert.o)
 .debug_loc     0x000000000001853b      0x317 /home/tom/intelFPGA_lite/20.1/nios2eds/bin/gnu/H-x86_64-pc-linux-gnu/bin/../lib/gcc/nios2-elf/9.2.1/../../../../../H-x86_64-pc-linux-gnu/nios2-elf/lib/libc.a(lib_a-callocr.o)
 .debug_loc     0x0000000000018852      0x179 /home/tom/intelFPGA_lite/20.1/nios2eds/bin/gnu/H-x86_64-pc-linux-gnu/bin/../lib/gcc/nios2-elf/9.2.1/../../../../../H-x86_64-pc-linux-gnu/nios2-elf/lib/libc.a(lib_a-fclose.o)
 .debug_loc     0x00000000000189cb      0x163 /home/tom/intelFPGA_lite/20.1/nios2eds/bin/gnu/H-x86_64-pc-linux-gnu/bin/../lib/gcc/nios2-elf/9.2.1/../../../../../H-x86_64-pc-linux-gnu/nios2-elf/lib/libc.a(lib_a-fiprintf.o)
 .debug_loc     0x0000000000018b2e      0x2eb /home/tom/intelFPGA_lite/20.1/nios2eds/bin/gnu/H-x86_64-pc-linux-gnu/bin/../lib/gcc/nios2-elf/9.2.1/../../../../../H-x86_64-pc-linux-gnu/nios2-elf/lib/libc.a(lib_a-fputwc.o)
 .debug_loc     0x0000000000018e19       0xbb /home/tom/intelFPGA_lite/20.1/nios2eds/bin/gnu/H-x86_64-pc-linux-gnu/bin/../lib/gcc/nios2-elf/9.2.1/../../../../../H-x86_64-pc-linux-gnu/nios2-elf/lib/libc.a(lib_a-fstatr.o)
 .debug_loc     0x0000000000018ed4       0x89 /home/tom/intelFPGA_lite/20.1/nios2eds/bin/gnu/H-x86_64-pc-linux-gnu/bin/../lib/gcc/nios2-elf/9.2.1/../../../../../H-x86_64-pc-linux-gnu/nios2-elf/lib/libc.a(lib_a-isattyr.o)
 .debug_loc     0x0000000000018f5d      0x1b3 /home/tom/intelFPGA_lite/20.1/nios2eds/bin/gnu/H-x86_64-pc-linux-gnu/bin/../lib/gcc/nios2-elf/9.2.1/../../../../../H-x86_64-pc-linux-gnu/nios2-elf/lib/libc.a(lib_a-locale.o)
 .debug_loc     0x0000000000019110       0xed /home/tom/intelFPGA_lite/20.1/nios2eds/bin/gnu/H-x86_64-pc-linux-gnu/bin/../lib/gcc/nios2-elf/9.2.1/../../../../../H-x86_64-pc-linux-gnu/nios2-elf/lib/libc.a(lib_a-lseekr.o)
 .debug_loc     0x00000000000191fd      0x119 /home/tom/intelFPGA_lite/20.1/nios2eds/bin/gnu/H-x86_64-pc-linux-gnu/bin/../lib/gcc/nios2-elf/9.2.1/../../../../../H-x86_64-pc-linux-gnu/nios2-elf/lib/libc.a(lib_a-mbtowc_r.o)
 .debug_loc     0x0000000000019316       0xed /home/tom/intelFPGA_lite/20.1/nios2eds/bin/gnu/H-x86_64-pc-linux-gnu/bin/../lib/gcc/nios2-elf/9.2.1/../../../../../H-x86_64-pc-linux-gnu/nios2-elf/lib/libc.a(lib_a-readr.o)
 .debug_loc     0x0000000000019403      0x145 /home/tom/intelFPGA_lite/20.1/nios2eds/bin/gnu/H-x86_64-pc-linux-gnu/bin/../lib/gcc/nios2-elf/9.2.1/../../../../../H-x86_64-pc-linux-gnu/nios2-elf/lib/libc.a(lib_a-refill.o)
 .debug_loc     0x0000000000019548       0x8e /home/tom/intelFPGA_lite/20.1/nios2eds/bin/gnu/H-x86_64-pc-linux-gnu/bin/../lib/gcc/nios2-elf/9.2.1/../../../../../H-x86_64-pc-linux-gnu/nios2-elf/lib/libc.a(lib_a-strcmp.o)
 .debug_loc     0x00000000000195d6       0x94 /home/tom/intelFPGA_lite/20.1/nios2eds/bin/gnu/H-x86_64-pc-linux-gnu/bin/../lib/gcc/nios2-elf/9.2.1/../../../../../H-x86_64-pc-linux-gnu/nios2-elf/lib/libc.a(lib_a-vfiprintfr_1.o)
 .debug_loc     0x000000000001966a      0x2a4 /home/tom/intelFPGA_lite/20.1/nios2eds/bin/gnu/H-x86_64-pc-linux-gnu/bin/../lib/gcc/nios2-elf/9.2.1/../../../../../H-x86_64-pc-linux-gnu/nios2-elf/lib/libc.a(lib_a-wcrtomb.o)
 .debug_loc     0x000000000001990e       0xa9 /home/tom/intelFPGA_lite/20.1/nios2eds/bin/gnu/H-x86_64-pc-linux-gnu/bin/../lib/gcc/nios2-elf/9.2.1/../../../../../H-x86_64-pc-linux-gnu/nios2-elf/lib/libc.a(lib_a-wctomb_r.o)
 .debug_loc     0x00000000000199b7      0x53d /home/tom/intelFPGA_lite/20.1/nios2eds/bin/gnu/H-x86_64-pc-linux-gnu/bin/../lib/gcc/nios2-elf/9.2.1/../../../../../H-x86_64-pc-linux-gnu/nios2-elf/lib/libc.a(lib_a-signal.o)
 .debug_loc     0x0000000000019ef4       0xe0 /home/tom/intelFPGA_lite/20.1/nios2eds/bin/gnu/H-x86_64-pc-linux-gnu/bin/../lib/gcc/nios2-elf/9.2.1/../../../../../H-x86_64-pc-linux-gnu/nios2-elf/lib/libc.a(lib_a-signalr.o)
 .debug_loc     0x0000000000019fd4     0x14a5 /home/tom/intelFPGA_lite/20.1/nios2eds/bin/gnu/H-x86_64-pc-linux-gnu/bin/../lib/gcc/nios2-elf/9.2.1/libgcc.a(_udivdi3.o)
 .debug_loc     0x000000000001b479     0x1185 /home/tom/intelFPGA_lite/20.1/nios2eds/bin/gnu/H-x86_64-pc-linux-gnu/bin/../lib/gcc/nios2-elf/9.2.1/libgcc.a(_umoddi3.o)
 .debug_loc     0x000000000001c5fe      0x5d0 /home/tom/intelFPGA_lite/20.1/nios2eds/bin/gnu/H-x86_64-pc-linux-gnu/bin/../lib/gcc/nios2-elf/9.2.1/libgcc.a(lib2-divmod.o)
 .debug_loc     0x000000000001cbce     0x1f6e /home/tom/intelFPGA_lite/20.1/nios2eds/bin/gnu/H-x86_64-pc-linux-gnu/bin/../lib/gcc/nios2-elf/9.2.1/libgcc.a(adddf3.o)
 .debug_loc     0x000000000001eb3c     0x235c /home/tom/intelFPGA_lite/20.1/nios2eds/bin/gnu/H-x86_64-pc-linux-gnu/bin/../lib/gcc/nios2-elf/9.2.1/libgcc.a(divdf3.o)
 .debug_loc     0x0000000000020e98      0x113 /home/tom/intelFPGA_lite/20.1/nios2eds/bin/gnu/H-x86_64-pc-linux-gnu/bin/../lib/gcc/nios2-elf/9.2.1/libgcc.a(eqdf2.o)
 .debug_loc     0x0000000000020fab      0x174 /home/tom/intelFPGA_lite/20.1/nios2eds/bin/gnu/H-x86_64-pc-linux-gnu/bin/../lib/gcc/nios2-elf/9.2.1/libgcc.a(gedf2.o)
 .debug_loc     0x000000000002111f      0x166 /home/tom/intelFPGA_lite/20.1/nios2eds/bin/gnu/H-x86_64-pc-linux-gnu/bin/../lib/gcc/nios2-elf/9.2.1/libgcc.a(ledf2.o)
 .debug_loc     0x0000000000021285     0x1275 /home/tom/intelFPGA_lite/20.1/nios2eds/bin/gnu/H-x86_64-pc-linux-gnu/bin/../lib/gcc/nios2-elf/9.2.1/libgcc.a(muldf3.o)
 .debug_loc     0x00000000000224fa     0x203d /home/tom/intelFPGA_lite/20.1/nios2eds/bin/gnu/H-x86_64-pc-linux-gnu/bin/../lib/gcc/nios2-elf/9.2.1/libgcc.a(subdf3.o)
 .debug_loc     0x0000000000024537       0x9e /home/tom/intelFPGA_lite/20.1/nios2eds/bin/gnu/H-x86_64-pc-linux-gnu/bin/../lib/gcc/nios2-elf/9.2.1/libgcc.a(unorddf2.o)
 .debug_loc     0x00000000000245d5      0x1bf /home/tom/intelFPGA_lite/20.1/nios2eds/bin/gnu/H-x86_64-pc-linux-gnu/bin/../lib/gcc/nios2-elf/9.2.1/libgcc.a(fixdfsi.o)
 .debug_loc     0x0000000000024794      0x252 /home/tom/intelFPGA_lite/20.1/nios2eds/bin/gnu/H-x86_64-pc-linux-gnu/bin/../lib/gcc/nios2-elf/9.2.1/libgcc.a(floatsidf.o)
 .debug_loc     0x00000000000249e6      0x281 /home/tom/intelFPGA_lite/20.1/nios2eds/bin/gnu/H-x86_64-pc-linux-gnu/bin/../lib/gcc/nios2-elf/9.2.1/libgcc.a(floatunsidf.o)
 .debug_loc     0x0000000000024c67       0xbe /home/tom/intelFPGA_lite/20.1/nios2eds/bin/gnu/H-x86_64-pc-linux-gnu/bin/../lib/gcc/nios2-elf/9.2.1/libgcc.a(_clzsi2.o)
 .debug_loc     0x0000000000024d25       0x32 /home/tom/intelFPGA_lite/20.1/nios2eds/bin/gnu/H-x86_64-pc-linux-gnu/bin/../lib/gcc/nios2-elf/9.2.1/../../../../../H-x86_64-pc-linux-gnu/nios2-elf/lib/libc.a(lib_a-atexit.o)
 .debug_loc     0x0000000000024d57       0x6f /home/tom/intelFPGA_lite/20.1/nios2eds/bin/gnu/H-x86_64-pc-linux-gnu/bin/../lib/gcc/nios2-elf/9.2.1/../../../../../H-x86_64-pc-linux-gnu/nios2-elf/lib/libc.a(lib_a-atoi.o)
 .debug_loc     0x0000000000024dc6       0x22 /home/tom/intelFPGA_lite/20.1/nios2eds/bin/gnu/H-x86_64-pc-linux-gnu/bin/../lib/gcc/nios2-elf/9.2.1/../../../../../H-x86_64-pc-linux-gnu/nios2-elf/lib/libc.a(lib_a-exit.o)
 .debug_loc     0x0000000000024de8       0x64 /home/tom/intelFPGA_lite/20.1/nios2eds/bin/gnu/H-x86_64-pc-linux-gnu/bin/../lib/gcc/nios2-elf/9.2.1/../../../../../H-x86_64-pc-linux-gnu/nios2-elf/lib/libc.a(lib_a-malloc.o)
 .debug_loc     0x0000000000024e4c      0x1c6 /home/tom/intelFPGA_lite/20.1/nios2eds/bin/gnu/H-x86_64-pc-linux-gnu/bin/../lib/gcc/nios2-elf/9.2.1/../../../../../H-x86_64-pc-linux-gnu/nios2-elf/lib/libc.a(lib_a-strchr.o)
 .debug_loc     0x0000000000025012      0x175 /home/tom/intelFPGA_lite/20.1/nios2eds/bin/gnu/H-x86_64-pc-linux-gnu/bin/../lib/gcc/nios2-elf/9.2.1/../../../../../H-x86_64-pc-linux-gnu/nios2-elf/lib/libc.a(lib_a-strncmp.o)
 .debug_loc     0x0000000000025187      0x1cf /home/tom/intelFPGA_lite/20.1/nios2eds/bin/gnu/H-x86_64-pc-linux-gnu/bin/../lib/gcc/nios2-elf/9.2.1/../../../../../H-x86_64-pc-linux-gnu/nios2-elf/lib/libc.a(lib_a-strncpy.o)
 .debug_loc     0x0000000000025356      0x635 /home/tom/intelFPGA_lite/20.1/nios2eds/bin/gnu/H-x86_64-pc-linux-gnu/bin/../lib/gcc/nios2-elf/9.2.1/../../../../../H-x86_64-pc-linux-gnu/nios2-elf/lib/libc.a(lib_a-strtol.o)
 .debug_loc     0x000000000002598b      0x102 /home/tom/intelFPGA_lite/20.1/nios2eds/bin/gnu/H-x86_64-pc-linux-gnu/bin/../lib/gcc/nios2-elf/9.2.1/../../../../../H-x86_64-pc-linux-gnu/nios2-elf/lib/libc.a(lib_a-vprintf.o)
 .debug_loc     0x0000000000025a8d      0x14c /home/tom/intelFPGA_lite/20.1/nios2eds/bin/gnu/H-x86_64-pc-linux-gnu/bin/../lib/gcc/nios2-elf/9.2.1/../../../../../H-x86_64-pc-linux-gnu/nios2-elf/lib/libc.a(lib_a-vsprintf.o)
 .debug_loc     0x0000000000025bd9       0xf7 /home/tom/intelFPGA_lite/20.1/nios2eds/bin/gnu/H-x86_64-pc-linux-gnu/bin/../lib/gcc/nios2-elf/9.2.1/../../../../../H-x86_64-pc-linux-gnu/nios2-elf/lib/libc.a(lib_a-__atexit.o)
 .debug_loc     0x0000000000025cd0      0x1ca /home/tom/intelFPGA_lite/20.1/nios2eds/bin/gnu/H-x86_64-pc-linux-gnu/bin/../lib/gcc/nios2-elf/9.2.1/../../../../../H-x86_64-pc-linux-gnu/nios2-elf/lib/libc.a(lib_a-__call_atexit.o)
 .debug_loc     0x0000000000025e9a       0x94 /home/tom/intelFPGA_lite/20.1/nios2eds/bin/gnu/H-x86_64-pc-linux-gnu/bin/../lib/gcc/nios2-elf/9.2.1/../../../../../H-x86_64-pc-linux-gnu/nios2-elf/lib/libc.a(lib_a-vfprintfr_1.o)

.debug_macinfo
 *(.debug_macinfo)

.debug_weaknames
 *(.debug_weaknames)

.debug_funcnames
 *(.debug_funcnames)

.debug_typenames
 *(.debug_typenames)

.debug_varnames
 *(.debug_varnames)

.debug_alt_sim_info
                0x0000000000000000       0x40
 *(.debug_alt_sim_info)
 .debug_alt_sim_info
                0x0000000000000000       0x10 ../MOD_socket_server_bsp//obj/HAL/src/crt0.o
 .debug_alt_sim_info
                0x0000000000000010       0x30 ../MOD_socket_server_bsp//libucosii_bsp.a(alt_busy_sleep.o)
                0x0000000010000000                __alt_data_end = 0x10000000
                0x0000000010000000                PROVIDE (__alt_stack_pointer = __alt_data_end)
                [!provide]                        PROVIDE (__alt_stack_limit = __alt_stack_base)
                0x0000000008061d90                PROVIDE (__alt_heap_start = end)
                0x0000000010000000                PROVIDE (__alt_heap_limit = 0x10000000)
OUTPUT(MOD_socket_server.elf elf32-littlenios2)

.debug_ranges   0x0000000000000000     0x2458
 .debug_ranges  0x0000000000000000       0x18 /home/tom/intelFPGA_lite/20.1/nios2eds/bin/gnu/H-x86_64-pc-linux-gnu/bin/../lib/gcc/nios2-elf/9.2.1/../../../../../H-x86_64-pc-linux-gnu/nios2-elf/lib/libc.a(lib_a-fprintf.o)
 .debug_ranges  0x0000000000000018       0x38 /home/tom/intelFPGA_lite/20.1/nios2eds/bin/gnu/H-x86_64-pc-linux-gnu/bin/../lib/gcc/nios2-elf/9.2.1/../../../../../H-x86_64-pc-linux-gnu/nios2-elf/lib/libc.a(lib_a-fwrite.o)
 .debug_ranges  0x0000000000000050       0x18 /home/tom/intelFPGA_lite/20.1/nios2eds/bin/gnu/H-x86_64-pc-linux-gnu/bin/../lib/gcc/nios2-elf/9.2.1/../../../../../H-x86_64-pc-linux-gnu/nios2-elf/lib/libc.a(lib_a-getchar.o)
 .debug_ranges  0x0000000000000068       0x10 /home/tom/intelFPGA_lite/20.1/nios2eds/bin/gnu/H-x86_64-pc-linux-gnu/bin/../lib/gcc/nios2-elf/9.2.1/../../../../../H-x86_64-pc-linux-gnu/nios2-elf/lib/libc.a(lib_a-memcmp.o)
 .debug_ranges  0x0000000000000078       0x10 /home/tom/intelFPGA_lite/20.1/nios2eds/bin/gnu/H-x86_64-pc-linux-gnu/bin/../lib/gcc/nios2-elf/9.2.1/../../../../../H-x86_64-pc-linux-gnu/nios2-elf/lib/libc.a(lib_a-memcpy.o)
 .debug_ranges  0x0000000000000088       0x10 /home/tom/intelFPGA_lite/20.1/nios2eds/bin/gnu/H-x86_64-pc-linux-gnu/bin/../lib/gcc/nios2-elf/9.2.1/../../../../../H-x86_64-pc-linux-gnu/nios2-elf/lib/libc.a(lib_a-memset.o)
 .debug_ranges  0x0000000000000098       0x68 /home/tom/intelFPGA_lite/20.1/nios2eds/bin/gnu/H-x86_64-pc-linux-gnu/bin/../lib/gcc/nios2-elf/9.2.1/../../../../../H-x86_64-pc-linux-gnu/nios2-elf/lib/libc.a(lib_a-perror.o)
 .debug_ranges  0x0000000000000100       0x18 /home/tom/intelFPGA_lite/20.1/nios2eds/bin/gnu/H-x86_64-pc-linux-gnu/bin/../lib/gcc/nios2-elf/9.2.1/../../../../../H-x86_64-pc-linux-gnu/nios2-elf/lib/libc.a(lib_a-printf.o)
 .debug_ranges  0x0000000000000118       0x18 /home/tom/intelFPGA_lite/20.1/nios2eds/bin/gnu/H-x86_64-pc-linux-gnu/bin/../lib/gcc/nios2-elf/9.2.1/../../../../../H-x86_64-pc-linux-gnu/nios2-elf/lib/libc.a(lib_a-putchar.o)
 .debug_ranges  0x0000000000000130       0x30 /home/tom/intelFPGA_lite/20.1/nios2eds/bin/gnu/H-x86_64-pc-linux-gnu/bin/../lib/gcc/nios2-elf/9.2.1/../../../../../H-x86_64-pc-linux-gnu/nios2-elf/lib/libc.a(lib_a-puts.o)
 .debug_ranges  0x0000000000000160       0x18 /home/tom/intelFPGA_lite/20.1/nios2eds/bin/gnu/H-x86_64-pc-linux-gnu/bin/../lib/gcc/nios2-elf/9.2.1/../../../../../H-x86_64-pc-linux-gnu/nios2-elf/lib/libc.a(lib_a-sprintf.o)
 .debug_ranges  0x0000000000000178       0x10 /home/tom/intelFPGA_lite/20.1/nios2eds/bin/gnu/H-x86_64-pc-linux-gnu/bin/../lib/gcc/nios2-elf/9.2.1/../../../../../H-x86_64-pc-linux-gnu/nios2-elf/lib/libc.a(lib_a-strcpy.o)
 .debug_ranges  0x0000000000000188       0x20 /home/tom/intelFPGA_lite/20.1/nios2eds/bin/gnu/H-x86_64-pc-linux-gnu/bin/../lib/gcc/nios2-elf/9.2.1/../../../../../H-x86_64-pc-linux-gnu/nios2-elf/lib/libc.a(lib_a-strerror.o)
 .debug_ranges  0x00000000000001a8       0x10 /home/tom/intelFPGA_lite/20.1/nios2eds/bin/gnu/H-x86_64-pc-linux-gnu/bin/../lib/gcc/nios2-elf/9.2.1/../../../../../H-x86_64-pc-linux-gnu/nios2-elf/lib/libc.a(lib_a-strlen.o)
 .debug_ranges  0x00000000000001b8       0x10 /home/tom/intelFPGA_lite/20.1/nios2eds/bin/gnu/H-x86_64-pc-linux-gnu/bin/../lib/gcc/nios2-elf/9.2.1/../../../../../H-x86_64-pc-linux-gnu/nios2-elf/lib/libc.a(lib_a-strtok.o)
 .debug_ranges  0x00000000000001c8       0x18 /home/tom/intelFPGA_lite/20.1/nios2eds/bin/gnu/H-x86_64-pc-linux-gnu/bin/../lib/gcc/nios2-elf/9.2.1/../../../../../H-x86_64-pc-linux-gnu/nios2-elf/lib/libc.a(lib_a-strtok_r.o)
 .debug_ranges  0x00000000000001e0       0x28 /home/tom/intelFPGA_lite/20.1/nios2eds/bin/gnu/H-x86_64-pc-linux-gnu/bin/../lib/gcc/nios2-elf/9.2.1/../../../../../H-x86_64-pc-linux-gnu/nios2-elf/lib/libc.a(lib_a-strtoul.o)
 .debug_ranges  0x0000000000000208      0x188 /home/tom/intelFPGA_lite/20.1/nios2eds/bin/gnu/H-x86_64-pc-linux-gnu/bin/../lib/gcc/nios2-elf/9.2.1/../../../../../H-x86_64-pc-linux-gnu/nios2-elf/lib/libc.a(lib_a-svfprintf.o)
 .debug_ranges  0x0000000000000390       0x10 /home/tom/intelFPGA_lite/20.1/nios2eds/bin/gnu/H-x86_64-pc-linux-gnu/bin/../lib/gcc/nios2-elf/9.2.1/../../../../../H-x86_64-pc-linux-gnu/nios2-elf/lib/libc.a(lib_a-u_strerr.o)
 .debug_ranges  0x00000000000003a0      0x1a8 /home/tom/intelFPGA_lite/20.1/nios2eds/bin/gnu/H-x86_64-pc-linux-gnu/bin/../lib/gcc/nios2-elf/9.2.1/../../../../../H-x86_64-pc-linux-gnu/nios2-elf/lib/libc.a(lib_a-vfprintf.o)
 .debug_ranges  0x0000000000000548       0x10 /home/tom/intelFPGA_lite/20.1/nios2eds/bin/gnu/H-x86_64-pc-linux-gnu/bin/../lib/gcc/nios2-elf/9.2.1/../../../../../H-x86_64-pc-linux-gnu/nios2-elf/lib/libc.a(lib_a-writer.o)
 .debug_ranges  0x0000000000000558       0x30 /home/tom/intelFPGA_lite/20.1/nios2eds/bin/gnu/H-x86_64-pc-linux-gnu/bin/../lib/gcc/nios2-elf/9.2.1/../../../../../H-x86_64-pc-linux-gnu/nios2-elf/lib/libc.a(lib_a-wsetup.o)
 .debug_ranges  0x0000000000000588       0x50 /home/tom/intelFPGA_lite/20.1/nios2eds/bin/gnu/H-x86_64-pc-linux-gnu/bin/../lib/gcc/nios2-elf/9.2.1/../../../../../H-x86_64-pc-linux-gnu/nios2-elf/lib/libc.a(lib_a-dtoa.o)
 .debug_ranges  0x00000000000005d8       0x78 /home/tom/intelFPGA_lite/20.1/nios2eds/bin/gnu/H-x86_64-pc-linux-gnu/bin/../lib/gcc/nios2-elf/9.2.1/../../../../../H-x86_64-pc-linux-gnu/nios2-elf/lib/libc.a(lib_a-fflush.o)
 .debug_ranges  0x0000000000000650       0x30 /home/tom/intelFPGA_lite/20.1/nios2eds/bin/gnu/H-x86_64-pc-linux-gnu/bin/../lib/gcc/nios2-elf/9.2.1/../../../../../H-x86_64-pc-linux-gnu/nios2-elf/lib/libc.a(lib_a-fileno.o)
 .debug_ranges  0x0000000000000680      0x130 /home/tom/intelFPGA_lite/20.1/nios2eds/bin/gnu/H-x86_64-pc-linux-gnu/bin/../lib/gcc/nios2-elf/9.2.1/../../../../../H-x86_64-pc-linux-gnu/nios2-elf/lib/libc.a(lib_a-findfp.o)
 .debug_ranges  0x00000000000007b0       0x18 /home/tom/intelFPGA_lite/20.1/nios2eds/bin/gnu/H-x86_64-pc-linux-gnu/bin/../lib/gcc/nios2-elf/9.2.1/../../../../../H-x86_64-pc-linux-gnu/nios2-elf/lib/libc.a(lib_a-freer.o)
 .debug_ranges  0x00000000000007c8       0x28 /home/tom/intelFPGA_lite/20.1/nios2eds/bin/gnu/H-x86_64-pc-linux-gnu/bin/../lib/gcc/nios2-elf/9.2.1/../../../../../H-x86_64-pc-linux-gnu/nios2-elf/lib/libc.a(lib_a-fvwrite.o)
 .debug_ranges  0x00000000000007f0       0x18 /home/tom/intelFPGA_lite/20.1/nios2eds/bin/gnu/H-x86_64-pc-linux-gnu/bin/../lib/gcc/nios2-elf/9.2.1/../../../../../H-x86_64-pc-linux-gnu/nios2-elf/lib/libc.a(lib_a-fwalk.o)
 .debug_ranges  0x0000000000000808       0x58 /home/tom/intelFPGA_lite/20.1/nios2eds/bin/gnu/H-x86_64-pc-linux-gnu/bin/../lib/gcc/nios2-elf/9.2.1/../../../../../H-x86_64-pc-linux-gnu/nios2-elf/lib/libc.a(lib_a-getc.o)
 .debug_ranges  0x0000000000000860       0x20 /home/tom/intelFPGA_lite/20.1/nios2eds/bin/gnu/H-x86_64-pc-linux-gnu/bin/../lib/gcc/nios2-elf/9.2.1/../../../../../H-x86_64-pc-linux-gnu/nios2-elf/lib/libc.a(lib_a-localeconv.o)
 .debug_ranges  0x0000000000000880       0x18 /home/tom/intelFPGA_lite/20.1/nios2eds/bin/gnu/H-x86_64-pc-linux-gnu/bin/../lib/gcc/nios2-elf/9.2.1/../../../../../H-x86_64-pc-linux-gnu/nios2-elf/lib/libc.a(lib_a-makebuf.o)
 .debug_ranges  0x0000000000000898       0x48 /home/tom/intelFPGA_lite/20.1/nios2eds/bin/gnu/H-x86_64-pc-linux-gnu/bin/../lib/gcc/nios2-elf/9.2.1/../../../../../H-x86_64-pc-linux-gnu/nios2-elf/lib/libc.a(lib_a-mallocr.o)
 .debug_ranges  0x00000000000008e0       0x10 /home/tom/intelFPGA_lite/20.1/nios2eds/bin/gnu/H-x86_64-pc-linux-gnu/bin/../lib/gcc/nios2-elf/9.2.1/../../../../../H-x86_64-pc-linux-gnu/nios2-elf/lib/libc.a(lib_a-memchr.o)
 .debug_ranges  0x00000000000008f0       0x10 /home/tom/intelFPGA_lite/20.1/nios2eds/bin/gnu/H-x86_64-pc-linux-gnu/bin/../lib/gcc/nios2-elf/9.2.1/../../../../../H-x86_64-pc-linux-gnu/nios2-elf/lib/libc.a(lib_a-memmove.o)
 .debug_ranges  0x0000000000000900      0x1b8 /home/tom/intelFPGA_lite/20.1/nios2eds/bin/gnu/H-x86_64-pc-linux-gnu/bin/../lib/gcc/nios2-elf/9.2.1/../../../../../H-x86_64-pc-linux-gnu/nios2-elf/lib/libc.a(lib_a-mprec.o)
 .debug_ranges  0x0000000000000ab8       0x58 /home/tom/intelFPGA_lite/20.1/nios2eds/bin/gnu/H-x86_64-pc-linux-gnu/bin/../lib/gcc/nios2-elf/9.2.1/../../../../../H-x86_64-pc-linux-gnu/nios2-elf/lib/libc.a(lib_a-putc.o)
 .debug_ranges  0x0000000000000b10      0x138 /home/tom/intelFPGA_lite/20.1/nios2eds/bin/gnu/H-x86_64-pc-linux-gnu/bin/../lib/gcc/nios2-elf/9.2.1/../../../../../H-x86_64-pc-linux-gnu/nios2-elf/lib/libc.a(lib_a-reallocr.o)
 .debug_ranges  0x0000000000000c48       0x40 /home/tom/intelFPGA_lite/20.1/nios2eds/bin/gnu/H-x86_64-pc-linux-gnu/bin/../lib/gcc/nios2-elf/9.2.1/../../../../../H-x86_64-pc-linux-gnu/nios2-elf/lib/libc.a(lib_a-rget.o)
 .debug_ranges  0x0000000000000c88       0x10 /home/tom/intelFPGA_lite/20.1/nios2eds/bin/gnu/H-x86_64-pc-linux-gnu/bin/../lib/gcc/nios2-elf/9.2.1/../../../../../H-x86_64-pc-linux-gnu/nios2-elf/lib/libc.a(lib_a-sbrkr.o)
 .debug_ranges  0x0000000000000c98       0x30 /home/tom/intelFPGA_lite/20.1/nios2eds/bin/gnu/H-x86_64-pc-linux-gnu/bin/../lib/gcc/nios2-elf/9.2.1/../../../../../H-x86_64-pc-linux-gnu/nios2-elf/lib/libc.a(lib_a-stdio.o)
 .debug_ranges  0x0000000000000cc8       0x68 /home/tom/intelFPGA_lite/20.1/nios2eds/bin/gnu/H-x86_64-pc-linux-gnu/bin/../lib/gcc/nios2-elf/9.2.1/../../../../../H-x86_64-pc-linux-gnu/nios2-elf/lib/libc.a(lib_a-svfiprintf.o)
 .debug_ranges  0x0000000000000d30      0x1b8 /home/tom/intelFPGA_lite/20.1/nios2eds/bin/gnu/H-x86_64-pc-linux-gnu/bin/../lib/gcc/nios2-elf/9.2.1/../../../../../H-x86_64-pc-linux-gnu/nios2-elf/lib/libc.a(lib_a-vfiprintf.o)
 .debug_ranges  0x0000000000000ee8       0x40 /home/tom/intelFPGA_lite/20.1/nios2eds/bin/gnu/H-x86_64-pc-linux-gnu/bin/../lib/gcc/nios2-elf/9.2.1/../../../../../H-x86_64-pc-linux-gnu/nios2-elf/lib/libc.a(lib_a-wbuf.o)
 .debug_ranges  0x0000000000000f28       0x10 /home/tom/intelFPGA_lite/20.1/nios2eds/bin/gnu/H-x86_64-pc-linux-gnu/bin/../lib/gcc/nios2-elf/9.2.1/../../../../../H-x86_64-pc-linux-gnu/nios2-elf/lib/libc.a(closer.o)
 .debug_ranges  0x0000000000000f38       0x18 /home/tom/intelFPGA_lite/20.1/nios2eds/bin/gnu/H-x86_64-pc-linux-gnu/bin/../lib/gcc/nios2-elf/9.2.1/../../../../../H-x86_64-pc-linux-gnu/nios2-elf/lib/libc.a(lib_a-assert.o)
 .debug_ranges  0x0000000000000f50       0x58 /home/tom/intelFPGA_lite/20.1/nios2eds/bin/gnu/H-x86_64-pc-linux-gnu/bin/../lib/gcc/nios2-elf/9.2.1/../../../../../H-x86_64-pc-linux-gnu/nios2-elf/lib/libc.a(lib_a-callocr.o)
 .debug_ranges  0x0000000000000fa8       0x48 /home/tom/intelFPGA_lite/20.1/nios2eds/bin/gnu/H-x86_64-pc-linux-gnu/bin/../lib/gcc/nios2-elf/9.2.1/../../../../../H-x86_64-pc-linux-gnu/nios2-elf/lib/libc.a(lib_a-fclose.o)
 .debug_ranges  0x0000000000000ff0       0x18 /home/tom/intelFPGA_lite/20.1/nios2eds/bin/gnu/H-x86_64-pc-linux-gnu/bin/../lib/gcc/nios2-elf/9.2.1/../../../../../H-x86_64-pc-linux-gnu/nios2-elf/lib/libc.a(lib_a-fiprintf.o)
 .debug_ranges  0x0000000000001008       0x58 /home/tom/intelFPGA_lite/20.1/nios2eds/bin/gnu/H-x86_64-pc-linux-gnu/bin/../lib/gcc/nios2-elf/9.2.1/../../../../../H-x86_64-pc-linux-gnu/nios2-elf/lib/libc.a(lib_a-fputwc.o)
 .debug_ranges  0x0000000000001060       0x10 /home/tom/intelFPGA_lite/20.1/nios2eds/bin/gnu/H-x86_64-pc-linux-gnu/bin/../lib/gcc/nios2-elf/9.2.1/../../../../../H-x86_64-pc-linux-gnu/nios2-elf/lib/libc.a(lib_a-fstatr.o)
 .debug_ranges  0x0000000000001070       0x10 /home/tom/intelFPGA_lite/20.1/nios2eds/bin/gnu/H-x86_64-pc-linux-gnu/bin/../lib/gcc/nios2-elf/9.2.1/../../../../../H-x86_64-pc-linux-gnu/nios2-elf/lib/libc.a(lib_a-isattyr.o)
 .debug_ranges  0x0000000000001080       0x38 /home/tom/intelFPGA_lite/20.1/nios2eds/bin/gnu/H-x86_64-pc-linux-gnu/bin/../lib/gcc/nios2-elf/9.2.1/../../../../../H-x86_64-pc-linux-gnu/nios2-elf/lib/libc.a(lib_a-locale.o)
 .debug_ranges  0x00000000000010b8       0x10 /home/tom/intelFPGA_lite/20.1/nios2eds/bin/gnu/H-x86_64-pc-linux-gnu/bin/../lib/gcc/nios2-elf/9.2.1/../../../../../H-x86_64-pc-linux-gnu/nios2-elf/lib/libc.a(lib_a-lseekr.o)
 .debug_ranges  0x00000000000010c8       0x18 /home/tom/intelFPGA_lite/20.1/nios2eds/bin/gnu/H-x86_64-pc-linux-gnu/bin/../lib/gcc/nios2-elf/9.2.1/../../../../../H-x86_64-pc-linux-gnu/nios2-elf/lib/libc.a(lib_a-mbtowc_r.o)
 .debug_ranges  0x00000000000010e0       0x10 /home/tom/intelFPGA_lite/20.1/nios2eds/bin/gnu/H-x86_64-pc-linux-gnu/bin/../lib/gcc/nios2-elf/9.2.1/../../../../../H-x86_64-pc-linux-gnu/nios2-elf/lib/libc.a(lib_a-readr.o)
 .debug_ranges  0x00000000000010f0       0x40 /home/tom/intelFPGA_lite/20.1/nios2eds/bin/gnu/H-x86_64-pc-linux-gnu/bin/../lib/gcc/nios2-elf/9.2.1/../../../../../H-x86_64-pc-linux-gnu/nios2-elf/lib/libc.a(lib_a-refill.o)
 .debug_ranges  0x0000000000001130       0x10 /home/tom/intelFPGA_lite/20.1/nios2eds/bin/gnu/H-x86_64-pc-linux-gnu/bin/../lib/gcc/nios2-elf/9.2.1/../../../../../H-x86_64-pc-linux-gnu/nios2-elf/lib/libc.a(lib_a-strcmp.o)
 .debug_ranges  0x0000000000001140       0x10 /home/tom/intelFPGA_lite/20.1/nios2eds/bin/gnu/H-x86_64-pc-linux-gnu/bin/../lib/gcc/nios2-elf/9.2.1/../../../../../H-x86_64-pc-linux-gnu/nios2-elf/lib/libc.a(lib_a-vfiprintfr_1.o)
 .debug_ranges  0x0000000000001150       0x18 /home/tom/intelFPGA_lite/20.1/nios2eds/bin/gnu/H-x86_64-pc-linux-gnu/bin/../lib/gcc/nios2-elf/9.2.1/../../../../../H-x86_64-pc-linux-gnu/nios2-elf/lib/libc.a(lib_a-wcrtomb.o)
 .debug_ranges  0x0000000000001168       0x18 /home/tom/intelFPGA_lite/20.1/nios2eds/bin/gnu/H-x86_64-pc-linux-gnu/bin/../lib/gcc/nios2-elf/9.2.1/../../../../../H-x86_64-pc-linux-gnu/nios2-elf/lib/libc.a(lib_a-wctomb_r.o)
 .debug_ranges  0x0000000000001180       0x10 /home/tom/intelFPGA_lite/20.1/nios2eds/bin/gnu/H-x86_64-pc-linux-gnu/bin/../lib/gcc/nios2-elf/9.2.1/../../../../../H-x86_64-pc-linux-gnu/nios2-elf/lib/libc.a(lib_a-abort.o)
 .debug_ranges  0x0000000000001190       0x80 /home/tom/intelFPGA_lite/20.1/nios2eds/bin/gnu/H-x86_64-pc-linux-gnu/bin/../lib/gcc/nios2-elf/9.2.1/../../../../../H-x86_64-pc-linux-gnu/nios2-elf/lib/libc.a(lib_a-signal.o)
 .debug_ranges  0x0000000000001210       0x18 /home/tom/intelFPGA_lite/20.1/nios2eds/bin/gnu/H-x86_64-pc-linux-gnu/bin/../lib/gcc/nios2-elf/9.2.1/../../../../../H-x86_64-pc-linux-gnu/nios2-elf/lib/libc.a(lib_a-signalr.o)
 .debug_ranges  0x0000000000001228      0x1b8 /home/tom/intelFPGA_lite/20.1/nios2eds/bin/gnu/H-x86_64-pc-linux-gnu/bin/../lib/gcc/nios2-elf/9.2.1/libgcc.a(_udivdi3.o)
 .debug_ranges  0x00000000000013e0      0x168 /home/tom/intelFPGA_lite/20.1/nios2eds/bin/gnu/H-x86_64-pc-linux-gnu/bin/../lib/gcc/nios2-elf/9.2.1/libgcc.a(_umoddi3.o)
 .debug_ranges  0x0000000000001548       0x70 /home/tom/intelFPGA_lite/20.1/nios2eds/bin/gnu/H-x86_64-pc-linux-gnu/bin/../lib/gcc/nios2-elf/9.2.1/libgcc.a(lib2-divmod.o)
 .debug_ranges  0x00000000000015b8      0x250 /home/tom/intelFPGA_lite/20.1/nios2eds/bin/gnu/H-x86_64-pc-linux-gnu/bin/../lib/gcc/nios2-elf/9.2.1/libgcc.a(adddf3.o)
 .debug_ranges  0x0000000000001808      0x1c8 /home/tom/intelFPGA_lite/20.1/nios2eds/bin/gnu/H-x86_64-pc-linux-gnu/bin/../lib/gcc/nios2-elf/9.2.1/libgcc.a(divdf3.o)
 .debug_ranges  0x00000000000019d0       0x48 /home/tom/intelFPGA_lite/20.1/nios2eds/bin/gnu/H-x86_64-pc-linux-gnu/bin/../lib/gcc/nios2-elf/9.2.1/libgcc.a(eqdf2.o)
 .debug_ranges  0x0000000000001a18       0x70 /home/tom/intelFPGA_lite/20.1/nios2eds/bin/gnu/H-x86_64-pc-linux-gnu/bin/../lib/gcc/nios2-elf/9.2.1/libgcc.a(gedf2.o)
 .debug_ranges  0x0000000000001a88       0x70 /home/tom/intelFPGA_lite/20.1/nios2eds/bin/gnu/H-x86_64-pc-linux-gnu/bin/../lib/gcc/nios2-elf/9.2.1/libgcc.a(ledf2.o)
 .debug_ranges  0x0000000000001af8      0x270 /home/tom/intelFPGA_lite/20.1/nios2eds/bin/gnu/H-x86_64-pc-linux-gnu/bin/../lib/gcc/nios2-elf/9.2.1/libgcc.a(muldf3.o)
 .debug_ranges  0x0000000000001d68      0x248 /home/tom/intelFPGA_lite/20.1/nios2eds/bin/gnu/H-x86_64-pc-linux-gnu/bin/../lib/gcc/nios2-elf/9.2.1/libgcc.a(subdf3.o)
 .debug_ranges  0x0000000000001fb0       0x48 /home/tom/intelFPGA_lite/20.1/nios2eds/bin/gnu/H-x86_64-pc-linux-gnu/bin/../lib/gcc/nios2-elf/9.2.1/libgcc.a(unorddf2.o)
 .debug_ranges  0x0000000000001ff8       0x18 /home/tom/intelFPGA_lite/20.1/nios2eds/bin/gnu/H-x86_64-pc-linux-gnu/bin/../lib/gcc/nios2-elf/9.2.1/libgcc.a(fixdfsi.o)
 .debug_ranges  0x0000000000002010       0x50 /home/tom/intelFPGA_lite/20.1/nios2eds/bin/gnu/H-x86_64-pc-linux-gnu/bin/../lib/gcc/nios2-elf/9.2.1/libgcc.a(floatsidf.o)
 .debug_ranges  0x0000000000002060       0x50 /home/tom/intelFPGA_lite/20.1/nios2eds/bin/gnu/H-x86_64-pc-linux-gnu/bin/../lib/gcc/nios2-elf/9.2.1/libgcc.a(floatunsidf.o)
 .debug_ranges  0x00000000000020b0       0x20 /home/tom/intelFPGA_lite/20.1/nios2eds/bin/gnu/H-x86_64-pc-linux-gnu/bin/../lib/gcc/nios2-elf/9.2.1/libgcc.a(_clzsi2.o)
 .debug_ranges  0x00000000000020d0       0x30 ../MOD_socket_server_bsp//libucosii_bsp.a(altera_avalon_jtag_uart_init.o)
 .debug_ranges  0x0000000000002100       0x30 ../MOD_socket_server_bsp//libucosii_bsp.a(altera_avalon_jtag_uart_read.o)
 .debug_ranges  0x0000000000002130       0x18 ../MOD_socket_server_bsp//libucosii_bsp.a(altera_avalon_jtag_uart_write.o)
 .debug_ranges  0x0000000000002148       0x18 ../MOD_socket_server_bsp//libucosii_bsp.a(altera_generic_quad_spi_controller.o)
 .debug_ranges  0x0000000000002160       0x30 ../MOD_socket_server_bsp//libucosii_bsp.a(pktalloc.o)
 .debug_ranges  0x0000000000002190       0x18 ../MOD_socket_server_bsp//libucosii_bsp.a(nptcp.o)
 .debug_ranges  0x00000000000021a8       0x60 ../MOD_socket_server_bsp//libucosii_bsp.a(tcp_in.o)
 .debug_ranges  0x0000000000002208       0x48 ../MOD_socket_server_bsp//libucosii_bsp.a(tcp_out.o)
 .debug_ranges  0x0000000000002250       0x28 ../MOD_socket_server_bsp//libucosii_bsp.a(alt_irq_entry.o)
 .debug_ranges  0x0000000000002278       0x10 ../MOD_socket_server_bsp//libucosii_bsp.a(alt_irq_handler.o)
 .debug_ranges  0x0000000000002288       0x30 ../MOD_socket_server_bsp//libucosii_bsp.a(ipdemux.o)
 .debug_ranges  0x00000000000022b8       0x30 ../MOD_socket_server_bsp//libucosii_bsp.a(udp.o)
 .debug_ranges  0x00000000000022e8       0x30 ../MOD_socket_server_bsp//libucosii_bsp.a(alt_exception_entry.o)
 .debug_ranges  0x0000000000002318       0x18 ../MOD_socket_server_bsp//libucosii_bsp.a(alt_instruction_exception_entry.o)
 .debug_ranges  0x0000000000002330       0x10 /home/tom/intelFPGA_lite/20.1/nios2eds/bin/gnu/H-x86_64-pc-linux-gnu/bin/../lib/gcc/nios2-elf/9.2.1/../../../../../H-x86_64-pc-linux-gnu/nios2-elf/lib/libc.a(lib_a-atexit.o)
 .debug_ranges  0x0000000000002340       0x18 /home/tom/intelFPGA_lite/20.1/nios2eds/bin/gnu/H-x86_64-pc-linux-gnu/bin/../lib/gcc/nios2-elf/9.2.1/../../../../../H-x86_64-pc-linux-gnu/nios2-elf/lib/libc.a(lib_a-atoi.o)
 .debug_ranges  0x0000000000002358       0x10 /home/tom/intelFPGA_lite/20.1/nios2eds/bin/gnu/H-x86_64-pc-linux-gnu/bin/../lib/gcc/nios2-elf/9.2.1/../../../../../H-x86_64-pc-linux-gnu/nios2-elf/lib/libc.a(lib_a-exit.o)
 .debug_ranges  0x0000000000002368       0x18 /home/tom/intelFPGA_lite/20.1/nios2eds/bin/gnu/H-x86_64-pc-linux-gnu/bin/../lib/gcc/nios2-elf/9.2.1/../../../../../H-x86_64-pc-linux-gnu/nios2-elf/lib/libc.a(lib_a-malloc.o)
 .debug_ranges  0x0000000000002380       0x10 /home/tom/intelFPGA_lite/20.1/nios2eds/bin/gnu/H-x86_64-pc-linux-gnu/bin/../lib/gcc/nios2-elf/9.2.1/../../../../../H-x86_64-pc-linux-gnu/nios2-elf/lib/libc.a(lib_a-strchr.o)
 .debug_ranges  0x0000000000002390       0x10 /home/tom/intelFPGA_lite/20.1/nios2eds/bin/gnu/H-x86_64-pc-linux-gnu/bin/../lib/gcc/nios2-elf/9.2.1/../../../../../H-x86_64-pc-linux-gnu/nios2-elf/lib/libc.a(lib_a-strncmp.o)
 .debug_ranges  0x00000000000023a0       0x10 /home/tom/intelFPGA_lite/20.1/nios2eds/bin/gnu/H-x86_64-pc-linux-gnu/bin/../lib/gcc/nios2-elf/9.2.1/../../../../../H-x86_64-pc-linux-gnu/nios2-elf/lib/libc.a(lib_a-strncpy.o)
 .debug_ranges  0x00000000000023b0       0x28 /home/tom/intelFPGA_lite/20.1/nios2eds/bin/gnu/H-x86_64-pc-linux-gnu/bin/../lib/gcc/nios2-elf/9.2.1/../../../../../H-x86_64-pc-linux-gnu/nios2-elf/lib/libc.a(lib_a-strtol.o)
 .debug_ranges  0x00000000000023d8       0x18 /home/tom/intelFPGA_lite/20.1/nios2eds/bin/gnu/H-x86_64-pc-linux-gnu/bin/../lib/gcc/nios2-elf/9.2.1/../../../../../H-x86_64-pc-linux-gnu/nios2-elf/lib/libc.a(lib_a-vprintf.o)
 .debug_ranges  0x00000000000023f0       0x18 /home/tom/intelFPGA_lite/20.1/nios2eds/bin/gnu/H-x86_64-pc-linux-gnu/bin/../lib/gcc/nios2-elf/9.2.1/../../../../../H-x86_64-pc-linux-gnu/nios2-elf/lib/libc.a(lib_a-vsprintf.o)
 .debug_ranges  0x0000000000002408       0x10 /home/tom/intelFPGA_lite/20.1/nios2eds/bin/gnu/H-x86_64-pc-linux-gnu/bin/../lib/gcc/nios2-elf/9.2.1/../../../../../H-x86_64-pc-linux-gnu/nios2-elf/lib/libc.a(lib_a-__atexit.o)
 .debug_ranges  0x0000000000002418       0x30 /home/tom/intelFPGA_lite/20.1/nios2eds/bin/gnu/H-x86_64-pc-linux-gnu/bin/../lib/gcc/nios2-elf/9.2.1/../../../../../H-x86_64-pc-linux-gnu/nios2-elf/lib/libc.a(lib_a-__call_atexit.o)
 .debug_ranges  0x0000000000002448       0x10 /home/tom/intelFPGA_lite/20.1/nios2eds/bin/gnu/H-x86_64-pc-linux-gnu/bin/../lib/gcc/nios2-elf/9.2.1/../../../../../H-x86_64-pc-linux-gnu/nios2-elf/lib/libc.a(lib_a-vfprintfr_1.o)
